ARM GAS  C:\Users\LENOVO\AppData\Local\Temp\ccgQYW6n.s 			page 1


   1              		.cpu cortex-m4
   2              		.arch armv7e-m
   3              		.fpu fpv4-sp-d16
   4              		.eabi_attribute 27, 1
   5              		.eabi_attribute 28, 1
   6              		.eabi_attribute 20, 1
   7              		.eabi_attribute 21, 1
   8              		.eabi_attribute 23, 3
   9              		.eabi_attribute 24, 1
  10              		.eabi_attribute 25, 1
  11              		.eabi_attribute 26, 1
  12              		.eabi_attribute 30, 1
  13              		.eabi_attribute 34, 1
  14              		.eabi_attribute 18, 4
  15              		.file	"BMI088driver.c"
  16              		.text
  17              	.Ltext0:
  18              		.cfi_sections	.debug_frame
  19              		.file 1 "Bsp/BMI088/BMI088driver.c"
  20              		.section	.text.BMI088_read_muli_reg,"ax",%progbits
  21              		.align	1
  22              		.syntax unified
  23              		.thumb
  24              		.thumb_func
  26              	BMI088_read_muli_reg:
  27              	.LVL0:
  28              	.LFB138:
   1:Bsp/BMI088/BMI088driver.c **** #include "BMI088driver.h"
   2:Bsp/BMI088/BMI088driver.c **** #include "BMI088reg.h"
   3:Bsp/BMI088/BMI088driver.c **** #include "BMI088Middleware.h"
   4:Bsp/BMI088/BMI088driver.c **** #include "bsp_dwt.h"
   5:Bsp/BMI088/BMI088driver.c **** 
   6:Bsp/BMI088/BMI088driver.c **** float BMI088_ACCEL_SEN = BMI088_ACCEL_6G_SEN;
   7:Bsp/BMI088/BMI088driver.c **** float BMI088_GYRO_SEN = BMI088_GYRO_2000_SEN;
   8:Bsp/BMI088/BMI088driver.c **** 
   9:Bsp/BMI088/BMI088driver.c **** static uint8_t res = 0;
  10:Bsp/BMI088/BMI088driver.c **** static uint8_t write_reg_num = 0;
  11:Bsp/BMI088/BMI088driver.c **** static uint8_t error = BMI088_NO_ERROR;
  12:Bsp/BMI088/BMI088driver.c **** 
  13:Bsp/BMI088/BMI088driver.c **** uint8_t caliOffset = 1;
  14:Bsp/BMI088/BMI088driver.c **** 
  15:Bsp/BMI088/BMI088driver.c **** IMU_Data_t BMI088;
  16:Bsp/BMI088/BMI088driver.c **** 
  17:Bsp/BMI088/BMI088driver.c **** #if defined(BMI088_USE_SPI)
  18:Bsp/BMI088/BMI088driver.c **** 
  19:Bsp/BMI088/BMI088driver.c **** #define BMI088_accel_write_single_reg(reg, data) \
  20:Bsp/BMI088/BMI088driver.c ****     {                                            \
  21:Bsp/BMI088/BMI088driver.c ****         BMI088_ACCEL_NS_L();                     \
  22:Bsp/BMI088/BMI088driver.c ****         BMI088_write_single_reg((reg), (data));  \
  23:Bsp/BMI088/BMI088driver.c ****         BMI088_ACCEL_NS_H();                     \
  24:Bsp/BMI088/BMI088driver.c ****     }
  25:Bsp/BMI088/BMI088driver.c **** #define BMI088_accel_read_single_reg(reg, data) \
  26:Bsp/BMI088/BMI088driver.c ****     {                                           \
  27:Bsp/BMI088/BMI088driver.c ****         BMI088_ACCEL_NS_L();                    \
  28:Bsp/BMI088/BMI088driver.c ****         BMI088_read_write_byte((reg) | 0x80);   \
  29:Bsp/BMI088/BMI088driver.c ****         BMI088_read_write_byte(0x55);           \
  30:Bsp/BMI088/BMI088driver.c ****         (data) = BMI088_read_write_byte(0x55);  \
ARM GAS  C:\Users\LENOVO\AppData\Local\Temp\ccgQYW6n.s 			page 2


  31:Bsp/BMI088/BMI088driver.c ****         BMI088_ACCEL_NS_H();                    \
  32:Bsp/BMI088/BMI088driver.c ****     }
  33:Bsp/BMI088/BMI088driver.c **** //#define BMI088_accel_write_muli_reg( reg,  data, len) { BMI088_ACCEL_NS_L(); BMI088_write_muli_re
  34:Bsp/BMI088/BMI088driver.c **** #define BMI088_accel_read_muli_reg(reg, data, len) \
  35:Bsp/BMI088/BMI088driver.c ****     {                                              \
  36:Bsp/BMI088/BMI088driver.c ****         BMI088_ACCEL_NS_L();                       \
  37:Bsp/BMI088/BMI088driver.c ****         BMI088_read_write_byte((reg) | 0x80);      \
  38:Bsp/BMI088/BMI088driver.c ****         BMI088_read_muli_reg(reg, data, len);      \
  39:Bsp/BMI088/BMI088driver.c ****         BMI088_ACCEL_NS_H();                       \
  40:Bsp/BMI088/BMI088driver.c ****     }
  41:Bsp/BMI088/BMI088driver.c **** 
  42:Bsp/BMI088/BMI088driver.c **** #define BMI088_gyro_write_single_reg(reg, data) \
  43:Bsp/BMI088/BMI088driver.c ****     {                                           \
  44:Bsp/BMI088/BMI088driver.c ****         BMI088_GYRO_NS_L();                     \
  45:Bsp/BMI088/BMI088driver.c ****         BMI088_write_single_reg((reg), (data)); \
  46:Bsp/BMI088/BMI088driver.c ****         BMI088_GYRO_NS_H();                     \
  47:Bsp/BMI088/BMI088driver.c ****     }
  48:Bsp/BMI088/BMI088driver.c **** #define BMI088_gyro_read_single_reg(reg, data)  \
  49:Bsp/BMI088/BMI088driver.c ****     {                                           \
  50:Bsp/BMI088/BMI088driver.c ****         BMI088_GYRO_NS_L();                     \
  51:Bsp/BMI088/BMI088driver.c ****         BMI088_read_single_reg((reg), &(data)); \
  52:Bsp/BMI088/BMI088driver.c ****         BMI088_GYRO_NS_H();                     \
  53:Bsp/BMI088/BMI088driver.c ****     }
  54:Bsp/BMI088/BMI088driver.c **** //#define BMI088_gyro_write_muli_reg( reg,  data, len) { BMI088_GYRO_NS_L(); BMI088_write_muli_reg(
  55:Bsp/BMI088/BMI088driver.c **** #define BMI088_gyro_read_muli_reg(reg, data, len)   \
  56:Bsp/BMI088/BMI088driver.c ****     {                                               \
  57:Bsp/BMI088/BMI088driver.c ****         BMI088_GYRO_NS_L();                         \
  58:Bsp/BMI088/BMI088driver.c ****         BMI088_read_muli_reg((reg), (data), (len)); \
  59:Bsp/BMI088/BMI088driver.c ****         BMI088_GYRO_NS_H();                         \
  60:Bsp/BMI088/BMI088driver.c ****     }
  61:Bsp/BMI088/BMI088driver.c **** 
  62:Bsp/BMI088/BMI088driver.c **** static void
  63:Bsp/BMI088/BMI088driver.c **** BMI088_write_single_reg(uint8_t reg, uint8_t data);
  64:Bsp/BMI088/BMI088driver.c **** static void BMI088_read_single_reg(uint8_t reg, uint8_t *return_data);
  65:Bsp/BMI088/BMI088driver.c **** //static void BMI088_write_muli_reg(uint8_t reg, uint8_t* buf, uint8_t len );
  66:Bsp/BMI088/BMI088driver.c **** static void BMI088_read_muli_reg(uint8_t reg, uint8_t *buf, uint8_t len);
  67:Bsp/BMI088/BMI088driver.c **** 
  68:Bsp/BMI088/BMI088driver.c **** #elif defined(BMI088_USE_IIC)
  69:Bsp/BMI088/BMI088driver.c **** 
  70:Bsp/BMI088/BMI088driver.c **** #endif
  71:Bsp/BMI088/BMI088driver.c **** 
  72:Bsp/BMI088/BMI088driver.c **** static uint8_t write_BMI088_accel_reg_data_error[BMI088_WRITE_ACCEL_REG_NUM][3] =
  73:Bsp/BMI088/BMI088driver.c ****     {
  74:Bsp/BMI088/BMI088driver.c ****         {BMI088_ACC_PWR_CTRL, BMI088_ACC_ENABLE_ACC_ON, BMI088_ACC_PWR_CTRL_ERROR},
  75:Bsp/BMI088/BMI088driver.c ****         {BMI088_ACC_PWR_CONF, BMI088_ACC_PWR_ACTIVE_MODE, BMI088_ACC_PWR_CONF_ERROR},
  76:Bsp/BMI088/BMI088driver.c ****         {BMI088_ACC_CONF, BMI088_ACC_NORMAL | BMI088_ACC_800_HZ | BMI088_ACC_CONF_MUST_Set, BMI088_
  77:Bsp/BMI088/BMI088driver.c ****         {BMI088_ACC_RANGE, BMI088_ACC_RANGE_6G, BMI088_ACC_RANGE_ERROR},
  78:Bsp/BMI088/BMI088driver.c ****         {BMI088_INT1_IO_CTRL, BMI088_ACC_INT1_IO_ENABLE | BMI088_ACC_INT1_GPIO_PP | BMI088_ACC_INT1
  79:Bsp/BMI088/BMI088driver.c ****         {BMI088_INT_MAP_DATA, BMI088_ACC_INT1_DRDY_INTERRUPT, BMI088_INT_MAP_DATA_ERROR}
  80:Bsp/BMI088/BMI088driver.c **** 
  81:Bsp/BMI088/BMI088driver.c **** };
  82:Bsp/BMI088/BMI088driver.c **** 
  83:Bsp/BMI088/BMI088driver.c **** static uint8_t write_BMI088_gyro_reg_data_error[BMI088_WRITE_GYRO_REG_NUM][3] =
  84:Bsp/BMI088/BMI088driver.c ****     {
  85:Bsp/BMI088/BMI088driver.c ****         {BMI088_GYRO_RANGE, BMI088_GYRO_2000, BMI088_GYRO_RANGE_ERROR},
  86:Bsp/BMI088/BMI088driver.c ****         {BMI088_GYRO_BANDWIDTH, BMI088_GYRO_2000_230_HZ | BMI088_GYRO_BANDWIDTH_MUST_Set, BMI088_GY
  87:Bsp/BMI088/BMI088driver.c ****         {BMI088_GYRO_LPM1, BMI088_GYRO_NORMAL_MODE, BMI088_GYRO_LPM1_ERROR},
ARM GAS  C:\Users\LENOVO\AppData\Local\Temp\ccgQYW6n.s 			page 3


  88:Bsp/BMI088/BMI088driver.c ****         {BMI088_GYRO_CTRL, BMI088_DRDY_ON, BMI088_GYRO_CTRL_ERROR},
  89:Bsp/BMI088/BMI088driver.c ****         {BMI088_GYRO_INT3_INT4_IO_CONF, BMI088_GYRO_INT3_GPIO_PP | BMI088_GYRO_INT3_GPIO_LOW, BMI08
  90:Bsp/BMI088/BMI088driver.c ****         {BMI088_GYRO_INT3_INT4_IO_MAP, BMI088_GYRO_DRDY_IO_INT3, BMI088_GYRO_INT3_INT4_IO_MAP_ERROR
  91:Bsp/BMI088/BMI088driver.c **** 
  92:Bsp/BMI088/BMI088driver.c **** };
  93:Bsp/BMI088/BMI088driver.c **** 
  94:Bsp/BMI088/BMI088driver.c **** static void Calibrate_MPU_Offset(IMU_Data_t *bmi088);
  95:Bsp/BMI088/BMI088driver.c **** 
  96:Bsp/BMI088/BMI088driver.c **** void BMI088_Init(SPI_HandleTypeDef *bmi088_SPI)
  97:Bsp/BMI088/BMI088driver.c **** {
  98:Bsp/BMI088/BMI088driver.c ****     while (BMI088_init(bmi088_SPI))
  99:Bsp/BMI088/BMI088driver.c ****     {
 100:Bsp/BMI088/BMI088driver.c ****         ;
 101:Bsp/BMI088/BMI088driver.c ****     }
 102:Bsp/BMI088/BMI088driver.c **** }
 103:Bsp/BMI088/BMI088driver.c **** 
 104:Bsp/BMI088/BMI088driver.c **** uint8_t BMI088_init(SPI_HandleTypeDef *bmi088_SPI)
 105:Bsp/BMI088/BMI088driver.c **** {
 106:Bsp/BMI088/BMI088driver.c ****     BMI088_SPI = bmi088_SPI;
 107:Bsp/BMI088/BMI088driver.c ****     error = BMI088_NO_ERROR;
 108:Bsp/BMI088/BMI088driver.c **** 
 109:Bsp/BMI088/BMI088driver.c ****     error |= bmi088_accel_init();
 110:Bsp/BMI088/BMI088driver.c ****     error |= bmi088_gyro_init();
 111:Bsp/BMI088/BMI088driver.c **** 
 112:Bsp/BMI088/BMI088driver.c ****     Calibrate_MPU_Offset(&BMI088);
 113:Bsp/BMI088/BMI088driver.c **** 
 114:Bsp/BMI088/BMI088driver.c ****     return error;
 115:Bsp/BMI088/BMI088driver.c **** }
 116:Bsp/BMI088/BMI088driver.c **** 
 117:Bsp/BMI088/BMI088driver.c **** //˝Ď×ĽÁăĆ®
 118:Bsp/BMI088/BMI088driver.c **** void Calibrate_MPU_Offset(IMU_Data_t *bmi088)
 119:Bsp/BMI088/BMI088driver.c **** {
 120:Bsp/BMI088/BMI088driver.c ****     static uint8_t buf[8] = {0, 0, 0, 0, 0, 0};
 121:Bsp/BMI088/BMI088driver.c ****     static int16_t bmi088_raw_temp;
 122:Bsp/BMI088/BMI088driver.c ****     for (uint16_t i = 0; i < 1000; i++)
 123:Bsp/BMI088/BMI088driver.c ****     {
 124:Bsp/BMI088/BMI088driver.c ****         //BMI088_Read(bmi088->Gyro, bmi088->Accel, &bmi088->Temperature);
 125:Bsp/BMI088/BMI088driver.c ****         BMI088_gyro_read_muli_reg(BMI088_GYRO_CHIP_ID, buf, 8);
 126:Bsp/BMI088/BMI088driver.c ****         if (buf[0] == BMI088_GYRO_CHIP_ID_VALUE)
 127:Bsp/BMI088/BMI088driver.c ****         {
 128:Bsp/BMI088/BMI088driver.c ****             bmi088_raw_temp = (int16_t)((buf[3]) << 8) | buf[2];
 129:Bsp/BMI088/BMI088driver.c ****             bmi088->Gyro[0] = bmi088_raw_temp * BMI088_GYRO_SEN;
 130:Bsp/BMI088/BMI088driver.c ****             bmi088_raw_temp = (int16_t)((buf[5]) << 8) | buf[4];
 131:Bsp/BMI088/BMI088driver.c ****             bmi088->Gyro[1] = bmi088_raw_temp * BMI088_GYRO_SEN;
 132:Bsp/BMI088/BMI088driver.c ****             bmi088_raw_temp = (int16_t)((buf[7]) << 8) | buf[6];
 133:Bsp/BMI088/BMI088driver.c ****             bmi088->Gyro[2] = bmi088_raw_temp * BMI088_GYRO_SEN;
 134:Bsp/BMI088/BMI088driver.c ****         }
 135:Bsp/BMI088/BMI088driver.c **** 
 136:Bsp/BMI088/BMI088driver.c ****         bmi088->GyroOffset[0] += bmi088->Gyro[0];
 137:Bsp/BMI088/BMI088driver.c ****         bmi088->GyroOffset[1] += bmi088->Gyro[1];
 138:Bsp/BMI088/BMI088driver.c ****         bmi088->GyroOffset[2] += bmi088->Gyro[2];
 139:Bsp/BMI088/BMI088driver.c **** 
 140:Bsp/BMI088/BMI088driver.c ****         DWT_Delay(0.00051);
 141:Bsp/BMI088/BMI088driver.c ****     }
 142:Bsp/BMI088/BMI088driver.c ****     bmi088->GyroOffset[0] /= 1000;
 143:Bsp/BMI088/BMI088driver.c ****     bmi088->GyroOffset[1] /= 1000;
 144:Bsp/BMI088/BMI088driver.c ****     bmi088->GyroOffset[2] /= 1000;
ARM GAS  C:\Users\LENOVO\AppData\Local\Temp\ccgQYW6n.s 			page 4


 145:Bsp/BMI088/BMI088driver.c **** }
 146:Bsp/BMI088/BMI088driver.c **** 
 147:Bsp/BMI088/BMI088driver.c **** uint8_t bmi088_accel_init(void)
 148:Bsp/BMI088/BMI088driver.c **** {
 149:Bsp/BMI088/BMI088driver.c ****     //check commiunication
 150:Bsp/BMI088/BMI088driver.c ****     BMI088_accel_read_single_reg(BMI088_ACC_CHIP_ID, res);
 151:Bsp/BMI088/BMI088driver.c ****     HAL_Delay(1);
 152:Bsp/BMI088/BMI088driver.c ****     BMI088_accel_read_single_reg(BMI088_ACC_CHIP_ID, res);
 153:Bsp/BMI088/BMI088driver.c ****     HAL_Delay(1);
 154:Bsp/BMI088/BMI088driver.c **** 
 155:Bsp/BMI088/BMI088driver.c ****     //accel software reset
 156:Bsp/BMI088/BMI088driver.c ****     BMI088_accel_write_single_reg(BMI088_ACC_SOFTRESET, BMI088_ACC_SOFTRESET_VALUE);
 157:Bsp/BMI088/BMI088driver.c ****     HAL_Delay(BMI088_LONG_DELAY_TIME);
 158:Bsp/BMI088/BMI088driver.c **** 
 159:Bsp/BMI088/BMI088driver.c ****     //check commiunication is normal after reset
 160:Bsp/BMI088/BMI088driver.c ****     BMI088_accel_read_single_reg(BMI088_ACC_CHIP_ID, res);
 161:Bsp/BMI088/BMI088driver.c ****     HAL_Delay(1);
 162:Bsp/BMI088/BMI088driver.c ****     BMI088_accel_read_single_reg(BMI088_ACC_CHIP_ID, res);
 163:Bsp/BMI088/BMI088driver.c ****     HAL_Delay(1);
 164:Bsp/BMI088/BMI088driver.c **** 
 165:Bsp/BMI088/BMI088driver.c ****     // check the "who am I"
 166:Bsp/BMI088/BMI088driver.c ****     if (res != BMI088_ACC_CHIP_ID_VALUE)
 167:Bsp/BMI088/BMI088driver.c ****         return BMI088_NO_SENSOR;
 168:Bsp/BMI088/BMI088driver.c ****     // do
 169:Bsp/BMI088/BMI088driver.c ****     // {
 170:Bsp/BMI088/BMI088driver.c ****     //     BMI088_accel_read_single_reg(BMI088_ACC_CHIP_ID, res);
 171:Bsp/BMI088/BMI088driver.c ****     // } while (res != BMI088_ACC_CHIP_ID_VALUE);
 172:Bsp/BMI088/BMI088driver.c **** 
 173:Bsp/BMI088/BMI088driver.c ****     //set accel sonsor config and check
 174:Bsp/BMI088/BMI088driver.c ****     for (write_reg_num = 0; write_reg_num < BMI088_WRITE_ACCEL_REG_NUM; write_reg_num++)
 175:Bsp/BMI088/BMI088driver.c ****     {
 176:Bsp/BMI088/BMI088driver.c **** 
 177:Bsp/BMI088/BMI088driver.c ****         BMI088_accel_write_single_reg(write_BMI088_accel_reg_data_error[write_reg_num][0], write_BM
 178:Bsp/BMI088/BMI088driver.c ****         HAL_Delay(1);
 179:Bsp/BMI088/BMI088driver.c **** 
 180:Bsp/BMI088/BMI088driver.c ****         BMI088_accel_read_single_reg(write_BMI088_accel_reg_data_error[write_reg_num][0], res);
 181:Bsp/BMI088/BMI088driver.c ****         HAL_Delay(1);
 182:Bsp/BMI088/BMI088driver.c **** 
 183:Bsp/BMI088/BMI088driver.c ****         if (res != write_BMI088_accel_reg_data_error[write_reg_num][1])
 184:Bsp/BMI088/BMI088driver.c ****         {
 185:Bsp/BMI088/BMI088driver.c ****             //write_reg_num--;
 186:Bsp/BMI088/BMI088driver.c ****             //return write_BMI088_accel_reg_data_error[write_reg_num][2];
 187:Bsp/BMI088/BMI088driver.c ****             error |= write_BMI088_accel_reg_data_error[write_reg_num][2];
 188:Bsp/BMI088/BMI088driver.c ****         }
 189:Bsp/BMI088/BMI088driver.c ****     }
 190:Bsp/BMI088/BMI088driver.c ****     return BMI088_NO_ERROR;
 191:Bsp/BMI088/BMI088driver.c **** }
 192:Bsp/BMI088/BMI088driver.c **** 
 193:Bsp/BMI088/BMI088driver.c **** uint8_t bmi088_gyro_init(void)
 194:Bsp/BMI088/BMI088driver.c **** {
 195:Bsp/BMI088/BMI088driver.c ****     //check commiunication
 196:Bsp/BMI088/BMI088driver.c ****     BMI088_gyro_read_single_reg(BMI088_GYRO_CHIP_ID, res);
 197:Bsp/BMI088/BMI088driver.c ****     HAL_Delay(1);
 198:Bsp/BMI088/BMI088driver.c ****     BMI088_gyro_read_single_reg(BMI088_GYRO_CHIP_ID, res);
 199:Bsp/BMI088/BMI088driver.c ****     HAL_Delay(1);
 200:Bsp/BMI088/BMI088driver.c **** 
 201:Bsp/BMI088/BMI088driver.c ****     //reset the gyro sensor
ARM GAS  C:\Users\LENOVO\AppData\Local\Temp\ccgQYW6n.s 			page 5


 202:Bsp/BMI088/BMI088driver.c ****     BMI088_gyro_write_single_reg(BMI088_GYRO_SOFTRESET, BMI088_GYRO_SOFTRESET_VALUE);
 203:Bsp/BMI088/BMI088driver.c ****     HAL_Delay(BMI088_LONG_DELAY_TIME);
 204:Bsp/BMI088/BMI088driver.c ****     //check commiunication is normal after reset
 205:Bsp/BMI088/BMI088driver.c ****     BMI088_gyro_read_single_reg(BMI088_GYRO_CHIP_ID, res);
 206:Bsp/BMI088/BMI088driver.c ****     HAL_Delay(1);
 207:Bsp/BMI088/BMI088driver.c ****     BMI088_gyro_read_single_reg(BMI088_GYRO_CHIP_ID, res);
 208:Bsp/BMI088/BMI088driver.c ****     HAL_Delay(1);
 209:Bsp/BMI088/BMI088driver.c **** 
 210:Bsp/BMI088/BMI088driver.c ****     // check the "who am I"
 211:Bsp/BMI088/BMI088driver.c ****     if (res != BMI088_GYRO_CHIP_ID_VALUE)
 212:Bsp/BMI088/BMI088driver.c ****         return BMI088_NO_SENSOR;
 213:Bsp/BMI088/BMI088driver.c **** 
 214:Bsp/BMI088/BMI088driver.c ****     //set gyro sonsor config and check
 215:Bsp/BMI088/BMI088driver.c ****     for (write_reg_num = 0; write_reg_num < BMI088_WRITE_GYRO_REG_NUM; write_reg_num++)
 216:Bsp/BMI088/BMI088driver.c ****     {
 217:Bsp/BMI088/BMI088driver.c **** 
 218:Bsp/BMI088/BMI088driver.c ****         BMI088_gyro_write_single_reg(write_BMI088_gyro_reg_data_error[write_reg_num][0], write_BMI0
 219:Bsp/BMI088/BMI088driver.c ****         HAL_Delay(1);
 220:Bsp/BMI088/BMI088driver.c **** 
 221:Bsp/BMI088/BMI088driver.c ****         BMI088_gyro_read_single_reg(write_BMI088_gyro_reg_data_error[write_reg_num][0], res);
 222:Bsp/BMI088/BMI088driver.c ****         HAL_Delay(1);
 223:Bsp/BMI088/BMI088driver.c **** 
 224:Bsp/BMI088/BMI088driver.c ****         if (res != write_BMI088_gyro_reg_data_error[write_reg_num][1])
 225:Bsp/BMI088/BMI088driver.c ****         {
 226:Bsp/BMI088/BMI088driver.c ****             write_reg_num--;
 227:Bsp/BMI088/BMI088driver.c ****             //return write_BMI088_gyro_reg_data_error[write_reg_num][2];
 228:Bsp/BMI088/BMI088driver.c ****             error |= write_BMI088_accel_reg_data_error[write_reg_num][2];
 229:Bsp/BMI088/BMI088driver.c ****         }
 230:Bsp/BMI088/BMI088driver.c ****     }
 231:Bsp/BMI088/BMI088driver.c **** 
 232:Bsp/BMI088/BMI088driver.c ****     return BMI088_NO_ERROR;
 233:Bsp/BMI088/BMI088driver.c **** }
 234:Bsp/BMI088/BMI088driver.c **** 
 235:Bsp/BMI088/BMI088driver.c **** void BMI088_Read(IMU_Data_t *bmi088)
 236:Bsp/BMI088/BMI088driver.c **** {
 237:Bsp/BMI088/BMI088driver.c ****     static uint8_t buf[8] = {0, 0, 0, 0, 0, 0};
 238:Bsp/BMI088/BMI088driver.c ****     static int16_t bmi088_raw_temp;
 239:Bsp/BMI088/BMI088driver.c **** 
 240:Bsp/BMI088/BMI088driver.c ****     BMI088_accel_read_muli_reg(BMI088_ACCEL_XOUT_L, buf, 6);
 241:Bsp/BMI088/BMI088driver.c **** 
 242:Bsp/BMI088/BMI088driver.c ****     bmi088_raw_temp = (int16_t)((buf[1]) << 8) | buf[0];
 243:Bsp/BMI088/BMI088driver.c ****     bmi088->Accel[0] = bmi088_raw_temp * BMI088_ACCEL_SEN;
 244:Bsp/BMI088/BMI088driver.c ****     bmi088_raw_temp = (int16_t)((buf[3]) << 8) | buf[2];
 245:Bsp/BMI088/BMI088driver.c ****     bmi088->Accel[1] = bmi088_raw_temp * BMI088_ACCEL_SEN;
 246:Bsp/BMI088/BMI088driver.c ****     bmi088_raw_temp = (int16_t)((buf[5]) << 8) | buf[4];
 247:Bsp/BMI088/BMI088driver.c ****     bmi088->Accel[2] = bmi088_raw_temp * BMI088_ACCEL_SEN;
 248:Bsp/BMI088/BMI088driver.c **** 
 249:Bsp/BMI088/BMI088driver.c ****     BMI088_gyro_read_muli_reg(BMI088_GYRO_CHIP_ID, buf, 8);
 250:Bsp/BMI088/BMI088driver.c ****     if (buf[0] == BMI088_GYRO_CHIP_ID_VALUE)
 251:Bsp/BMI088/BMI088driver.c ****     {
 252:Bsp/BMI088/BMI088driver.c ****         if (caliOffset)
 253:Bsp/BMI088/BMI088driver.c ****         {
 254:Bsp/BMI088/BMI088driver.c ****             bmi088_raw_temp = (int16_t)((buf[3]) << 8) | buf[2];
 255:Bsp/BMI088/BMI088driver.c ****             bmi088->Gyro[0] = bmi088_raw_temp * BMI088_GYRO_SEN - bmi088->GyroOffset[0];
 256:Bsp/BMI088/BMI088driver.c ****             bmi088_raw_temp = (int16_t)((buf[5]) << 8) | buf[4];
 257:Bsp/BMI088/BMI088driver.c ****             bmi088->Gyro[1] = bmi088_raw_temp * BMI088_GYRO_SEN - bmi088->GyroOffset[1];
 258:Bsp/BMI088/BMI088driver.c ****             bmi088_raw_temp = (int16_t)((buf[7]) << 8) | buf[6];
ARM GAS  C:\Users\LENOVO\AppData\Local\Temp\ccgQYW6n.s 			page 6


 259:Bsp/BMI088/BMI088driver.c ****             bmi088->Gyro[2] = bmi088_raw_temp * BMI088_GYRO_SEN - bmi088->GyroOffset[2];
 260:Bsp/BMI088/BMI088driver.c ****         }
 261:Bsp/BMI088/BMI088driver.c ****         else
 262:Bsp/BMI088/BMI088driver.c ****         {
 263:Bsp/BMI088/BMI088driver.c ****             bmi088_raw_temp = (int16_t)((buf[3]) << 8) | buf[2];
 264:Bsp/BMI088/BMI088driver.c ****             bmi088->Gyro[0] = bmi088_raw_temp * BMI088_GYRO_SEN;
 265:Bsp/BMI088/BMI088driver.c ****             bmi088_raw_temp = (int16_t)((buf[5]) << 8) | buf[4];
 266:Bsp/BMI088/BMI088driver.c ****             bmi088->Gyro[1] = bmi088_raw_temp * BMI088_GYRO_SEN;
 267:Bsp/BMI088/BMI088driver.c ****             bmi088_raw_temp = (int16_t)((buf[7]) << 8) | buf[6];
 268:Bsp/BMI088/BMI088driver.c ****             bmi088->Gyro[2] = bmi088_raw_temp * BMI088_GYRO_SEN;
 269:Bsp/BMI088/BMI088driver.c ****         }
 270:Bsp/BMI088/BMI088driver.c ****     }
 271:Bsp/BMI088/BMI088driver.c ****     BMI088_accel_read_muli_reg(BMI088_TEMP_M, buf, 2);
 272:Bsp/BMI088/BMI088driver.c **** 
 273:Bsp/BMI088/BMI088driver.c ****     bmi088_raw_temp = (int16_t)((buf[0] << 3) | (buf[1] >> 5));
 274:Bsp/BMI088/BMI088driver.c **** 
 275:Bsp/BMI088/BMI088driver.c ****     if (bmi088_raw_temp > 1023)
 276:Bsp/BMI088/BMI088driver.c ****     {
 277:Bsp/BMI088/BMI088driver.c ****         bmi088_raw_temp -= 2048;
 278:Bsp/BMI088/BMI088driver.c ****     }
 279:Bsp/BMI088/BMI088driver.c **** 
 280:Bsp/BMI088/BMI088driver.c ****     bmi088->Temperature = bmi088_raw_temp * BMI088_TEMP_FACTOR + BMI088_TEMP_OFFSET;
 281:Bsp/BMI088/BMI088driver.c **** }
 282:Bsp/BMI088/BMI088driver.c **** 
 283:Bsp/BMI088/BMI088driver.c **** #if defined(BMI088_USE_SPI)
 284:Bsp/BMI088/BMI088driver.c **** 
 285:Bsp/BMI088/BMI088driver.c **** static void BMI088_write_single_reg(uint8_t reg, uint8_t data)
 286:Bsp/BMI088/BMI088driver.c **** {
 287:Bsp/BMI088/BMI088driver.c ****     BMI088_read_write_byte(reg);
 288:Bsp/BMI088/BMI088driver.c ****     BMI088_read_write_byte(data);
 289:Bsp/BMI088/BMI088driver.c **** }
 290:Bsp/BMI088/BMI088driver.c **** 
 291:Bsp/BMI088/BMI088driver.c **** static void BMI088_read_single_reg(uint8_t reg, uint8_t *return_data)
 292:Bsp/BMI088/BMI088driver.c **** {
 293:Bsp/BMI088/BMI088driver.c ****     BMI088_read_write_byte(reg | 0x80);
 294:Bsp/BMI088/BMI088driver.c ****     *return_data = BMI088_read_write_byte(0x55);
 295:Bsp/BMI088/BMI088driver.c **** }
 296:Bsp/BMI088/BMI088driver.c **** 
 297:Bsp/BMI088/BMI088driver.c **** //static void BMI088_write_muli_reg(uint8_t reg, uint8_t* buf, uint8_t len )
 298:Bsp/BMI088/BMI088driver.c **** //{
 299:Bsp/BMI088/BMI088driver.c **** //    BMI088_read_write_byte( reg );
 300:Bsp/BMI088/BMI088driver.c **** //    while( len != 0 )
 301:Bsp/BMI088/BMI088driver.c **** //    {
 302:Bsp/BMI088/BMI088driver.c **** 
 303:Bsp/BMI088/BMI088driver.c **** //        BMI088_read_write_byte( *buf );
 304:Bsp/BMI088/BMI088driver.c **** //        buf ++;
 305:Bsp/BMI088/BMI088driver.c **** //        len --;
 306:Bsp/BMI088/BMI088driver.c **** //    }
 307:Bsp/BMI088/BMI088driver.c **** 
 308:Bsp/BMI088/BMI088driver.c **** //}
 309:Bsp/BMI088/BMI088driver.c **** 
 310:Bsp/BMI088/BMI088driver.c **** static void BMI088_read_muli_reg(uint8_t reg, uint8_t *buf, uint8_t len)
 311:Bsp/BMI088/BMI088driver.c **** {
  29              		.loc 1 311 1 view -0
  30              		.cfi_startproc
  31              		@ args = 0, pretend = 0, frame = 0
  32              		@ frame_needed = 0, uses_anonymous_args = 0
ARM GAS  C:\Users\LENOVO\AppData\Local\Temp\ccgQYW6n.s 			page 7


  33              		.loc 1 311 1 is_stmt 0 view .LVU1
  34 0000 38B5     		push	{r3, r4, r5, lr}
  35              	.LCFI0:
  36              		.cfi_def_cfa_offset 16
  37              		.cfi_offset 3, -16
  38              		.cfi_offset 4, -12
  39              		.cfi_offset 5, -8
  40              		.cfi_offset 14, -4
  41 0002 0D46     		mov	r5, r1
  42 0004 1446     		mov	r4, r2
 312:Bsp/BMI088/BMI088driver.c ****     BMI088_read_write_byte(reg | 0x80);
  43              		.loc 1 312 5 is_stmt 1 view .LVU2
  44 0006 40F08000 		orr	r0, r0, #128
  45              	.LVL1:
  46              		.loc 1 312 5 is_stmt 0 view .LVU3
  47 000a FFF7FEFF 		bl	BMI088_read_write_byte
  48              	.LVL2:
 313:Bsp/BMI088/BMI088driver.c **** 
 314:Bsp/BMI088/BMI088driver.c ****     while (len != 0)
  49              		.loc 1 314 5 is_stmt 1 view .LVU4
  50              		.loc 1 314 11 is_stmt 0 view .LVU5
  51 000e 06E0     		b	.L2
  52              	.L3:
 315:Bsp/BMI088/BMI088driver.c ****     {
 316:Bsp/BMI088/BMI088driver.c **** 
 317:Bsp/BMI088/BMI088driver.c ****         *buf = BMI088_read_write_byte(0x55);
  53              		.loc 1 317 9 is_stmt 1 view .LVU6
  54              		.loc 1 317 16 is_stmt 0 view .LVU7
  55 0010 5520     		movs	r0, #85
  56 0012 FFF7FEFF 		bl	BMI088_read_write_byte
  57              	.LVL3:
  58              		.loc 1 317 14 discriminator 1 view .LVU8
  59 0016 05F8010B 		strb	r0, [r5], #1
  60              	.LVL4:
 318:Bsp/BMI088/BMI088driver.c ****         buf++;
  61              		.loc 1 318 9 is_stmt 1 view .LVU9
 319:Bsp/BMI088/BMI088driver.c ****         len--;
  62              		.loc 1 319 9 view .LVU10
  63              		.loc 1 319 12 is_stmt 0 view .LVU11
  64 001a 013C     		subs	r4, r4, #1
  65              	.LVL5:
  66              		.loc 1 319 12 view .LVU12
  67 001c E4B2     		uxtb	r4, r4
  68              	.LVL6:
  69              	.L2:
 314:Bsp/BMI088/BMI088driver.c ****     {
  70              		.loc 1 314 16 is_stmt 1 view .LVU13
  71 001e 002C     		cmp	r4, #0
  72 0020 F6D1     		bne	.L3
 320:Bsp/BMI088/BMI088driver.c ****     }
 321:Bsp/BMI088/BMI088driver.c **** }
  73              		.loc 1 321 1 is_stmt 0 view .LVU14
  74 0022 38BD     		pop	{r3, r4, r5, pc}
  75              		.loc 1 321 1 view .LVU15
  76              		.cfi_endproc
  77              	.LFE138:
  79              		.section	.text.Calibrate_MPU_Offset,"ax",%progbits
ARM GAS  C:\Users\LENOVO\AppData\Local\Temp\ccgQYW6n.s 			page 8


  80              		.align	1
  81              		.syntax unified
  82              		.thumb
  83              		.thumb_func
  85              	Calibrate_MPU_Offset:
  86              	.LVL7:
  87              	.LFB132:
 119:Bsp/BMI088/BMI088driver.c ****     static uint8_t buf[8] = {0, 0, 0, 0, 0, 0};
  88              		.loc 1 119 1 is_stmt 1 view -0
  89              		.cfi_startproc
  90              		@ args = 0, pretend = 0, frame = 0
  91              		@ frame_needed = 0, uses_anonymous_args = 0
 119:Bsp/BMI088/BMI088driver.c ****     static uint8_t buf[8] = {0, 0, 0, 0, 0, 0};
  92              		.loc 1 119 1 is_stmt 0 view .LVU17
  93 0000 70B5     		push	{r4, r5, r6, lr}
  94              	.LCFI1:
  95              		.cfi_def_cfa_offset 16
  96              		.cfi_offset 4, -16
  97              		.cfi_offset 5, -12
  98              		.cfi_offset 6, -8
  99              		.cfi_offset 14, -4
 100 0002 0446     		mov	r4, r0
 120:Bsp/BMI088/BMI088driver.c ****     static int16_t bmi088_raw_temp;
 101              		.loc 1 120 5 is_stmt 1 view .LVU18
 121:Bsp/BMI088/BMI088driver.c ****     for (uint16_t i = 0; i < 1000; i++)
 102              		.loc 1 121 5 view .LVU19
 122:Bsp/BMI088/BMI088driver.c ****     {
 103              		.loc 1 122 5 view .LVU20
 104              	.LBB2:
 122:Bsp/BMI088/BMI088driver.c ****     {
 105              		.loc 1 122 10 view .LVU21
 106              	.LVL8:
 122:Bsp/BMI088/BMI088driver.c ****     {
 107              		.loc 1 122 19 is_stmt 0 view .LVU22
 108 0004 0025     		movs	r5, #0
 122:Bsp/BMI088/BMI088driver.c ****     {
 109              		.loc 1 122 5 view .LVU23
 110 0006 1DE0     		b	.L6
 111              	.LVL9:
 112              	.L7:
 136:Bsp/BMI088/BMI088driver.c ****         bmi088->GyroOffset[1] += bmi088->Gyro[1];
 113              		.loc 1 136 9 is_stmt 1 view .LVU24
 136:Bsp/BMI088/BMI088driver.c ****         bmi088->GyroOffset[1] += bmi088->Gyro[1];
 114              		.loc 1 136 27 is_stmt 0 view .LVU25
 115 0008 D4ED077A 		vldr.32	s15, [r4, #28]
 136:Bsp/BMI088/BMI088driver.c ****         bmi088->GyroOffset[1] += bmi088->Gyro[1];
 116              		.loc 1 136 46 view .LVU26
 117 000c 94ED037A 		vldr.32	s14, [r4, #12]
 136:Bsp/BMI088/BMI088driver.c ****         bmi088->GyroOffset[1] += bmi088->Gyro[1];
 118              		.loc 1 136 31 view .LVU27
 119 0010 77EE877A 		vadd.f32	s15, s15, s14
 120 0014 C4ED077A 		vstr.32	s15, [r4, #28]
 137:Bsp/BMI088/BMI088driver.c ****         bmi088->GyroOffset[2] += bmi088->Gyro[2];
 121              		.loc 1 137 9 is_stmt 1 view .LVU28
 137:Bsp/BMI088/BMI088driver.c ****         bmi088->GyroOffset[2] += bmi088->Gyro[2];
 122              		.loc 1 137 27 is_stmt 0 view .LVU29
 123 0018 D4ED087A 		vldr.32	s15, [r4, #32]
ARM GAS  C:\Users\LENOVO\AppData\Local\Temp\ccgQYW6n.s 			page 9


 137:Bsp/BMI088/BMI088driver.c ****         bmi088->GyroOffset[2] += bmi088->Gyro[2];
 124              		.loc 1 137 46 view .LVU30
 125 001c 94ED047A 		vldr.32	s14, [r4, #16]
 137:Bsp/BMI088/BMI088driver.c ****         bmi088->GyroOffset[2] += bmi088->Gyro[2];
 126              		.loc 1 137 31 view .LVU31
 127 0020 77EE877A 		vadd.f32	s15, s15, s14
 128 0024 C4ED087A 		vstr.32	s15, [r4, #32]
 138:Bsp/BMI088/BMI088driver.c **** 
 129              		.loc 1 138 9 is_stmt 1 view .LVU32
 138:Bsp/BMI088/BMI088driver.c **** 
 130              		.loc 1 138 27 is_stmt 0 view .LVU33
 131 0028 D4ED097A 		vldr.32	s15, [r4, #36]
 138:Bsp/BMI088/BMI088driver.c **** 
 132              		.loc 1 138 46 view .LVU34
 133 002c 94ED057A 		vldr.32	s14, [r4, #20]
 138:Bsp/BMI088/BMI088driver.c **** 
 134              		.loc 1 138 31 view .LVU35
 135 0030 77EE877A 		vadd.f32	s15, s15, s14
 136 0034 C4ED097A 		vstr.32	s15, [r4, #36]
 140:Bsp/BMI088/BMI088driver.c ****     }
 137              		.loc 1 140 9 is_stmt 1 view .LVU36
 138 0038 9FED2C0A 		vldr.32	s0, .L11
 139 003c FFF7FEFF 		bl	DWT_Delay
 140              	.LVL10:
 122:Bsp/BMI088/BMI088driver.c ****     {
 141              		.loc 1 122 37 discriminator 2 view .LVU37
 142 0040 0135     		adds	r5, r5, #1
 143              	.LVL11:
 122:Bsp/BMI088/BMI088driver.c ****     {
 144              		.loc 1 122 37 is_stmt 0 discriminator 2 view .LVU38
 145 0042 ADB2     		uxth	r5, r5
 146              	.LVL12:
 147              	.L6:
 122:Bsp/BMI088/BMI088driver.c ****     {
 148              		.loc 1 122 28 is_stmt 1 discriminator 1 view .LVU39
 149 0044 B5F57A7F 		cmp	r5, #1000
 150 0048 3BD2     		bcs	.L10
 125:Bsp/BMI088/BMI088driver.c ****         if (buf[0] == BMI088_GYRO_CHIP_ID_VALUE)
 151              		.loc 1 125 9 view .LVU40
 152 004a FFF7FEFF 		bl	BMI088_GYRO_NS_L
 153              	.LVL13:
 125:Bsp/BMI088/BMI088driver.c ****         if (buf[0] == BMI088_GYRO_CHIP_ID_VALUE)
 154              		.loc 1 125 9 discriminator 1 view .LVU41
 155 004e 284E     		ldr	r6, .L11+4
 156 0050 0822     		movs	r2, #8
 157 0052 3146     		mov	r1, r6
 158 0054 0020     		movs	r0, #0
 159 0056 FFF7FEFF 		bl	BMI088_read_muli_reg
 160              	.LVL14:
 125:Bsp/BMI088/BMI088driver.c ****         if (buf[0] == BMI088_GYRO_CHIP_ID_VALUE)
 161              		.loc 1 125 9 discriminator 2 view .LVU42
 162 005a FFF7FEFF 		bl	BMI088_GYRO_NS_H
 163              	.LVL15:
 125:Bsp/BMI088/BMI088driver.c ****         if (buf[0] == BMI088_GYRO_CHIP_ID_VALUE)
 164              		.loc 1 125 63 discriminator 3 view .LVU43
 126:Bsp/BMI088/BMI088driver.c ****         {
 165              		.loc 1 126 9 view .LVU44
ARM GAS  C:\Users\LENOVO\AppData\Local\Temp\ccgQYW6n.s 			page 10


 126:Bsp/BMI088/BMI088driver.c ****         {
 166              		.loc 1 126 16 is_stmt 0 view .LVU45
 167 005e 3378     		ldrb	r3, [r6]	@ zero_extendqisi2
 126:Bsp/BMI088/BMI088driver.c ****         {
 168              		.loc 1 126 12 view .LVU46
 169 0060 0F2B     		cmp	r3, #15
 170 0062 D1D1     		bne	.L7
 128:Bsp/BMI088/BMI088driver.c ****             bmi088->Gyro[0] = bmi088_raw_temp * BMI088_GYRO_SEN;
 171              		.loc 1 128 13 is_stmt 1 view .LVU47
 128:Bsp/BMI088/BMI088driver.c ****             bmi088->Gyro[0] = bmi088_raw_temp * BMI088_GYRO_SEN;
 172              		.loc 1 128 45 is_stmt 0 view .LVU48
 173 0064 F378     		ldrb	r3, [r6, #3]	@ zero_extendqisi2
 128:Bsp/BMI088/BMI088driver.c ****             bmi088->Gyro[0] = bmi088_raw_temp * BMI088_GYRO_SEN;
 174              		.loc 1 128 31 view .LVU49
 175 0066 1B02     		lsls	r3, r3, #8
 176 0068 1BB2     		sxth	r3, r3
 128:Bsp/BMI088/BMI088driver.c ****             bmi088->Gyro[0] = bmi088_raw_temp * BMI088_GYRO_SEN;
 177              		.loc 1 128 61 view .LVU50
 178 006a B178     		ldrb	r1, [r6, #2]	@ zero_extendqisi2
 128:Bsp/BMI088/BMI088driver.c ****             bmi088->Gyro[0] = bmi088_raw_temp * BMI088_GYRO_SEN;
 179              		.loc 1 128 56 view .LVU51
 180 006c 0B43     		orrs	r3, r3, r1
 128:Bsp/BMI088/BMI088driver.c ****             bmi088->Gyro[0] = bmi088_raw_temp * BMI088_GYRO_SEN;
 181              		.loc 1 128 29 view .LVU52
 182 006e 2149     		ldr	r1, .L11+8
 183 0070 0B80     		strh	r3, [r1]	@ movhi
 129:Bsp/BMI088/BMI088driver.c ****             bmi088_raw_temp = (int16_t)((buf[5]) << 8) | buf[4];
 184              		.loc 1 129 13 is_stmt 1 view .LVU53
 129:Bsp/BMI088/BMI088driver.c ****             bmi088_raw_temp = (int16_t)((buf[5]) << 8) | buf[4];
 185              		.loc 1 129 47 is_stmt 0 view .LVU54
 186 0072 2148     		ldr	r0, .L11+12
 187 0074 90ED007A 		vldr.32	s14, [r0]
 188 0078 07EE903A 		vmov	s15, r3	@ int
 189 007c F8EEE77A 		vcvt.f32.s32	s15, s15
 190 0080 67EE877A 		vmul.f32	s15, s15, s14
 129:Bsp/BMI088/BMI088driver.c ****             bmi088_raw_temp = (int16_t)((buf[5]) << 8) | buf[4];
 191              		.loc 1 129 29 view .LVU55
 192 0084 C4ED037A 		vstr.32	s15, [r4, #12]
 130:Bsp/BMI088/BMI088driver.c ****             bmi088->Gyro[1] = bmi088_raw_temp * BMI088_GYRO_SEN;
 193              		.loc 1 130 13 is_stmt 1 view .LVU56
 130:Bsp/BMI088/BMI088driver.c ****             bmi088->Gyro[1] = bmi088_raw_temp * BMI088_GYRO_SEN;
 194              		.loc 1 130 45 is_stmt 0 view .LVU57
 195 0088 7379     		ldrb	r3, [r6, #5]	@ zero_extendqisi2
 130:Bsp/BMI088/BMI088driver.c ****             bmi088->Gyro[1] = bmi088_raw_temp * BMI088_GYRO_SEN;
 196              		.loc 1 130 31 view .LVU58
 197 008a 1B02     		lsls	r3, r3, #8
 198 008c 1BB2     		sxth	r3, r3
 130:Bsp/BMI088/BMI088driver.c ****             bmi088->Gyro[1] = bmi088_raw_temp * BMI088_GYRO_SEN;
 199              		.loc 1 130 61 view .LVU59
 200 008e 3079     		ldrb	r0, [r6, #4]	@ zero_extendqisi2
 130:Bsp/BMI088/BMI088driver.c ****             bmi088->Gyro[1] = bmi088_raw_temp * BMI088_GYRO_SEN;
 201              		.loc 1 130 56 view .LVU60
 202 0090 0343     		orrs	r3, r3, r0
 130:Bsp/BMI088/BMI088driver.c ****             bmi088->Gyro[1] = bmi088_raw_temp * BMI088_GYRO_SEN;
 203              		.loc 1 130 29 view .LVU61
 204 0092 0B80     		strh	r3, [r1]	@ movhi
 131:Bsp/BMI088/BMI088driver.c ****             bmi088_raw_temp = (int16_t)((buf[7]) << 8) | buf[6];
ARM GAS  C:\Users\LENOVO\AppData\Local\Temp\ccgQYW6n.s 			page 11


 205              		.loc 1 131 13 is_stmt 1 view .LVU62
 131:Bsp/BMI088/BMI088driver.c ****             bmi088_raw_temp = (int16_t)((buf[7]) << 8) | buf[6];
 206              		.loc 1 131 47 is_stmt 0 view .LVU63
 207 0094 07EE903A 		vmov	s15, r3	@ int
 208 0098 F8EEE77A 		vcvt.f32.s32	s15, s15
 209 009c 67EE877A 		vmul.f32	s15, s15, s14
 131:Bsp/BMI088/BMI088driver.c ****             bmi088_raw_temp = (int16_t)((buf[7]) << 8) | buf[6];
 210              		.loc 1 131 29 view .LVU64
 211 00a0 C4ED047A 		vstr.32	s15, [r4, #16]
 132:Bsp/BMI088/BMI088driver.c ****             bmi088->Gyro[2] = bmi088_raw_temp * BMI088_GYRO_SEN;
 212              		.loc 1 132 13 is_stmt 1 view .LVU65
 132:Bsp/BMI088/BMI088driver.c ****             bmi088->Gyro[2] = bmi088_raw_temp * BMI088_GYRO_SEN;
 213              		.loc 1 132 45 is_stmt 0 view .LVU66
 214 00a4 F379     		ldrb	r3, [r6, #7]	@ zero_extendqisi2
 132:Bsp/BMI088/BMI088driver.c ****             bmi088->Gyro[2] = bmi088_raw_temp * BMI088_GYRO_SEN;
 215              		.loc 1 132 31 view .LVU67
 216 00a6 1B02     		lsls	r3, r3, #8
 217 00a8 1BB2     		sxth	r3, r3
 132:Bsp/BMI088/BMI088driver.c ****             bmi088->Gyro[2] = bmi088_raw_temp * BMI088_GYRO_SEN;
 218              		.loc 1 132 61 view .LVU68
 219 00aa B279     		ldrb	r2, [r6, #6]	@ zero_extendqisi2
 132:Bsp/BMI088/BMI088driver.c ****             bmi088->Gyro[2] = bmi088_raw_temp * BMI088_GYRO_SEN;
 220              		.loc 1 132 56 view .LVU69
 221 00ac 1343     		orrs	r3, r3, r2
 132:Bsp/BMI088/BMI088driver.c ****             bmi088->Gyro[2] = bmi088_raw_temp * BMI088_GYRO_SEN;
 222              		.loc 1 132 29 view .LVU70
 223 00ae 0B80     		strh	r3, [r1]	@ movhi
 133:Bsp/BMI088/BMI088driver.c ****         }
 224              		.loc 1 133 13 is_stmt 1 view .LVU71
 133:Bsp/BMI088/BMI088driver.c ****         }
 225              		.loc 1 133 47 is_stmt 0 view .LVU72
 226 00b0 07EE903A 		vmov	s15, r3	@ int
 227 00b4 F8EEE77A 		vcvt.f32.s32	s15, s15
 228 00b8 67EE877A 		vmul.f32	s15, s15, s14
 133:Bsp/BMI088/BMI088driver.c ****         }
 229              		.loc 1 133 29 view .LVU73
 230 00bc C4ED057A 		vstr.32	s15, [r4, #20]
 231 00c0 A2E7     		b	.L7
 232              	.L10:
 133:Bsp/BMI088/BMI088driver.c ****         }
 233              		.loc 1 133 29 view .LVU74
 234              	.LBE2:
 142:Bsp/BMI088/BMI088driver.c ****     bmi088->GyroOffset[1] /= 1000;
 235              		.loc 1 142 5 is_stmt 1 view .LVU75
 142:Bsp/BMI088/BMI088driver.c ****     bmi088->GyroOffset[1] /= 1000;
 236              		.loc 1 142 23 is_stmt 0 view .LVU76
 237 00c2 D4ED076A 		vldr.32	s13, [r4, #28]
 142:Bsp/BMI088/BMI088driver.c ****     bmi088->GyroOffset[1] /= 1000;
 238              		.loc 1 142 27 view .LVU77
 239 00c6 DFED0D7A 		vldr.32	s15, .L11+16
 240 00ca 86EEA77A 		vdiv.f32	s14, s13, s15
 241 00ce 84ED077A 		vstr.32	s14, [r4, #28]
 143:Bsp/BMI088/BMI088driver.c ****     bmi088->GyroOffset[2] /= 1000;
 242              		.loc 1 143 5 is_stmt 1 view .LVU78
 143:Bsp/BMI088/BMI088driver.c ****     bmi088->GyroOffset[2] /= 1000;
 243              		.loc 1 143 23 is_stmt 0 view .LVU79
 244 00d2 D4ED086A 		vldr.32	s13, [r4, #32]
ARM GAS  C:\Users\LENOVO\AppData\Local\Temp\ccgQYW6n.s 			page 12


 143:Bsp/BMI088/BMI088driver.c ****     bmi088->GyroOffset[2] /= 1000;
 245              		.loc 1 143 27 view .LVU80
 246 00d6 86EEA77A 		vdiv.f32	s14, s13, s15
 247 00da 84ED087A 		vstr.32	s14, [r4, #32]
 144:Bsp/BMI088/BMI088driver.c **** }
 248              		.loc 1 144 5 is_stmt 1 view .LVU81
 144:Bsp/BMI088/BMI088driver.c **** }
 249              		.loc 1 144 23 is_stmt 0 view .LVU82
 250 00de D4ED096A 		vldr.32	s13, [r4, #36]
 144:Bsp/BMI088/BMI088driver.c **** }
 251              		.loc 1 144 27 view .LVU83
 252 00e2 86EEA77A 		vdiv.f32	s14, s13, s15
 253 00e6 84ED097A 		vstr.32	s14, [r4, #36]
 145:Bsp/BMI088/BMI088driver.c **** 
 254              		.loc 1 145 1 view .LVU84
 255 00ea 70BD     		pop	{r4, r5, r6, pc}
 256              	.LVL16:
 257              	.L12:
 145:Bsp/BMI088/BMI088driver.c **** 
 258              		.loc 1 145 1 view .LVU85
 259              		.align	2
 260              	.L11:
 261 00ec 85B1053A 		.word	973451653
 262 00f0 00000000 		.word	buf.3
 263 00f4 00000000 		.word	bmi088_raw_temp.2
 264 00f8 00000000 		.word	BMI088_GYRO_SEN
 265 00fc 00007A44 		.word	1148846080
 266              		.cfi_endproc
 267              	.LFE132:
 269              		.section	.text.BMI088_write_single_reg,"ax",%progbits
 270              		.align	1
 271              		.syntax unified
 272              		.thumb
 273              		.thumb_func
 275              	BMI088_write_single_reg:
 276              	.LVL17:
 277              	.LFB136:
 286:Bsp/BMI088/BMI088driver.c ****     BMI088_read_write_byte(reg);
 278              		.loc 1 286 1 is_stmt 1 view -0
 279              		.cfi_startproc
 280              		@ args = 0, pretend = 0, frame = 0
 281              		@ frame_needed = 0, uses_anonymous_args = 0
 286:Bsp/BMI088/BMI088driver.c ****     BMI088_read_write_byte(reg);
 282              		.loc 1 286 1 is_stmt 0 view .LVU87
 283 0000 10B5     		push	{r4, lr}
 284              	.LCFI2:
 285              		.cfi_def_cfa_offset 8
 286              		.cfi_offset 4, -8
 287              		.cfi_offset 14, -4
 288 0002 0C46     		mov	r4, r1
 287:Bsp/BMI088/BMI088driver.c ****     BMI088_read_write_byte(data);
 289              		.loc 1 287 5 is_stmt 1 view .LVU88
 290 0004 FFF7FEFF 		bl	BMI088_read_write_byte
 291              	.LVL18:
 288:Bsp/BMI088/BMI088driver.c **** }
 292              		.loc 1 288 5 view .LVU89
 293 0008 2046     		mov	r0, r4
ARM GAS  C:\Users\LENOVO\AppData\Local\Temp\ccgQYW6n.s 			page 13


 294 000a FFF7FEFF 		bl	BMI088_read_write_byte
 295              	.LVL19:
 289:Bsp/BMI088/BMI088driver.c **** 
 296              		.loc 1 289 1 is_stmt 0 view .LVU90
 297 000e 10BD     		pop	{r4, pc}
 289:Bsp/BMI088/BMI088driver.c **** 
 298              		.loc 1 289 1 view .LVU91
 299              		.cfi_endproc
 300              	.LFE136:
 302              		.section	.text.BMI088_read_single_reg,"ax",%progbits
 303              		.align	1
 304              		.syntax unified
 305              		.thumb
 306              		.thumb_func
 308              	BMI088_read_single_reg:
 309              	.LVL20:
 310              	.LFB137:
 292:Bsp/BMI088/BMI088driver.c ****     BMI088_read_write_byte(reg | 0x80);
 311              		.loc 1 292 1 is_stmt 1 view -0
 312              		.cfi_startproc
 313              		@ args = 0, pretend = 0, frame = 0
 314              		@ frame_needed = 0, uses_anonymous_args = 0
 292:Bsp/BMI088/BMI088driver.c ****     BMI088_read_write_byte(reg | 0x80);
 315              		.loc 1 292 1 is_stmt 0 view .LVU93
 316 0000 10B5     		push	{r4, lr}
 317              	.LCFI3:
 318              		.cfi_def_cfa_offset 8
 319              		.cfi_offset 4, -8
 320              		.cfi_offset 14, -4
 321 0002 0C46     		mov	r4, r1
 293:Bsp/BMI088/BMI088driver.c ****     *return_data = BMI088_read_write_byte(0x55);
 322              		.loc 1 293 5 is_stmt 1 view .LVU94
 323 0004 40F08000 		orr	r0, r0, #128
 324              	.LVL21:
 293:Bsp/BMI088/BMI088driver.c ****     *return_data = BMI088_read_write_byte(0x55);
 325              		.loc 1 293 5 is_stmt 0 view .LVU95
 326 0008 FFF7FEFF 		bl	BMI088_read_write_byte
 327              	.LVL22:
 294:Bsp/BMI088/BMI088driver.c **** }
 328              		.loc 1 294 5 is_stmt 1 view .LVU96
 294:Bsp/BMI088/BMI088driver.c **** }
 329              		.loc 1 294 20 is_stmt 0 view .LVU97
 330 000c 5520     		movs	r0, #85
 331 000e FFF7FEFF 		bl	BMI088_read_write_byte
 332              	.LVL23:
 294:Bsp/BMI088/BMI088driver.c **** }
 333              		.loc 1 294 18 discriminator 1 view .LVU98
 334 0012 2070     		strb	r0, [r4]
 295:Bsp/BMI088/BMI088driver.c **** 
 335              		.loc 1 295 1 view .LVU99
 336 0014 10BD     		pop	{r4, pc}
 295:Bsp/BMI088/BMI088driver.c **** 
 337              		.loc 1 295 1 view .LVU100
 338              		.cfi_endproc
 339              	.LFE137:
 341              		.section	.text.bmi088_accel_init,"ax",%progbits
 342              		.align	1
ARM GAS  C:\Users\LENOVO\AppData\Local\Temp\ccgQYW6n.s 			page 14


 343              		.global	bmi088_accel_init
 344              		.syntax unified
 345              		.thumb
 346              		.thumb_func
 348              	bmi088_accel_init:
 349              	.LFB133:
 148:Bsp/BMI088/BMI088driver.c ****     //check commiunication
 350              		.loc 1 148 1 is_stmt 1 view -0
 351              		.cfi_startproc
 352              		@ args = 0, pretend = 0, frame = 0
 353              		@ frame_needed = 0, uses_anonymous_args = 0
 354 0000 70B5     		push	{r4, r5, r6, lr}
 355              	.LCFI4:
 356              		.cfi_def_cfa_offset 16
 357              		.cfi_offset 4, -16
 358              		.cfi_offset 5, -12
 359              		.cfi_offset 6, -8
 360              		.cfi_offset 14, -4
 150:Bsp/BMI088/BMI088driver.c ****     HAL_Delay(1);
 361              		.loc 1 150 5 view .LVU102
 362 0002 FFF7FEFF 		bl	BMI088_ACCEL_NS_L
 363              	.LVL24:
 150:Bsp/BMI088/BMI088driver.c ****     HAL_Delay(1);
 364              		.loc 1 150 5 discriminator 1 view .LVU103
 365 0006 8020     		movs	r0, #128
 366 0008 FFF7FEFF 		bl	BMI088_read_write_byte
 367              	.LVL25:
 150:Bsp/BMI088/BMI088driver.c ****     HAL_Delay(1);
 368              		.loc 1 150 5 discriminator 2 view .LVU104
 369 000c 5520     		movs	r0, #85
 370 000e FFF7FEFF 		bl	BMI088_read_write_byte
 371              	.LVL26:
 150:Bsp/BMI088/BMI088driver.c ****     HAL_Delay(1);
 372              		.loc 1 150 5 discriminator 3 view .LVU105
 373 0012 5520     		movs	r0, #85
 374 0014 FFF7FEFF 		bl	BMI088_read_write_byte
 375              	.LVL27:
 150:Bsp/BMI088/BMI088driver.c ****     HAL_Delay(1);
 376              		.loc 1 150 5 is_stmt 0 discriminator 4 view .LVU106
 377 0018 464C     		ldr	r4, .L25
 378 001a 2070     		strb	r0, [r4]
 150:Bsp/BMI088/BMI088driver.c ****     HAL_Delay(1);
 379              		.loc 1 150 5 is_stmt 1 discriminator 4 view .LVU107
 380 001c FFF7FEFF 		bl	BMI088_ACCEL_NS_H
 381              	.LVL28:
 150:Bsp/BMI088/BMI088driver.c ****     HAL_Delay(1);
 382              		.loc 1 150 58 discriminator 5 view .LVU108
 151:Bsp/BMI088/BMI088driver.c ****     BMI088_accel_read_single_reg(BMI088_ACC_CHIP_ID, res);
 383              		.loc 1 151 5 view .LVU109
 384 0020 0120     		movs	r0, #1
 385 0022 FFF7FEFF 		bl	HAL_Delay
 386              	.LVL29:
 152:Bsp/BMI088/BMI088driver.c ****     HAL_Delay(1);
 387              		.loc 1 152 5 view .LVU110
 388 0026 FFF7FEFF 		bl	BMI088_ACCEL_NS_L
 389              	.LVL30:
 152:Bsp/BMI088/BMI088driver.c ****     HAL_Delay(1);
ARM GAS  C:\Users\LENOVO\AppData\Local\Temp\ccgQYW6n.s 			page 15


 390              		.loc 1 152 5 discriminator 1 view .LVU111
 391 002a 8020     		movs	r0, #128
 392 002c FFF7FEFF 		bl	BMI088_read_write_byte
 393              	.LVL31:
 152:Bsp/BMI088/BMI088driver.c ****     HAL_Delay(1);
 394              		.loc 1 152 5 discriminator 2 view .LVU112
 395 0030 5520     		movs	r0, #85
 396 0032 FFF7FEFF 		bl	BMI088_read_write_byte
 397              	.LVL32:
 152:Bsp/BMI088/BMI088driver.c ****     HAL_Delay(1);
 398              		.loc 1 152 5 discriminator 3 view .LVU113
 399 0036 5520     		movs	r0, #85
 400 0038 FFF7FEFF 		bl	BMI088_read_write_byte
 401              	.LVL33:
 152:Bsp/BMI088/BMI088driver.c ****     HAL_Delay(1);
 402              		.loc 1 152 5 is_stmt 0 discriminator 4 view .LVU114
 403 003c 2070     		strb	r0, [r4]
 152:Bsp/BMI088/BMI088driver.c ****     HAL_Delay(1);
 404              		.loc 1 152 5 is_stmt 1 discriminator 4 view .LVU115
 405 003e FFF7FEFF 		bl	BMI088_ACCEL_NS_H
 406              	.LVL34:
 152:Bsp/BMI088/BMI088driver.c ****     HAL_Delay(1);
 407              		.loc 1 152 58 discriminator 5 view .LVU116
 153:Bsp/BMI088/BMI088driver.c **** 
 408              		.loc 1 153 5 view .LVU117
 409 0042 0120     		movs	r0, #1
 410 0044 FFF7FEFF 		bl	HAL_Delay
 411              	.LVL35:
 156:Bsp/BMI088/BMI088driver.c ****     HAL_Delay(BMI088_LONG_DELAY_TIME);
 412              		.loc 1 156 5 view .LVU118
 413 0048 FFF7FEFF 		bl	BMI088_ACCEL_NS_L
 414              	.LVL36:
 156:Bsp/BMI088/BMI088driver.c ****     HAL_Delay(BMI088_LONG_DELAY_TIME);
 415              		.loc 1 156 5 discriminator 1 view .LVU119
 416 004c B621     		movs	r1, #182
 417 004e 7E20     		movs	r0, #126
 418 0050 FFF7FEFF 		bl	BMI088_write_single_reg
 419              	.LVL37:
 156:Bsp/BMI088/BMI088driver.c ****     HAL_Delay(BMI088_LONG_DELAY_TIME);
 420              		.loc 1 156 5 discriminator 2 view .LVU120
 421 0054 FFF7FEFF 		bl	BMI088_ACCEL_NS_H
 422              	.LVL38:
 156:Bsp/BMI088/BMI088driver.c ****     HAL_Delay(BMI088_LONG_DELAY_TIME);
 423              		.loc 1 156 84 discriminator 3 view .LVU121
 157:Bsp/BMI088/BMI088driver.c **** 
 424              		.loc 1 157 5 view .LVU122
 425 0058 5020     		movs	r0, #80
 426 005a FFF7FEFF 		bl	HAL_Delay
 427              	.LVL39:
 160:Bsp/BMI088/BMI088driver.c ****     HAL_Delay(1);
 428              		.loc 1 160 5 view .LVU123
 429 005e FFF7FEFF 		bl	BMI088_ACCEL_NS_L
 430              	.LVL40:
 160:Bsp/BMI088/BMI088driver.c ****     HAL_Delay(1);
 431              		.loc 1 160 5 discriminator 1 view .LVU124
 432 0062 8020     		movs	r0, #128
 433 0064 FFF7FEFF 		bl	BMI088_read_write_byte
ARM GAS  C:\Users\LENOVO\AppData\Local\Temp\ccgQYW6n.s 			page 16


 434              	.LVL41:
 160:Bsp/BMI088/BMI088driver.c ****     HAL_Delay(1);
 435              		.loc 1 160 5 discriminator 2 view .LVU125
 436 0068 5520     		movs	r0, #85
 437 006a FFF7FEFF 		bl	BMI088_read_write_byte
 438              	.LVL42:
 160:Bsp/BMI088/BMI088driver.c ****     HAL_Delay(1);
 439              		.loc 1 160 5 discriminator 3 view .LVU126
 440 006e 5520     		movs	r0, #85
 441 0070 FFF7FEFF 		bl	BMI088_read_write_byte
 442              	.LVL43:
 160:Bsp/BMI088/BMI088driver.c ****     HAL_Delay(1);
 443              		.loc 1 160 5 is_stmt 0 discriminator 4 view .LVU127
 444 0074 2070     		strb	r0, [r4]
 160:Bsp/BMI088/BMI088driver.c ****     HAL_Delay(1);
 445              		.loc 1 160 5 is_stmt 1 discriminator 4 view .LVU128
 446 0076 FFF7FEFF 		bl	BMI088_ACCEL_NS_H
 447              	.LVL44:
 160:Bsp/BMI088/BMI088driver.c ****     HAL_Delay(1);
 448              		.loc 1 160 58 discriminator 5 view .LVU129
 161:Bsp/BMI088/BMI088driver.c ****     BMI088_accel_read_single_reg(BMI088_ACC_CHIP_ID, res);
 449              		.loc 1 161 5 view .LVU130
 450 007a 0120     		movs	r0, #1
 451 007c FFF7FEFF 		bl	HAL_Delay
 452              	.LVL45:
 162:Bsp/BMI088/BMI088driver.c ****     HAL_Delay(1);
 453              		.loc 1 162 5 view .LVU131
 454 0080 FFF7FEFF 		bl	BMI088_ACCEL_NS_L
 455              	.LVL46:
 162:Bsp/BMI088/BMI088driver.c ****     HAL_Delay(1);
 456              		.loc 1 162 5 discriminator 1 view .LVU132
 457 0084 8020     		movs	r0, #128
 458 0086 FFF7FEFF 		bl	BMI088_read_write_byte
 459              	.LVL47:
 162:Bsp/BMI088/BMI088driver.c ****     HAL_Delay(1);
 460              		.loc 1 162 5 discriminator 2 view .LVU133
 461 008a 5520     		movs	r0, #85
 462 008c FFF7FEFF 		bl	BMI088_read_write_byte
 463              	.LVL48:
 162:Bsp/BMI088/BMI088driver.c ****     HAL_Delay(1);
 464              		.loc 1 162 5 discriminator 3 view .LVU134
 465 0090 5520     		movs	r0, #85
 466 0092 FFF7FEFF 		bl	BMI088_read_write_byte
 467              	.LVL49:
 162:Bsp/BMI088/BMI088driver.c ****     HAL_Delay(1);
 468              		.loc 1 162 5 is_stmt 0 discriminator 4 view .LVU135
 469 0096 2070     		strb	r0, [r4]
 162:Bsp/BMI088/BMI088driver.c ****     HAL_Delay(1);
 470              		.loc 1 162 5 is_stmt 1 discriminator 4 view .LVU136
 471 0098 FFF7FEFF 		bl	BMI088_ACCEL_NS_H
 472              	.LVL50:
 162:Bsp/BMI088/BMI088driver.c ****     HAL_Delay(1);
 473              		.loc 1 162 58 discriminator 5 view .LVU137
 163:Bsp/BMI088/BMI088driver.c **** 
 474              		.loc 1 163 5 view .LVU138
 475 009c 0120     		movs	r0, #1
 476 009e FFF7FEFF 		bl	HAL_Delay
ARM GAS  C:\Users\LENOVO\AppData\Local\Temp\ccgQYW6n.s 			page 17


 477              	.LVL51:
 166:Bsp/BMI088/BMI088driver.c ****         return BMI088_NO_SENSOR;
 478              		.loc 1 166 5 view .LVU139
 166:Bsp/BMI088/BMI088driver.c ****         return BMI088_NO_SENSOR;
 479              		.loc 1 166 13 is_stmt 0 view .LVU140
 480 00a2 2378     		ldrb	r3, [r4]	@ zero_extendqisi2
 166:Bsp/BMI088/BMI088driver.c ****         return BMI088_NO_SENSOR;
 481              		.loc 1 166 8 view .LVU141
 482 00a4 1E2B     		cmp	r3, #30
 483 00a6 42D1     		bne	.L22
 174:Bsp/BMI088/BMI088driver.c ****     {
 484              		.loc 1 174 5 is_stmt 1 view .LVU142
 174:Bsp/BMI088/BMI088driver.c ****     {
 485              		.loc 1 174 24 is_stmt 0 view .LVU143
 486 00a8 234B     		ldr	r3, .L25+4
 487 00aa 0022     		movs	r2, #0
 488 00ac 1A70     		strb	r2, [r3]
 174:Bsp/BMI088/BMI088driver.c ****     {
 489              		.loc 1 174 5 view .LVU144
 490 00ae 02E0     		b	.L19
 491              	.L20:
 174:Bsp/BMI088/BMI088driver.c ****     {
 492              		.loc 1 174 86 is_stmt 1 discriminator 2 view .LVU145
 493 00b0 0133     		adds	r3, r3, #1
 494 00b2 214A     		ldr	r2, .L25+4
 495 00b4 1370     		strb	r3, [r2]
 496              	.L19:
 174:Bsp/BMI088/BMI088driver.c ****     {
 497              		.loc 1 174 43 discriminator 1 view .LVU146
 498 00b6 204B     		ldr	r3, .L25+4
 499 00b8 1B78     		ldrb	r3, [r3]	@ zero_extendqisi2
 500 00ba 052B     		cmp	r3, #5
 501 00bc 35D8     		bhi	.L24
 177:Bsp/BMI088/BMI088driver.c ****         HAL_Delay(1);
 502              		.loc 1 177 9 view .LVU147
 503 00be FFF7FEFF 		bl	BMI088_ACCEL_NS_L
 504              	.LVL52:
 177:Bsp/BMI088/BMI088driver.c ****         HAL_Delay(1);
 505              		.loc 1 177 9 discriminator 1 view .LVU148
 506 00c2 1D4D     		ldr	r5, .L25+4
 507 00c4 2B78     		ldrb	r3, [r5]	@ zero_extendqisi2
 508 00c6 1D4C     		ldr	r4, .L25+8
 509 00c8 03EB4303 		add	r3, r3, r3, lsl #1
 510 00cc E218     		adds	r2, r4, r3
 511 00ce 5178     		ldrb	r1, [r2, #1]	@ zero_extendqisi2
 512 00d0 E05C     		ldrb	r0, [r4, r3]	@ zero_extendqisi2
 513 00d2 FFF7FEFF 		bl	BMI088_write_single_reg
 514              	.LVL53:
 177:Bsp/BMI088/BMI088driver.c ****         HAL_Delay(1);
 515              		.loc 1 177 9 discriminator 2 view .LVU149
 516 00d6 FFF7FEFF 		bl	BMI088_ACCEL_NS_H
 517              	.LVL54:
 177:Bsp/BMI088/BMI088driver.c ****         HAL_Delay(1);
 518              		.loc 1 177 144 discriminator 3 view .LVU150
 178:Bsp/BMI088/BMI088driver.c **** 
 519              		.loc 1 178 9 view .LVU151
 520 00da 0120     		movs	r0, #1
ARM GAS  C:\Users\LENOVO\AppData\Local\Temp\ccgQYW6n.s 			page 18


 521 00dc FFF7FEFF 		bl	HAL_Delay
 522              	.LVL55:
 180:Bsp/BMI088/BMI088driver.c ****         HAL_Delay(1);
 523              		.loc 1 180 9 view .LVU152
 524 00e0 FFF7FEFF 		bl	BMI088_ACCEL_NS_L
 525              	.LVL56:
 180:Bsp/BMI088/BMI088driver.c ****         HAL_Delay(1);
 526              		.loc 1 180 9 discriminator 1 view .LVU153
 527 00e4 2B78     		ldrb	r3, [r5]	@ zero_extendqisi2
 528 00e6 03EB4303 		add	r3, r3, r3, lsl #1
 529 00ea E05C     		ldrb	r0, [r4, r3]	@ zero_extendqisi2
 530 00ec 40F08000 		orr	r0, r0, #128
 531 00f0 FFF7FEFF 		bl	BMI088_read_write_byte
 532              	.LVL57:
 180:Bsp/BMI088/BMI088driver.c ****         HAL_Delay(1);
 533              		.loc 1 180 9 discriminator 2 view .LVU154
 534 00f4 5520     		movs	r0, #85
 535 00f6 FFF7FEFF 		bl	BMI088_read_write_byte
 536              	.LVL58:
 180:Bsp/BMI088/BMI088driver.c ****         HAL_Delay(1);
 537              		.loc 1 180 9 discriminator 3 view .LVU155
 538 00fa 5520     		movs	r0, #85
 539 00fc FFF7FEFF 		bl	BMI088_read_write_byte
 540              	.LVL59:
 180:Bsp/BMI088/BMI088driver.c ****         HAL_Delay(1);
 541              		.loc 1 180 9 is_stmt 0 discriminator 4 view .LVU156
 542 0100 0C4E     		ldr	r6, .L25
 543 0102 3070     		strb	r0, [r6]
 180:Bsp/BMI088/BMI088driver.c ****         HAL_Delay(1);
 544              		.loc 1 180 9 is_stmt 1 discriminator 4 view .LVU157
 545 0104 FFF7FEFF 		bl	BMI088_ACCEL_NS_H
 546              	.LVL60:
 180:Bsp/BMI088/BMI088driver.c ****         HAL_Delay(1);
 547              		.loc 1 180 95 discriminator 5 view .LVU158
 181:Bsp/BMI088/BMI088driver.c **** 
 548              		.loc 1 181 9 view .LVU159
 549 0108 0120     		movs	r0, #1
 550 010a FFF7FEFF 		bl	HAL_Delay
 551              	.LVL61:
 183:Bsp/BMI088/BMI088driver.c ****         {
 552              		.loc 1 183 9 view .LVU160
 183:Bsp/BMI088/BMI088driver.c ****         {
 553              		.loc 1 183 68 is_stmt 0 view .LVU161
 554 010e 2B78     		ldrb	r3, [r5]	@ zero_extendqisi2
 555 0110 03EB4302 		add	r2, r3, r3, lsl #1
 556 0114 1444     		add	r4, r4, r2
 557 0116 6178     		ldrb	r1, [r4, #1]	@ zero_extendqisi2
 183:Bsp/BMI088/BMI088driver.c ****         {
 558              		.loc 1 183 17 view .LVU162
 559 0118 3278     		ldrb	r2, [r6]	@ zero_extendqisi2
 183:Bsp/BMI088/BMI088driver.c ****         {
 560              		.loc 1 183 12 view .LVU163
 561 011a 9142     		cmp	r1, r2
 562 011c C8D0     		beq	.L20
 187:Bsp/BMI088/BMI088driver.c ****         }
 563              		.loc 1 187 13 is_stmt 1 view .LVU164
 187:Bsp/BMI088/BMI088driver.c ****         }
ARM GAS  C:\Users\LENOVO\AppData\Local\Temp\ccgQYW6n.s 			page 19


 564              		.loc 1 187 70 is_stmt 0 view .LVU165
 565 011e A278     		ldrb	r2, [r4, #2]	@ zero_extendqisi2
 187:Bsp/BMI088/BMI088driver.c ****         }
 566              		.loc 1 187 19 view .LVU166
 567 0120 0749     		ldr	r1, .L25+12
 568 0122 0878     		ldrb	r0, [r1]	@ zero_extendqisi2
 569 0124 0243     		orrs	r2, r2, r0
 570 0126 0A70     		strb	r2, [r1]
 571 0128 C2E7     		b	.L20
 572              	.L24:
 190:Bsp/BMI088/BMI088driver.c **** }
 573              		.loc 1 190 12 view .LVU167
 574 012a 0020     		movs	r0, #0
 575              	.L18:
 191:Bsp/BMI088/BMI088driver.c **** 
 576              		.loc 1 191 1 view .LVU168
 577 012c 70BD     		pop	{r4, r5, r6, pc}
 578              	.L22:
 167:Bsp/BMI088/BMI088driver.c ****     // do
 579              		.loc 1 167 16 view .LVU169
 580 012e FF20     		movs	r0, #255
 581 0130 FCE7     		b	.L18
 582              	.L26:
 583 0132 00BF     		.align	2
 584              	.L25:
 585 0134 00000000 		.word	res
 586 0138 00000000 		.word	write_reg_num
 587 013c 00000000 		.word	write_BMI088_accel_reg_data_error
 588 0140 00000000 		.word	error
 589              		.cfi_endproc
 590              	.LFE133:
 592              		.section	.text.bmi088_gyro_init,"ax",%progbits
 593              		.align	1
 594              		.global	bmi088_gyro_init
 595              		.syntax unified
 596              		.thumb
 597              		.thumb_func
 599              	bmi088_gyro_init:
 600              	.LFB134:
 194:Bsp/BMI088/BMI088driver.c ****     //check commiunication
 601              		.loc 1 194 1 is_stmt 1 view -0
 602              		.cfi_startproc
 603              		@ args = 0, pretend = 0, frame = 0
 604              		@ frame_needed = 0, uses_anonymous_args = 0
 605 0000 70B5     		push	{r4, r5, r6, lr}
 606              	.LCFI5:
 607              		.cfi_def_cfa_offset 16
 608              		.cfi_offset 4, -16
 609              		.cfi_offset 5, -12
 610              		.cfi_offset 6, -8
 611              		.cfi_offset 14, -4
 196:Bsp/BMI088/BMI088driver.c ****     HAL_Delay(1);
 612              		.loc 1 196 5 view .LVU171
 613 0002 FFF7FEFF 		bl	BMI088_GYRO_NS_L
 614              	.LVL62:
 196:Bsp/BMI088/BMI088driver.c ****     HAL_Delay(1);
 615              		.loc 1 196 5 discriminator 1 view .LVU172
ARM GAS  C:\Users\LENOVO\AppData\Local\Temp\ccgQYW6n.s 			page 20


 616 0006 3F4C     		ldr	r4, .L35
 617 0008 2146     		mov	r1, r4
 618 000a 0020     		movs	r0, #0
 619 000c FFF7FEFF 		bl	BMI088_read_single_reg
 620              	.LVL63:
 196:Bsp/BMI088/BMI088driver.c ****     HAL_Delay(1);
 621              		.loc 1 196 5 discriminator 2 view .LVU173
 622 0010 FFF7FEFF 		bl	BMI088_GYRO_NS_H
 623              	.LVL64:
 196:Bsp/BMI088/BMI088driver.c ****     HAL_Delay(1);
 624              		.loc 1 196 58 discriminator 3 view .LVU174
 197:Bsp/BMI088/BMI088driver.c ****     BMI088_gyro_read_single_reg(BMI088_GYRO_CHIP_ID, res);
 625              		.loc 1 197 5 view .LVU175
 626 0014 0120     		movs	r0, #1
 627 0016 FFF7FEFF 		bl	HAL_Delay
 628              	.LVL65:
 198:Bsp/BMI088/BMI088driver.c ****     HAL_Delay(1);
 629              		.loc 1 198 5 view .LVU176
 630 001a FFF7FEFF 		bl	BMI088_GYRO_NS_L
 631              	.LVL66:
 198:Bsp/BMI088/BMI088driver.c ****     HAL_Delay(1);
 632              		.loc 1 198 5 discriminator 1 view .LVU177
 633 001e 2146     		mov	r1, r4
 634 0020 0020     		movs	r0, #0
 635 0022 FFF7FEFF 		bl	BMI088_read_single_reg
 636              	.LVL67:
 198:Bsp/BMI088/BMI088driver.c ****     HAL_Delay(1);
 637              		.loc 1 198 5 discriminator 2 view .LVU178
 638 0026 FFF7FEFF 		bl	BMI088_GYRO_NS_H
 639              	.LVL68:
 198:Bsp/BMI088/BMI088driver.c ****     HAL_Delay(1);
 640              		.loc 1 198 58 discriminator 3 view .LVU179
 199:Bsp/BMI088/BMI088driver.c **** 
 641              		.loc 1 199 5 view .LVU180
 642 002a 0120     		movs	r0, #1
 643 002c FFF7FEFF 		bl	HAL_Delay
 644              	.LVL69:
 202:Bsp/BMI088/BMI088driver.c ****     HAL_Delay(BMI088_LONG_DELAY_TIME);
 645              		.loc 1 202 5 view .LVU181
 646 0030 FFF7FEFF 		bl	BMI088_GYRO_NS_L
 647              	.LVL70:
 202:Bsp/BMI088/BMI088driver.c ****     HAL_Delay(BMI088_LONG_DELAY_TIME);
 648              		.loc 1 202 5 discriminator 1 view .LVU182
 649 0034 B621     		movs	r1, #182
 650 0036 1420     		movs	r0, #20
 651 0038 FFF7FEFF 		bl	BMI088_write_single_reg
 652              	.LVL71:
 202:Bsp/BMI088/BMI088driver.c ****     HAL_Delay(BMI088_LONG_DELAY_TIME);
 653              		.loc 1 202 5 discriminator 2 view .LVU183
 654 003c FFF7FEFF 		bl	BMI088_GYRO_NS_H
 655              	.LVL72:
 202:Bsp/BMI088/BMI088driver.c ****     HAL_Delay(BMI088_LONG_DELAY_TIME);
 656              		.loc 1 202 85 discriminator 3 view .LVU184
 203:Bsp/BMI088/BMI088driver.c ****     //check commiunication is normal after reset
 657              		.loc 1 203 5 view .LVU185
 658 0040 5020     		movs	r0, #80
 659 0042 FFF7FEFF 		bl	HAL_Delay
ARM GAS  C:\Users\LENOVO\AppData\Local\Temp\ccgQYW6n.s 			page 21


 660              	.LVL73:
 205:Bsp/BMI088/BMI088driver.c ****     HAL_Delay(1);
 661              		.loc 1 205 5 view .LVU186
 662 0046 FFF7FEFF 		bl	BMI088_GYRO_NS_L
 663              	.LVL74:
 205:Bsp/BMI088/BMI088driver.c ****     HAL_Delay(1);
 664              		.loc 1 205 5 discriminator 1 view .LVU187
 665 004a 2146     		mov	r1, r4
 666 004c 0020     		movs	r0, #0
 667 004e FFF7FEFF 		bl	BMI088_read_single_reg
 668              	.LVL75:
 205:Bsp/BMI088/BMI088driver.c ****     HAL_Delay(1);
 669              		.loc 1 205 5 discriminator 2 view .LVU188
 670 0052 FFF7FEFF 		bl	BMI088_GYRO_NS_H
 671              	.LVL76:
 205:Bsp/BMI088/BMI088driver.c ****     HAL_Delay(1);
 672              		.loc 1 205 58 discriminator 3 view .LVU189
 206:Bsp/BMI088/BMI088driver.c ****     BMI088_gyro_read_single_reg(BMI088_GYRO_CHIP_ID, res);
 673              		.loc 1 206 5 view .LVU190
 674 0056 0120     		movs	r0, #1
 675 0058 FFF7FEFF 		bl	HAL_Delay
 676              	.LVL77:
 207:Bsp/BMI088/BMI088driver.c ****     HAL_Delay(1);
 677              		.loc 1 207 5 view .LVU191
 678 005c FFF7FEFF 		bl	BMI088_GYRO_NS_L
 679              	.LVL78:
 207:Bsp/BMI088/BMI088driver.c ****     HAL_Delay(1);
 680              		.loc 1 207 5 discriminator 1 view .LVU192
 681 0060 2146     		mov	r1, r4
 682 0062 0020     		movs	r0, #0
 683 0064 FFF7FEFF 		bl	BMI088_read_single_reg
 684              	.LVL79:
 207:Bsp/BMI088/BMI088driver.c ****     HAL_Delay(1);
 685              		.loc 1 207 5 discriminator 2 view .LVU193
 686 0068 FFF7FEFF 		bl	BMI088_GYRO_NS_H
 687              	.LVL80:
 207:Bsp/BMI088/BMI088driver.c ****     HAL_Delay(1);
 688              		.loc 1 207 58 discriminator 3 view .LVU194
 208:Bsp/BMI088/BMI088driver.c **** 
 689              		.loc 1 208 5 view .LVU195
 690 006c 0120     		movs	r0, #1
 691 006e FFF7FEFF 		bl	HAL_Delay
 692              	.LVL81:
 211:Bsp/BMI088/BMI088driver.c ****         return BMI088_NO_SENSOR;
 693              		.loc 1 211 5 view .LVU196
 211:Bsp/BMI088/BMI088driver.c ****         return BMI088_NO_SENSOR;
 694              		.loc 1 211 13 is_stmt 0 view .LVU197
 695 0072 2378     		ldrb	r3, [r4]	@ zero_extendqisi2
 211:Bsp/BMI088/BMI088driver.c ****         return BMI088_NO_SENSOR;
 696              		.loc 1 211 8 view .LVU198
 697 0074 0F2B     		cmp	r3, #15
 698 0076 42D1     		bne	.L32
 215:Bsp/BMI088/BMI088driver.c ****     {
 699              		.loc 1 215 5 is_stmt 1 view .LVU199
 215:Bsp/BMI088/BMI088driver.c ****     {
 700              		.loc 1 215 24 is_stmt 0 view .LVU200
 701 0078 234B     		ldr	r3, .L35+4
ARM GAS  C:\Users\LENOVO\AppData\Local\Temp\ccgQYW6n.s 			page 22


 702 007a 0022     		movs	r2, #0
 703 007c 1A70     		strb	r2, [r3]
 215:Bsp/BMI088/BMI088driver.c ****     {
 704              		.loc 1 215 5 view .LVU201
 705 007e 03E0     		b	.L29
 706              	.L30:
 215:Bsp/BMI088/BMI088driver.c ****     {
 707              		.loc 1 215 85 is_stmt 1 discriminator 2 view .LVU202
 708 0080 214A     		ldr	r2, .L35+4
 709 0082 1378     		ldrb	r3, [r2]	@ zero_extendqisi2
 710 0084 0133     		adds	r3, r3, #1
 711 0086 1370     		strb	r3, [r2]
 712              	.L29:
 215:Bsp/BMI088/BMI088driver.c ****     {
 713              		.loc 1 215 43 discriminator 1 view .LVU203
 714 0088 1F4B     		ldr	r3, .L35+4
 715 008a 1B78     		ldrb	r3, [r3]	@ zero_extendqisi2
 716 008c 052B     		cmp	r3, #5
 717 008e 34D8     		bhi	.L34
 218:Bsp/BMI088/BMI088driver.c ****         HAL_Delay(1);
 718              		.loc 1 218 9 view .LVU204
 719 0090 FFF7FEFF 		bl	BMI088_GYRO_NS_L
 720              	.LVL82:
 218:Bsp/BMI088/BMI088driver.c ****         HAL_Delay(1);
 721              		.loc 1 218 9 discriminator 1 view .LVU205
 722 0094 1C4D     		ldr	r5, .L35+4
 723 0096 2B78     		ldrb	r3, [r5]	@ zero_extendqisi2
 724 0098 1C4C     		ldr	r4, .L35+8
 725 009a 03EB4303 		add	r3, r3, r3, lsl #1
 726 009e E218     		adds	r2, r4, r3
 727 00a0 5178     		ldrb	r1, [r2, #1]	@ zero_extendqisi2
 728 00a2 E05C     		ldrb	r0, [r4, r3]	@ zero_extendqisi2
 729 00a4 FFF7FEFF 		bl	BMI088_write_single_reg
 730              	.LVL83:
 218:Bsp/BMI088/BMI088driver.c ****         HAL_Delay(1);
 731              		.loc 1 218 9 discriminator 2 view .LVU206
 732 00a8 FFF7FEFF 		bl	BMI088_GYRO_NS_H
 733              	.LVL84:
 218:Bsp/BMI088/BMI088driver.c ****         HAL_Delay(1);
 734              		.loc 1 218 141 discriminator 3 view .LVU207
 219:Bsp/BMI088/BMI088driver.c **** 
 735              		.loc 1 219 9 view .LVU208
 736 00ac 0120     		movs	r0, #1
 737 00ae FFF7FEFF 		bl	HAL_Delay
 738              	.LVL85:
 221:Bsp/BMI088/BMI088driver.c ****         HAL_Delay(1);
 739              		.loc 1 221 9 view .LVU209
 740 00b2 FFF7FEFF 		bl	BMI088_GYRO_NS_L
 741              	.LVL86:
 221:Bsp/BMI088/BMI088driver.c ****         HAL_Delay(1);
 742              		.loc 1 221 9 discriminator 1 view .LVU210
 743 00b6 134E     		ldr	r6, .L35
 744 00b8 2B78     		ldrb	r3, [r5]	@ zero_extendqisi2
 745 00ba 03EB4303 		add	r3, r3, r3, lsl #1
 746 00be 3146     		mov	r1, r6
 747 00c0 E05C     		ldrb	r0, [r4, r3]	@ zero_extendqisi2
 748 00c2 FFF7FEFF 		bl	BMI088_read_single_reg
ARM GAS  C:\Users\LENOVO\AppData\Local\Temp\ccgQYW6n.s 			page 23


 749              	.LVL87:
 221:Bsp/BMI088/BMI088driver.c ****         HAL_Delay(1);
 750              		.loc 1 221 9 discriminator 2 view .LVU211
 751 00c6 FFF7FEFF 		bl	BMI088_GYRO_NS_H
 752              	.LVL88:
 221:Bsp/BMI088/BMI088driver.c ****         HAL_Delay(1);
 753              		.loc 1 221 93 discriminator 3 view .LVU212
 222:Bsp/BMI088/BMI088driver.c **** 
 754              		.loc 1 222 9 view .LVU213
 755 00ca 0120     		movs	r0, #1
 756 00cc FFF7FEFF 		bl	HAL_Delay
 757              	.LVL89:
 224:Bsp/BMI088/BMI088driver.c ****         {
 758              		.loc 1 224 9 view .LVU214
 224:Bsp/BMI088/BMI088driver.c ****         {
 759              		.loc 1 224 67 is_stmt 0 view .LVU215
 760 00d0 2B78     		ldrb	r3, [r5]	@ zero_extendqisi2
 761 00d2 03EB4302 		add	r2, r3, r3, lsl #1
 762 00d6 1444     		add	r4, r4, r2
 763 00d8 6178     		ldrb	r1, [r4, #1]	@ zero_extendqisi2
 224:Bsp/BMI088/BMI088driver.c ****         {
 764              		.loc 1 224 17 view .LVU216
 765 00da 3278     		ldrb	r2, [r6]	@ zero_extendqisi2
 224:Bsp/BMI088/BMI088driver.c ****         {
 766              		.loc 1 224 12 view .LVU217
 767 00dc 9142     		cmp	r1, r2
 768 00de CFD0     		beq	.L30
 226:Bsp/BMI088/BMI088driver.c ****             //return write_BMI088_gyro_reg_data_error[write_reg_num][2];
 769              		.loc 1 226 13 is_stmt 1 view .LVU218
 226:Bsp/BMI088/BMI088driver.c ****             //return write_BMI088_gyro_reg_data_error[write_reg_num][2];
 770              		.loc 1 226 26 is_stmt 0 view .LVU219
 771 00e0 013B     		subs	r3, r3, #1
 772 00e2 DBB2     		uxtb	r3, r3
 773 00e4 2B70     		strb	r3, [r5]
 228:Bsp/BMI088/BMI088driver.c ****         }
 774              		.loc 1 228 13 is_stmt 1 view .LVU220
 228:Bsp/BMI088/BMI088driver.c ****         }
 775              		.loc 1 228 70 is_stmt 0 view .LVU221
 776 00e6 03EB4303 		add	r3, r3, r3, lsl #1
 777 00ea 094A     		ldr	r2, .L35+12
 778 00ec 1344     		add	r3, r3, r2
 779 00ee 9B78     		ldrb	r3, [r3, #2]	@ zero_extendqisi2
 228:Bsp/BMI088/BMI088driver.c ****         }
 780              		.loc 1 228 19 view .LVU222
 781 00f0 084A     		ldr	r2, .L35+16
 782 00f2 1178     		ldrb	r1, [r2]	@ zero_extendqisi2
 783 00f4 0B43     		orrs	r3, r3, r1
 784 00f6 1370     		strb	r3, [r2]
 785 00f8 C2E7     		b	.L30
 786              	.L34:
 232:Bsp/BMI088/BMI088driver.c **** }
 787              		.loc 1 232 12 view .LVU223
 788 00fa 0020     		movs	r0, #0
 789              	.L28:
 233:Bsp/BMI088/BMI088driver.c **** 
 790              		.loc 1 233 1 view .LVU224
 791 00fc 70BD     		pop	{r4, r5, r6, pc}
ARM GAS  C:\Users\LENOVO\AppData\Local\Temp\ccgQYW6n.s 			page 24


 792              	.L32:
 212:Bsp/BMI088/BMI088driver.c **** 
 793              		.loc 1 212 16 view .LVU225
 794 00fe FF20     		movs	r0, #255
 795 0100 FCE7     		b	.L28
 796              	.L36:
 797 0102 00BF     		.align	2
 798              	.L35:
 799 0104 00000000 		.word	res
 800 0108 00000000 		.word	write_reg_num
 801 010c 00000000 		.word	write_BMI088_gyro_reg_data_error
 802 0110 00000000 		.word	write_BMI088_accel_reg_data_error
 803 0114 00000000 		.word	error
 804              		.cfi_endproc
 805              	.LFE134:
 807              		.section	.text.BMI088_init,"ax",%progbits
 808              		.align	1
 809              		.global	BMI088_init
 810              		.syntax unified
 811              		.thumb
 812              		.thumb_func
 814              	BMI088_init:
 815              	.LVL90:
 816              	.LFB131:
 105:Bsp/BMI088/BMI088driver.c ****     BMI088_SPI = bmi088_SPI;
 817              		.loc 1 105 1 is_stmt 1 view -0
 818              		.cfi_startproc
 819              		@ args = 0, pretend = 0, frame = 0
 820              		@ frame_needed = 0, uses_anonymous_args = 0
 105:Bsp/BMI088/BMI088driver.c ****     BMI088_SPI = bmi088_SPI;
 821              		.loc 1 105 1 is_stmt 0 view .LVU227
 822 0000 10B5     		push	{r4, lr}
 823              	.LCFI6:
 824              		.cfi_def_cfa_offset 8
 825              		.cfi_offset 4, -8
 826              		.cfi_offset 14, -4
 106:Bsp/BMI088/BMI088driver.c ****     error = BMI088_NO_ERROR;
 827              		.loc 1 106 5 is_stmt 1 view .LVU228
 106:Bsp/BMI088/BMI088driver.c ****     error = BMI088_NO_ERROR;
 828              		.loc 1 106 16 is_stmt 0 view .LVU229
 829 0002 0A4B     		ldr	r3, .L39
 830 0004 1860     		str	r0, [r3]
 107:Bsp/BMI088/BMI088driver.c **** 
 831              		.loc 1 107 5 is_stmt 1 view .LVU230
 107:Bsp/BMI088/BMI088driver.c **** 
 832              		.loc 1 107 11 is_stmt 0 view .LVU231
 833 0006 0A4C     		ldr	r4, .L39+4
 834 0008 0023     		movs	r3, #0
 835 000a 2370     		strb	r3, [r4]
 109:Bsp/BMI088/BMI088driver.c ****     error |= bmi088_gyro_init();
 836              		.loc 1 109 5 is_stmt 1 view .LVU232
 109:Bsp/BMI088/BMI088driver.c ****     error |= bmi088_gyro_init();
 837              		.loc 1 109 14 is_stmt 0 view .LVU233
 838 000c FFF7FEFF 		bl	bmi088_accel_init
 839              	.LVL91:
 109:Bsp/BMI088/BMI088driver.c ****     error |= bmi088_gyro_init();
 840              		.loc 1 109 11 discriminator 1 view .LVU234
ARM GAS  C:\Users\LENOVO\AppData\Local\Temp\ccgQYW6n.s 			page 25


 841 0010 2378     		ldrb	r3, [r4]	@ zero_extendqisi2
 842 0012 1843     		orrs	r0, r0, r3
 843 0014 2070     		strb	r0, [r4]
 110:Bsp/BMI088/BMI088driver.c **** 
 844              		.loc 1 110 5 is_stmt 1 view .LVU235
 110:Bsp/BMI088/BMI088driver.c **** 
 845              		.loc 1 110 14 is_stmt 0 view .LVU236
 846 0016 FFF7FEFF 		bl	bmi088_gyro_init
 847              	.LVL92:
 110:Bsp/BMI088/BMI088driver.c **** 
 848              		.loc 1 110 11 discriminator 1 view .LVU237
 849 001a 2378     		ldrb	r3, [r4]	@ zero_extendqisi2
 850 001c 1843     		orrs	r0, r0, r3
 851 001e 2070     		strb	r0, [r4]
 112:Bsp/BMI088/BMI088driver.c **** 
 852              		.loc 1 112 5 is_stmt 1 view .LVU238
 853 0020 0448     		ldr	r0, .L39+8
 854 0022 FFF7FEFF 		bl	Calibrate_MPU_Offset
 855              	.LVL93:
 114:Bsp/BMI088/BMI088driver.c **** }
 856              		.loc 1 114 5 view .LVU239
 115:Bsp/BMI088/BMI088driver.c **** 
 857              		.loc 1 115 1 is_stmt 0 view .LVU240
 858 0026 2078     		ldrb	r0, [r4]	@ zero_extendqisi2
 859 0028 10BD     		pop	{r4, pc}
 860              	.L40:
 861 002a 00BF     		.align	2
 862              	.L39:
 863 002c 00000000 		.word	BMI088_SPI
 864 0030 00000000 		.word	error
 865 0034 00000000 		.word	BMI088
 866              		.cfi_endproc
 867              	.LFE131:
 869              		.section	.text.BMI088_Init,"ax",%progbits
 870              		.align	1
 871              		.global	BMI088_Init
 872              		.syntax unified
 873              		.thumb
 874              		.thumb_func
 876              	BMI088_Init:
 877              	.LVL94:
 878              	.LFB130:
  97:Bsp/BMI088/BMI088driver.c ****     while (BMI088_init(bmi088_SPI))
 879              		.loc 1 97 1 is_stmt 1 view -0
 880              		.cfi_startproc
 881              		@ args = 0, pretend = 0, frame = 0
 882              		@ frame_needed = 0, uses_anonymous_args = 0
  97:Bsp/BMI088/BMI088driver.c ****     while (BMI088_init(bmi088_SPI))
 883              		.loc 1 97 1 is_stmt 0 view .LVU242
 884 0000 10B5     		push	{r4, lr}
 885              	.LCFI7:
 886              		.cfi_def_cfa_offset 8
 887              		.cfi_offset 4, -8
 888              		.cfi_offset 14, -4
 889 0002 0446     		mov	r4, r0
  98:Bsp/BMI088/BMI088driver.c ****     {
 890              		.loc 1 98 5 is_stmt 1 view .LVU243
ARM GAS  C:\Users\LENOVO\AppData\Local\Temp\ccgQYW6n.s 			page 26


 891              	.LVL95:
 892              	.L42:
 100:Bsp/BMI088/BMI088driver.c ****     }
 893              		.loc 1 100 9 view .LVU244
  98:Bsp/BMI088/BMI088driver.c ****     {
 894              		.loc 1 98 12 discriminator 1 view .LVU245
 895 0004 2046     		mov	r0, r4
 896 0006 FFF7FEFF 		bl	BMI088_init
 897              	.LVL96:
 898 000a 0028     		cmp	r0, #0
 899 000c FAD1     		bne	.L42
 102:Bsp/BMI088/BMI088driver.c **** 
 900              		.loc 1 102 1 is_stmt 0 view .LVU246
 901 000e 10BD     		pop	{r4, pc}
 102:Bsp/BMI088/BMI088driver.c **** 
 902              		.loc 1 102 1 view .LVU247
 903              		.cfi_endproc
 904              	.LFE130:
 906              		.section	.text.BMI088_Read,"ax",%progbits
 907              		.align	1
 908              		.global	BMI088_Read
 909              		.syntax unified
 910              		.thumb
 911              		.thumb_func
 913              	BMI088_Read:
 914              	.LVL97:
 915              	.LFB135:
 236:Bsp/BMI088/BMI088driver.c ****     static uint8_t buf[8] = {0, 0, 0, 0, 0, 0};
 916              		.loc 1 236 1 is_stmt 1 view -0
 917              		.cfi_startproc
 918              		@ args = 0, pretend = 0, frame = 0
 919              		@ frame_needed = 0, uses_anonymous_args = 0
 236:Bsp/BMI088/BMI088driver.c ****     static uint8_t buf[8] = {0, 0, 0, 0, 0, 0};
 920              		.loc 1 236 1 is_stmt 0 view .LVU249
 921 0000 38B5     		push	{r3, r4, r5, lr}
 922              	.LCFI8:
 923              		.cfi_def_cfa_offset 16
 924              		.cfi_offset 3, -16
 925              		.cfi_offset 4, -12
 926              		.cfi_offset 5, -8
 927              		.cfi_offset 14, -4
 928 0002 0546     		mov	r5, r0
 237:Bsp/BMI088/BMI088driver.c ****     static int16_t bmi088_raw_temp;
 929              		.loc 1 237 5 is_stmt 1 view .LVU250
 238:Bsp/BMI088/BMI088driver.c **** 
 930              		.loc 1 238 5 view .LVU251
 240:Bsp/BMI088/BMI088driver.c **** 
 931              		.loc 1 240 5 view .LVU252
 932 0004 FFF7FEFF 		bl	BMI088_ACCEL_NS_L
 933              	.LVL98:
 240:Bsp/BMI088/BMI088driver.c **** 
 934              		.loc 1 240 5 discriminator 1 view .LVU253
 935 0008 9220     		movs	r0, #146
 936 000a FFF7FEFF 		bl	BMI088_read_write_byte
 937              	.LVL99:
 240:Bsp/BMI088/BMI088driver.c **** 
 938              		.loc 1 240 5 discriminator 2 view .LVU254
ARM GAS  C:\Users\LENOVO\AppData\Local\Temp\ccgQYW6n.s 			page 27


 939 000e 6F4C     		ldr	r4, .L50
 940 0010 0622     		movs	r2, #6
 941 0012 2146     		mov	r1, r4
 942 0014 1220     		movs	r0, #18
 943 0016 FFF7FEFF 		bl	BMI088_read_muli_reg
 944              	.LVL100:
 240:Bsp/BMI088/BMI088driver.c **** 
 945              		.loc 1 240 5 discriminator 3 view .LVU255
 946 001a FFF7FEFF 		bl	BMI088_ACCEL_NS_H
 947              	.LVL101:
 240:Bsp/BMI088/BMI088driver.c **** 
 948              		.loc 1 240 60 discriminator 4 view .LVU256
 242:Bsp/BMI088/BMI088driver.c ****     bmi088->Accel[0] = bmi088_raw_temp * BMI088_ACCEL_SEN;
 949              		.loc 1 242 5 view .LVU257
 242:Bsp/BMI088/BMI088driver.c ****     bmi088->Accel[0] = bmi088_raw_temp * BMI088_ACCEL_SEN;
 950              		.loc 1 242 37 is_stmt 0 view .LVU258
 951 001e 6378     		ldrb	r3, [r4, #1]	@ zero_extendqisi2
 242:Bsp/BMI088/BMI088driver.c ****     bmi088->Accel[0] = bmi088_raw_temp * BMI088_ACCEL_SEN;
 952              		.loc 1 242 23 view .LVU259
 953 0020 1B02     		lsls	r3, r3, #8
 954 0022 1BB2     		sxth	r3, r3
 242:Bsp/BMI088/BMI088driver.c ****     bmi088->Accel[0] = bmi088_raw_temp * BMI088_ACCEL_SEN;
 955              		.loc 1 242 53 view .LVU260
 956 0024 2278     		ldrb	r2, [r4]	@ zero_extendqisi2
 242:Bsp/BMI088/BMI088driver.c ****     bmi088->Accel[0] = bmi088_raw_temp * BMI088_ACCEL_SEN;
 957              		.loc 1 242 48 view .LVU261
 958 0026 1343     		orrs	r3, r3, r2
 242:Bsp/BMI088/BMI088driver.c ****     bmi088->Accel[0] = bmi088_raw_temp * BMI088_ACCEL_SEN;
 959              		.loc 1 242 21 view .LVU262
 960 0028 694A     		ldr	r2, .L50+4
 961 002a 1380     		strh	r3, [r2]	@ movhi
 243:Bsp/BMI088/BMI088driver.c ****     bmi088_raw_temp = (int16_t)((buf[3]) << 8) | buf[2];
 962              		.loc 1 243 5 is_stmt 1 view .LVU263
 243:Bsp/BMI088/BMI088driver.c ****     bmi088_raw_temp = (int16_t)((buf[3]) << 8) | buf[2];
 963              		.loc 1 243 40 is_stmt 0 view .LVU264
 964 002c 07EE903A 		vmov	s15, r3	@ int
 965 0030 F8EEE77A 		vcvt.f32.s32	s15, s15
 966 0034 6749     		ldr	r1, .L50+8
 967 0036 91ED007A 		vldr.32	s14, [r1]
 968 003a 67EE877A 		vmul.f32	s15, s15, s14
 243:Bsp/BMI088/BMI088driver.c ****     bmi088_raw_temp = (int16_t)((buf[3]) << 8) | buf[2];
 969              		.loc 1 243 22 view .LVU265
 970 003e C5ED007A 		vstr.32	s15, [r5]
 244:Bsp/BMI088/BMI088driver.c ****     bmi088->Accel[1] = bmi088_raw_temp * BMI088_ACCEL_SEN;
 971              		.loc 1 244 5 is_stmt 1 view .LVU266
 244:Bsp/BMI088/BMI088driver.c ****     bmi088->Accel[1] = bmi088_raw_temp * BMI088_ACCEL_SEN;
 972              		.loc 1 244 37 is_stmt 0 view .LVU267
 973 0042 E378     		ldrb	r3, [r4, #3]	@ zero_extendqisi2
 244:Bsp/BMI088/BMI088driver.c ****     bmi088->Accel[1] = bmi088_raw_temp * BMI088_ACCEL_SEN;
 974              		.loc 1 244 23 view .LVU268
 975 0044 1B02     		lsls	r3, r3, #8
 976 0046 1BB2     		sxth	r3, r3
 244:Bsp/BMI088/BMI088driver.c ****     bmi088->Accel[1] = bmi088_raw_temp * BMI088_ACCEL_SEN;
 977              		.loc 1 244 53 view .LVU269
 978 0048 A078     		ldrb	r0, [r4, #2]	@ zero_extendqisi2
 244:Bsp/BMI088/BMI088driver.c ****     bmi088->Accel[1] = bmi088_raw_temp * BMI088_ACCEL_SEN;
 979              		.loc 1 244 48 view .LVU270
ARM GAS  C:\Users\LENOVO\AppData\Local\Temp\ccgQYW6n.s 			page 28


 980 004a 0343     		orrs	r3, r3, r0
 244:Bsp/BMI088/BMI088driver.c ****     bmi088->Accel[1] = bmi088_raw_temp * BMI088_ACCEL_SEN;
 981              		.loc 1 244 21 view .LVU271
 982 004c 1380     		strh	r3, [r2]	@ movhi
 245:Bsp/BMI088/BMI088driver.c ****     bmi088_raw_temp = (int16_t)((buf[5]) << 8) | buf[4];
 983              		.loc 1 245 5 is_stmt 1 view .LVU272
 245:Bsp/BMI088/BMI088driver.c ****     bmi088_raw_temp = (int16_t)((buf[5]) << 8) | buf[4];
 984              		.loc 1 245 40 is_stmt 0 view .LVU273
 985 004e 91ED007A 		vldr.32	s14, [r1]
 986 0052 07EE903A 		vmov	s15, r3	@ int
 987 0056 F8EEE77A 		vcvt.f32.s32	s15, s15
 988 005a 67EE877A 		vmul.f32	s15, s15, s14
 245:Bsp/BMI088/BMI088driver.c ****     bmi088_raw_temp = (int16_t)((buf[5]) << 8) | buf[4];
 989              		.loc 1 245 22 view .LVU274
 990 005e C5ED017A 		vstr.32	s15, [r5, #4]
 246:Bsp/BMI088/BMI088driver.c ****     bmi088->Accel[2] = bmi088_raw_temp * BMI088_ACCEL_SEN;
 991              		.loc 1 246 5 is_stmt 1 view .LVU275
 246:Bsp/BMI088/BMI088driver.c ****     bmi088->Accel[2] = bmi088_raw_temp * BMI088_ACCEL_SEN;
 992              		.loc 1 246 37 is_stmt 0 view .LVU276
 993 0062 6379     		ldrb	r3, [r4, #5]	@ zero_extendqisi2
 246:Bsp/BMI088/BMI088driver.c ****     bmi088->Accel[2] = bmi088_raw_temp * BMI088_ACCEL_SEN;
 994              		.loc 1 246 23 view .LVU277
 995 0064 1B02     		lsls	r3, r3, #8
 996 0066 1BB2     		sxth	r3, r3
 246:Bsp/BMI088/BMI088driver.c ****     bmi088->Accel[2] = bmi088_raw_temp * BMI088_ACCEL_SEN;
 997              		.loc 1 246 53 view .LVU278
 998 0068 2179     		ldrb	r1, [r4, #4]	@ zero_extendqisi2
 246:Bsp/BMI088/BMI088driver.c ****     bmi088->Accel[2] = bmi088_raw_temp * BMI088_ACCEL_SEN;
 999              		.loc 1 246 48 view .LVU279
 1000 006a 0B43     		orrs	r3, r3, r1
 246:Bsp/BMI088/BMI088driver.c ****     bmi088->Accel[2] = bmi088_raw_temp * BMI088_ACCEL_SEN;
 1001              		.loc 1 246 21 view .LVU280
 1002 006c 1380     		strh	r3, [r2]	@ movhi
 247:Bsp/BMI088/BMI088driver.c **** 
 1003              		.loc 1 247 5 is_stmt 1 view .LVU281
 247:Bsp/BMI088/BMI088driver.c **** 
 1004              		.loc 1 247 40 is_stmt 0 view .LVU282
 1005 006e 07EE903A 		vmov	s15, r3	@ int
 1006 0072 F8EEE77A 		vcvt.f32.s32	s15, s15
 1007 0076 67EE877A 		vmul.f32	s15, s15, s14
 247:Bsp/BMI088/BMI088driver.c **** 
 1008              		.loc 1 247 22 view .LVU283
 1009 007a C5ED027A 		vstr.32	s15, [r5, #8]
 249:Bsp/BMI088/BMI088driver.c ****     if (buf[0] == BMI088_GYRO_CHIP_ID_VALUE)
 1010              		.loc 1 249 5 is_stmt 1 view .LVU284
 1011 007e FFF7FEFF 		bl	BMI088_GYRO_NS_L
 1012              	.LVL102:
 249:Bsp/BMI088/BMI088driver.c ****     if (buf[0] == BMI088_GYRO_CHIP_ID_VALUE)
 1013              		.loc 1 249 5 discriminator 1 view .LVU285
 1014 0082 0822     		movs	r2, #8
 1015 0084 2146     		mov	r1, r4
 1016 0086 0020     		movs	r0, #0
 1017 0088 FFF7FEFF 		bl	BMI088_read_muli_reg
 1018              	.LVL103:
 249:Bsp/BMI088/BMI088driver.c ****     if (buf[0] == BMI088_GYRO_CHIP_ID_VALUE)
 1019              		.loc 1 249 5 discriminator 2 view .LVU286
 1020 008c FFF7FEFF 		bl	BMI088_GYRO_NS_H
ARM GAS  C:\Users\LENOVO\AppData\Local\Temp\ccgQYW6n.s 			page 29


 1021              	.LVL104:
 249:Bsp/BMI088/BMI088driver.c ****     if (buf[0] == BMI088_GYRO_CHIP_ID_VALUE)
 1022              		.loc 1 249 59 discriminator 3 view .LVU287
 250:Bsp/BMI088/BMI088driver.c ****     {
 1023              		.loc 1 250 5 view .LVU288
 250:Bsp/BMI088/BMI088driver.c ****     {
 1024              		.loc 1 250 12 is_stmt 0 view .LVU289
 1025 0090 2378     		ldrb	r3, [r4]	@ zero_extendqisi2
 250:Bsp/BMI088/BMI088driver.c ****     {
 1026              		.loc 1 250 8 view .LVU290
 1027 0092 0F2B     		cmp	r3, #15
 1028 0094 2BD0     		beq	.L49
 1029              	.L45:
 271:Bsp/BMI088/BMI088driver.c **** 
 1030              		.loc 1 271 5 is_stmt 1 view .LVU291
 1031 0096 FFF7FEFF 		bl	BMI088_ACCEL_NS_L
 1032              	.LVL105:
 271:Bsp/BMI088/BMI088driver.c **** 
 1033              		.loc 1 271 5 discriminator 1 view .LVU292
 1034 009a A220     		movs	r0, #162
 1035 009c FFF7FEFF 		bl	BMI088_read_write_byte
 1036              	.LVL106:
 271:Bsp/BMI088/BMI088driver.c **** 
 1037              		.loc 1 271 5 discriminator 2 view .LVU293
 1038 00a0 4A4C     		ldr	r4, .L50
 1039 00a2 0222     		movs	r2, #2
 1040 00a4 2146     		mov	r1, r4
 1041 00a6 2220     		movs	r0, #34
 1042 00a8 FFF7FEFF 		bl	BMI088_read_muli_reg
 1043              	.LVL107:
 271:Bsp/BMI088/BMI088driver.c **** 
 1044              		.loc 1 271 5 discriminator 3 view .LVU294
 1045 00ac FFF7FEFF 		bl	BMI088_ACCEL_NS_H
 1046              	.LVL108:
 271:Bsp/BMI088/BMI088driver.c **** 
 1047              		.loc 1 271 54 discriminator 4 view .LVU295
 273:Bsp/BMI088/BMI088driver.c **** 
 1048              		.loc 1 273 5 view .LVU296
 273:Bsp/BMI088/BMI088driver.c **** 
 1049              		.loc 1 273 37 is_stmt 0 view .LVU297
 1050 00b0 2278     		ldrb	r2, [r4]	@ zero_extendqisi2
 273:Bsp/BMI088/BMI088driver.c **** 
 1051              		.loc 1 273 53 view .LVU298
 1052 00b2 6378     		ldrb	r3, [r4, #1]	@ zero_extendqisi2
 273:Bsp/BMI088/BMI088driver.c **** 
 1053              		.loc 1 273 23 view .LVU299
 1054 00b4 5B09     		lsrs	r3, r3, #5
 1055 00b6 43EAC203 		orr	r3, r3, r2, lsl #3
 273:Bsp/BMI088/BMI088driver.c **** 
 1056              		.loc 1 273 21 view .LVU300
 1057 00ba 454A     		ldr	r2, .L50+4
 1058 00bc 1380     		strh	r3, [r2]	@ movhi
 275:Bsp/BMI088/BMI088driver.c ****     {
 1059              		.loc 1 275 5 is_stmt 1 view .LVU301
 275:Bsp/BMI088/BMI088driver.c ****     {
 1060              		.loc 1 275 8 is_stmt 0 view .LVU302
 1061 00be B3F5806F 		cmp	r3, #1024
ARM GAS  C:\Users\LENOVO\AppData\Local\Temp\ccgQYW6n.s 			page 30


 1062 00c2 02DB     		blt	.L47
 277:Bsp/BMI088/BMI088driver.c ****     }
 1063              		.loc 1 277 9 is_stmt 1 view .LVU303
 277:Bsp/BMI088/BMI088driver.c ****     }
 1064              		.loc 1 277 25 is_stmt 0 view .LVU304
 1065 00c4 A3F50063 		sub	r3, r3, #2048
 1066 00c8 1380     		strh	r3, [r2]	@ movhi
 1067              	.L47:
 280:Bsp/BMI088/BMI088driver.c **** }
 1068              		.loc 1 280 5 is_stmt 1 view .LVU305
 280:Bsp/BMI088/BMI088driver.c **** }
 1069              		.loc 1 280 43 is_stmt 0 view .LVU306
 1070 00ca 414B     		ldr	r3, .L50+4
 1071 00cc B3F90030 		ldrsh	r3, [r3]
 1072 00d0 07EE903A 		vmov	s15, r3	@ int
 1073 00d4 F8EEE77A 		vcvt.f32.s32	s15, s15
 1074 00d8 B4EE007A 		vmov.f32	s14, #1.25e-1
 1075 00dc 67EE877A 		vmul.f32	s15, s15, s14
 280:Bsp/BMI088/BMI088driver.c **** }
 1076              		.loc 1 280 64 view .LVU307
 1077 00e0 B3EE077A 		vmov.f32	s14, #2.3e+1
 1078 00e4 77EE877A 		vadd.f32	s15, s15, s14
 280:Bsp/BMI088/BMI088driver.c **** }
 1079              		.loc 1 280 25 view .LVU308
 1080 00e8 C5ED067A 		vstr.32	s15, [r5, #24]
 281:Bsp/BMI088/BMI088driver.c **** 
 1081              		.loc 1 281 1 view .LVU309
 1082 00ec 38BD     		pop	{r3, r4, r5, pc}
 1083              	.LVL109:
 1084              	.L49:
 252:Bsp/BMI088/BMI088driver.c ****         {
 1085              		.loc 1 252 9 is_stmt 1 view .LVU310
 252:Bsp/BMI088/BMI088driver.c ****         {
 1086              		.loc 1 252 13 is_stmt 0 view .LVU311
 1087 00ee 3A4B     		ldr	r3, .L50+12
 1088 00f0 1B78     		ldrb	r3, [r3]	@ zero_extendqisi2
 252:Bsp/BMI088/BMI088driver.c ****         {
 1089              		.loc 1 252 12 view .LVU312
 1090 00f2 002B     		cmp	r3, #0
 1091 00f4 3AD0     		beq	.L46
 254:Bsp/BMI088/BMI088driver.c ****             bmi088->Gyro[0] = bmi088_raw_temp * BMI088_GYRO_SEN - bmi088->GyroOffset[0];
 1092              		.loc 1 254 13 is_stmt 1 view .LVU313
 254:Bsp/BMI088/BMI088driver.c ****             bmi088->Gyro[0] = bmi088_raw_temp * BMI088_GYRO_SEN - bmi088->GyroOffset[0];
 1093              		.loc 1 254 45 is_stmt 0 view .LVU314
 1094 00f6 E378     		ldrb	r3, [r4, #3]	@ zero_extendqisi2
 254:Bsp/BMI088/BMI088driver.c ****             bmi088->Gyro[0] = bmi088_raw_temp * BMI088_GYRO_SEN - bmi088->GyroOffset[0];
 1095              		.loc 1 254 31 view .LVU315
 1096 00f8 1B02     		lsls	r3, r3, #8
 1097 00fa 1BB2     		sxth	r3, r3
 254:Bsp/BMI088/BMI088driver.c ****             bmi088->Gyro[0] = bmi088_raw_temp * BMI088_GYRO_SEN - bmi088->GyroOffset[0];
 1098              		.loc 1 254 61 view .LVU316
 1099 00fc A178     		ldrb	r1, [r4, #2]	@ zero_extendqisi2
 254:Bsp/BMI088/BMI088driver.c ****             bmi088->Gyro[0] = bmi088_raw_temp * BMI088_GYRO_SEN - bmi088->GyroOffset[0];
 1100              		.loc 1 254 56 view .LVU317
 1101 00fe 0B43     		orrs	r3, r3, r1
 254:Bsp/BMI088/BMI088driver.c ****             bmi088->Gyro[0] = bmi088_raw_temp * BMI088_GYRO_SEN - bmi088->GyroOffset[0];
 1102              		.loc 1 254 29 view .LVU318
ARM GAS  C:\Users\LENOVO\AppData\Local\Temp\ccgQYW6n.s 			page 31


 1103 0100 3349     		ldr	r1, .L50+4
 1104 0102 0B80     		strh	r3, [r1]	@ movhi
 255:Bsp/BMI088/BMI088driver.c ****             bmi088_raw_temp = (int16_t)((buf[5]) << 8) | buf[4];
 1105              		.loc 1 255 13 is_stmt 1 view .LVU319
 255:Bsp/BMI088/BMI088driver.c ****             bmi088_raw_temp = (int16_t)((buf[5]) << 8) | buf[4];
 1106              		.loc 1 255 47 is_stmt 0 view .LVU320
 1107 0104 3548     		ldr	r0, .L50+16
 1108 0106 90ED007A 		vldr.32	s14, [r0]
 1109 010a 07EE903A 		vmov	s15, r3	@ int
 1110 010e F8EEE77A 		vcvt.f32.s32	s15, s15
 1111 0112 67EE877A 		vmul.f32	s15, s15, s14
 255:Bsp/BMI088/BMI088driver.c ****             bmi088_raw_temp = (int16_t)((buf[5]) << 8) | buf[4];
 1112              		.loc 1 255 85 view .LVU321
 1113 0116 D5ED076A 		vldr.32	s13, [r5, #28]
 255:Bsp/BMI088/BMI088driver.c ****             bmi088_raw_temp = (int16_t)((buf[5]) << 8) | buf[4];
 1114              		.loc 1 255 65 view .LVU322
 1115 011a 77EEE67A 		vsub.f32	s15, s15, s13
 255:Bsp/BMI088/BMI088driver.c ****             bmi088_raw_temp = (int16_t)((buf[5]) << 8) | buf[4];
 1116              		.loc 1 255 29 view .LVU323
 1117 011e C5ED037A 		vstr.32	s15, [r5, #12]
 256:Bsp/BMI088/BMI088driver.c ****             bmi088->Gyro[1] = bmi088_raw_temp * BMI088_GYRO_SEN - bmi088->GyroOffset[1];
 1118              		.loc 1 256 13 is_stmt 1 view .LVU324
 256:Bsp/BMI088/BMI088driver.c ****             bmi088->Gyro[1] = bmi088_raw_temp * BMI088_GYRO_SEN - bmi088->GyroOffset[1];
 1119              		.loc 1 256 45 is_stmt 0 view .LVU325
 1120 0122 6379     		ldrb	r3, [r4, #5]	@ zero_extendqisi2
 256:Bsp/BMI088/BMI088driver.c ****             bmi088->Gyro[1] = bmi088_raw_temp * BMI088_GYRO_SEN - bmi088->GyroOffset[1];
 1121              		.loc 1 256 31 view .LVU326
 1122 0124 1B02     		lsls	r3, r3, #8
 1123 0126 1BB2     		sxth	r3, r3
 256:Bsp/BMI088/BMI088driver.c ****             bmi088->Gyro[1] = bmi088_raw_temp * BMI088_GYRO_SEN - bmi088->GyroOffset[1];
 1124              		.loc 1 256 61 view .LVU327
 1125 0128 2079     		ldrb	r0, [r4, #4]	@ zero_extendqisi2
 256:Bsp/BMI088/BMI088driver.c ****             bmi088->Gyro[1] = bmi088_raw_temp * BMI088_GYRO_SEN - bmi088->GyroOffset[1];
 1126              		.loc 1 256 56 view .LVU328
 1127 012a 0343     		orrs	r3, r3, r0
 256:Bsp/BMI088/BMI088driver.c ****             bmi088->Gyro[1] = bmi088_raw_temp * BMI088_GYRO_SEN - bmi088->GyroOffset[1];
 1128              		.loc 1 256 29 view .LVU329
 1129 012c 0B80     		strh	r3, [r1]	@ movhi
 257:Bsp/BMI088/BMI088driver.c ****             bmi088_raw_temp = (int16_t)((buf[7]) << 8) | buf[6];
 1130              		.loc 1 257 13 is_stmt 1 view .LVU330
 257:Bsp/BMI088/BMI088driver.c ****             bmi088_raw_temp = (int16_t)((buf[7]) << 8) | buf[6];
 1131              		.loc 1 257 47 is_stmt 0 view .LVU331
 1132 012e 07EE903A 		vmov	s15, r3	@ int
 1133 0132 F8EEE77A 		vcvt.f32.s32	s15, s15
 1134 0136 67EE877A 		vmul.f32	s15, s15, s14
 257:Bsp/BMI088/BMI088driver.c ****             bmi088_raw_temp = (int16_t)((buf[7]) << 8) | buf[6];
 1135              		.loc 1 257 85 view .LVU332
 1136 013a D5ED086A 		vldr.32	s13, [r5, #32]
 257:Bsp/BMI088/BMI088driver.c ****             bmi088_raw_temp = (int16_t)((buf[7]) << 8) | buf[6];
 1137              		.loc 1 257 65 view .LVU333
 1138 013e 77EEE67A 		vsub.f32	s15, s15, s13
 257:Bsp/BMI088/BMI088driver.c ****             bmi088_raw_temp = (int16_t)((buf[7]) << 8) | buf[6];
 1139              		.loc 1 257 29 view .LVU334
 1140 0142 C5ED047A 		vstr.32	s15, [r5, #16]
 258:Bsp/BMI088/BMI088driver.c ****             bmi088->Gyro[2] = bmi088_raw_temp * BMI088_GYRO_SEN - bmi088->GyroOffset[2];
 1141              		.loc 1 258 13 is_stmt 1 view .LVU335
 258:Bsp/BMI088/BMI088driver.c ****             bmi088->Gyro[2] = bmi088_raw_temp * BMI088_GYRO_SEN - bmi088->GyroOffset[2];
ARM GAS  C:\Users\LENOVO\AppData\Local\Temp\ccgQYW6n.s 			page 32


 1142              		.loc 1 258 45 is_stmt 0 view .LVU336
 1143 0146 E379     		ldrb	r3, [r4, #7]	@ zero_extendqisi2
 258:Bsp/BMI088/BMI088driver.c ****             bmi088->Gyro[2] = bmi088_raw_temp * BMI088_GYRO_SEN - bmi088->GyroOffset[2];
 1144              		.loc 1 258 31 view .LVU337
 1145 0148 1B02     		lsls	r3, r3, #8
 1146 014a 1BB2     		sxth	r3, r3
 258:Bsp/BMI088/BMI088driver.c ****             bmi088->Gyro[2] = bmi088_raw_temp * BMI088_GYRO_SEN - bmi088->GyroOffset[2];
 1147              		.loc 1 258 61 view .LVU338
 1148 014c A279     		ldrb	r2, [r4, #6]	@ zero_extendqisi2
 258:Bsp/BMI088/BMI088driver.c ****             bmi088->Gyro[2] = bmi088_raw_temp * BMI088_GYRO_SEN - bmi088->GyroOffset[2];
 1149              		.loc 1 258 56 view .LVU339
 1150 014e 1343     		orrs	r3, r3, r2
 258:Bsp/BMI088/BMI088driver.c ****             bmi088->Gyro[2] = bmi088_raw_temp * BMI088_GYRO_SEN - bmi088->GyroOffset[2];
 1151              		.loc 1 258 29 view .LVU340
 1152 0150 0B80     		strh	r3, [r1]	@ movhi
 259:Bsp/BMI088/BMI088driver.c ****         }
 1153              		.loc 1 259 13 is_stmt 1 view .LVU341
 259:Bsp/BMI088/BMI088driver.c ****         }
 1154              		.loc 1 259 47 is_stmt 0 view .LVU342
 1155 0152 07EE903A 		vmov	s15, r3	@ int
 1156 0156 F8EEE77A 		vcvt.f32.s32	s15, s15
 1157 015a 67EE877A 		vmul.f32	s15, s15, s14
 259:Bsp/BMI088/BMI088driver.c ****         }
 1158              		.loc 1 259 85 view .LVU343
 1159 015e 95ED097A 		vldr.32	s14, [r5, #36]
 259:Bsp/BMI088/BMI088driver.c ****         }
 1160              		.loc 1 259 65 view .LVU344
 1161 0162 77EEC77A 		vsub.f32	s15, s15, s14
 259:Bsp/BMI088/BMI088driver.c ****         }
 1162              		.loc 1 259 29 view .LVU345
 1163 0166 C5ED057A 		vstr.32	s15, [r5, #20]
 1164 016a 94E7     		b	.L45
 1165              	.L46:
 263:Bsp/BMI088/BMI088driver.c ****             bmi088->Gyro[0] = bmi088_raw_temp * BMI088_GYRO_SEN;
 1166              		.loc 1 263 13 is_stmt 1 view .LVU346
 263:Bsp/BMI088/BMI088driver.c ****             bmi088->Gyro[0] = bmi088_raw_temp * BMI088_GYRO_SEN;
 1167              		.loc 1 263 45 is_stmt 0 view .LVU347
 1168 016c 174A     		ldr	r2, .L50
 1169 016e D378     		ldrb	r3, [r2, #3]	@ zero_extendqisi2
 263:Bsp/BMI088/BMI088driver.c ****             bmi088->Gyro[0] = bmi088_raw_temp * BMI088_GYRO_SEN;
 1170              		.loc 1 263 31 view .LVU348
 1171 0170 1B02     		lsls	r3, r3, #8
 1172 0172 1BB2     		sxth	r3, r3
 263:Bsp/BMI088/BMI088driver.c ****             bmi088->Gyro[0] = bmi088_raw_temp * BMI088_GYRO_SEN;
 1173              		.loc 1 263 61 view .LVU349
 1174 0174 9178     		ldrb	r1, [r2, #2]	@ zero_extendqisi2
 263:Bsp/BMI088/BMI088driver.c ****             bmi088->Gyro[0] = bmi088_raw_temp * BMI088_GYRO_SEN;
 1175              		.loc 1 263 56 view .LVU350
 1176 0176 0B43     		orrs	r3, r3, r1
 263:Bsp/BMI088/BMI088driver.c ****             bmi088->Gyro[0] = bmi088_raw_temp * BMI088_GYRO_SEN;
 1177              		.loc 1 263 29 view .LVU351
 1178 0178 1549     		ldr	r1, .L50+4
 1179 017a 0B80     		strh	r3, [r1]	@ movhi
 264:Bsp/BMI088/BMI088driver.c ****             bmi088_raw_temp = (int16_t)((buf[5]) << 8) | buf[4];
 1180              		.loc 1 264 13 is_stmt 1 view .LVU352
 264:Bsp/BMI088/BMI088driver.c ****             bmi088_raw_temp = (int16_t)((buf[5]) << 8) | buf[4];
 1181              		.loc 1 264 47 is_stmt 0 view .LVU353
ARM GAS  C:\Users\LENOVO\AppData\Local\Temp\ccgQYW6n.s 			page 33


 1182 017c 1748     		ldr	r0, .L50+16
 1183 017e 90ED007A 		vldr.32	s14, [r0]
 1184 0182 07EE903A 		vmov	s15, r3	@ int
 1185 0186 F8EEE77A 		vcvt.f32.s32	s15, s15
 1186 018a 67EE877A 		vmul.f32	s15, s15, s14
 264:Bsp/BMI088/BMI088driver.c ****             bmi088_raw_temp = (int16_t)((buf[5]) << 8) | buf[4];
 1187              		.loc 1 264 29 view .LVU354
 1188 018e C5ED037A 		vstr.32	s15, [r5, #12]
 265:Bsp/BMI088/BMI088driver.c ****             bmi088->Gyro[1] = bmi088_raw_temp * BMI088_GYRO_SEN;
 1189              		.loc 1 265 13 is_stmt 1 view .LVU355
 265:Bsp/BMI088/BMI088driver.c ****             bmi088->Gyro[1] = bmi088_raw_temp * BMI088_GYRO_SEN;
 1190              		.loc 1 265 45 is_stmt 0 view .LVU356
 1191 0192 5379     		ldrb	r3, [r2, #5]	@ zero_extendqisi2
 265:Bsp/BMI088/BMI088driver.c ****             bmi088->Gyro[1] = bmi088_raw_temp * BMI088_GYRO_SEN;
 1192              		.loc 1 265 31 view .LVU357
 1193 0194 1B02     		lsls	r3, r3, #8
 1194 0196 1BB2     		sxth	r3, r3
 265:Bsp/BMI088/BMI088driver.c ****             bmi088->Gyro[1] = bmi088_raw_temp * BMI088_GYRO_SEN;
 1195              		.loc 1 265 61 view .LVU358
 1196 0198 1079     		ldrb	r0, [r2, #4]	@ zero_extendqisi2
 265:Bsp/BMI088/BMI088driver.c ****             bmi088->Gyro[1] = bmi088_raw_temp * BMI088_GYRO_SEN;
 1197              		.loc 1 265 56 view .LVU359
 1198 019a 0343     		orrs	r3, r3, r0
 265:Bsp/BMI088/BMI088driver.c ****             bmi088->Gyro[1] = bmi088_raw_temp * BMI088_GYRO_SEN;
 1199              		.loc 1 265 29 view .LVU360
 1200 019c 0B80     		strh	r3, [r1]	@ movhi
 266:Bsp/BMI088/BMI088driver.c ****             bmi088_raw_temp = (int16_t)((buf[7]) << 8) | buf[6];
 1201              		.loc 1 266 13 is_stmt 1 view .LVU361
 266:Bsp/BMI088/BMI088driver.c ****             bmi088_raw_temp = (int16_t)((buf[7]) << 8) | buf[6];
 1202              		.loc 1 266 47 is_stmt 0 view .LVU362
 1203 019e 07EE903A 		vmov	s15, r3	@ int
 1204 01a2 F8EEE77A 		vcvt.f32.s32	s15, s15
 1205 01a6 67EE877A 		vmul.f32	s15, s15, s14
 266:Bsp/BMI088/BMI088driver.c ****             bmi088_raw_temp = (int16_t)((buf[7]) << 8) | buf[6];
 1206              		.loc 1 266 29 view .LVU363
 1207 01aa C5ED047A 		vstr.32	s15, [r5, #16]
 267:Bsp/BMI088/BMI088driver.c ****             bmi088->Gyro[2] = bmi088_raw_temp * BMI088_GYRO_SEN;
 1208              		.loc 1 267 13 is_stmt 1 view .LVU364
 267:Bsp/BMI088/BMI088driver.c ****             bmi088->Gyro[2] = bmi088_raw_temp * BMI088_GYRO_SEN;
 1209              		.loc 1 267 45 is_stmt 0 view .LVU365
 1210 01ae D379     		ldrb	r3, [r2, #7]	@ zero_extendqisi2
 267:Bsp/BMI088/BMI088driver.c ****             bmi088->Gyro[2] = bmi088_raw_temp * BMI088_GYRO_SEN;
 1211              		.loc 1 267 31 view .LVU366
 1212 01b0 1B02     		lsls	r3, r3, #8
 1213 01b2 1BB2     		sxth	r3, r3
 267:Bsp/BMI088/BMI088driver.c ****             bmi088->Gyro[2] = bmi088_raw_temp * BMI088_GYRO_SEN;
 1214              		.loc 1 267 61 view .LVU367
 1215 01b4 9279     		ldrb	r2, [r2, #6]	@ zero_extendqisi2
 267:Bsp/BMI088/BMI088driver.c ****             bmi088->Gyro[2] = bmi088_raw_temp * BMI088_GYRO_SEN;
 1216              		.loc 1 267 56 view .LVU368
 1217 01b6 1343     		orrs	r3, r3, r2
 267:Bsp/BMI088/BMI088driver.c ****             bmi088->Gyro[2] = bmi088_raw_temp * BMI088_GYRO_SEN;
 1218              		.loc 1 267 29 view .LVU369
 1219 01b8 0B80     		strh	r3, [r1]	@ movhi
 268:Bsp/BMI088/BMI088driver.c ****         }
 1220              		.loc 1 268 13 is_stmt 1 view .LVU370
 268:Bsp/BMI088/BMI088driver.c ****         }
ARM GAS  C:\Users\LENOVO\AppData\Local\Temp\ccgQYW6n.s 			page 34


 1221              		.loc 1 268 47 is_stmt 0 view .LVU371
 1222 01ba 07EE903A 		vmov	s15, r3	@ int
 1223 01be F8EEE77A 		vcvt.f32.s32	s15, s15
 1224 01c2 67EE877A 		vmul.f32	s15, s15, s14
 268:Bsp/BMI088/BMI088driver.c ****         }
 1225              		.loc 1 268 29 view .LVU372
 1226 01c6 C5ED057A 		vstr.32	s15, [r5, #20]
 1227 01ca 64E7     		b	.L45
 1228              	.L51:
 1229              		.align	2
 1230              	.L50:
 1231 01cc 00000000 		.word	buf.1
 1232 01d0 00000000 		.word	bmi088_raw_temp.0
 1233 01d4 00000000 		.word	BMI088_ACCEL_SEN
 1234 01d8 00000000 		.word	caliOffset
 1235 01dc 00000000 		.word	BMI088_GYRO_SEN
 1236              		.cfi_endproc
 1237              	.LFE135:
 1239              		.section	.bss.bmi088_raw_temp.0,"aw",%nobits
 1240              		.align	1
 1243              	bmi088_raw_temp.0:
 1244 0000 0000     		.space	2
 1245              		.section	.bss.buf.1,"aw",%nobits
 1246              		.align	2
 1249              	buf.1:
 1250 0000 00000000 		.space	8
 1250      00000000 
 1251              		.section	.bss.bmi088_raw_temp.2,"aw",%nobits
 1252              		.align	1
 1255              	bmi088_raw_temp.2:
 1256 0000 0000     		.space	2
 1257              		.section	.bss.buf.3,"aw",%nobits
 1258              		.align	2
 1261              	buf.3:
 1262 0000 00000000 		.space	8
 1262      00000000 
 1263              		.section	.rodata.write_BMI088_gyro_reg_data_error,"a"
 1264              		.align	2
 1267              	write_BMI088_gyro_reg_data_error:
 1268 0000 0F0008   		.ascii	"\017\000\010"
 1269 0003 108109   		.ascii	"\020\201\011"
 1270 0006 11000A   		.ascii	"\021\000\012"
 1271 0009 15800B   		.ascii	"\025\200\013"
 1272 000c 16000C   		.ascii	"\026\000\014"
 1273 000f 18010D   		.ascii	"\030\001\015"
 1274              		.section	.rodata.write_BMI088_accel_reg_data_error,"a"
 1275              		.align	2
 1278              	write_BMI088_accel_reg_data_error:
 1279 0000 7D0401   		.ascii	"}\004\001"
 1280 0003 7C0002   		.ascii	"|\000\002"
 1281 0006 40AB03   		.ascii	"@\253\003"
 1282 0009 410105   		.ascii	"A\001\005"
 1283 000c 530806   		.ascii	"S\010\006"
 1284 000f 580407   		.ascii	"X\004\007"
 1285              		.global	BMI088
 1286              		.section	.bss.BMI088,"aw",%nobits
 1287              		.align	2
ARM GAS  C:\Users\LENOVO\AppData\Local\Temp\ccgQYW6n.s 			page 35


 1290              	BMI088:
 1291 0000 00000000 		.space	40
 1291      00000000 
 1291      00000000 
 1291      00000000 
 1291      00000000 
 1292              		.global	caliOffset
 1293              		.section	.data.caliOffset,"aw"
 1296              	caliOffset:
 1297 0000 01       		.byte	1
 1298              		.section	.bss.error,"aw",%nobits
 1301              	error:
 1302 0000 00       		.space	1
 1303              		.section	.bss.write_reg_num,"aw",%nobits
 1306              	write_reg_num:
 1307 0000 00       		.space	1
 1308              		.section	.bss.res,"aw",%nobits
 1311              	res:
 1312 0000 00       		.space	1
 1313              		.global	BMI088_GYRO_SEN
 1314              		.section	.data.BMI088_GYRO_SEN,"aw"
 1315              		.align	2
 1318              	BMI088_GYRO_SEN:
 1319 0000 58A08B3A 		.word	982229080
 1320              		.global	BMI088_ACCEL_SEN
 1321              		.section	.data.BMI088_ACCEL_SEN,"aw"
 1322              		.align	2
 1325              	BMI088_ACCEL_SEN:
 1326 0000 3333EB3A 		.word	988492595
 1327              		.text
 1328              	.Letext0:
 1329              		.file 2 "C:/msys64/mingw64/arm-none-eabi/include/machine/_default_types.h"
 1330              		.file 3 "C:/msys64/mingw64/arm-none-eabi/include/sys/_stdint.h"
 1331              		.file 4 "Drivers/CMSIS/Device/ST/STM32F4xx/Include/stm32f407xx.h"
 1332              		.file 5 "Drivers/STM32F4xx_HAL_Driver/Inc/stm32f4xx_hal_def.h"
 1333              		.file 6 "Drivers/STM32F4xx_HAL_Driver/Inc/stm32f4xx_hal_dma.h"
 1334              		.file 7 "Drivers/STM32F4xx_HAL_Driver/Inc/stm32f4xx_hal_spi.h"
 1335              		.file 8 "Bsp/BMI088/BMI088driver.h"
 1336              		.file 9 "Bsp/BMI088/BMI088Middleware.h"
 1337              		.file 10 "Drivers/STM32F4xx_HAL_Driver/Inc/stm32f4xx_hal.h"
 1338              		.file 11 "Core/Inc/bsp_dwt.h"
ARM GAS  C:\Users\LENOVO\AppData\Local\Temp\ccgQYW6n.s 			page 36

