ARM GAS  C:\Users\LENOVO\AppData\Local\Temp\ccBue5Hi.s 			page 1


   1              		.cpu cortex-m4
   2              		.arch armv7e-m
   3              		.fpu fpv4-sp-d16
   4              		.eabi_attribute 27, 1
   5              		.eabi_attribute 28, 1
   6              		.eabi_attribute 20, 1
   7              		.eabi_attribute 21, 1
   8              		.eabi_attribute 23, 3
   9              		.eabi_attribute 24, 1
  10              		.eabi_attribute 25, 1
  11              		.eabi_attribute 26, 1
  12              		.eabi_attribute 30, 1
  13              		.eabi_attribute 34, 1
  14              		.eabi_attribute 18, 4
  15              		.file	"bsp_dwt.c"
  16              		.text
  17              	.Ltext0:
  18              		.cfi_sections	.debug_frame
  19              		.file 1 "Core/Src/bsp_dwt.c"
  20              		.section	.text.DWT_CNT_Update,"ax",%progbits
  21              		.align	1
  22              		.syntax unified
  23              		.thumb
  24              		.thumb_func
  26              	DWT_CNT_Update:
  27              	.LFB138:
   1:Core/Src/bsp_dwt.c **** /**
   2:Core/Src/bsp_dwt.c ****  ******************************************************************************
   3:Core/Src/bsp_dwt.c ****  * @file	bsp_dwt.c
   4:Core/Src/bsp_dwt.c ****  * @author  Wang Hongxi
   5:Core/Src/bsp_dwt.c ****  * @version V1.1.1
   6:Core/Src/bsp_dwt.c ****  * @date    2022/5/4
   7:Core/Src/bsp_dwt.c ****  * @brief
   8:Core/Src/bsp_dwt.c ****  ******************************************************************************
   9:Core/Src/bsp_dwt.c ****  * @attention
  10:Core/Src/bsp_dwt.c ****  *
  11:Core/Src/bsp_dwt.c ****  ******************************************************************************
  12:Core/Src/bsp_dwt.c ****  */
  13:Core/Src/bsp_dwt.c **** #include "bsp_dwt.h"
  14:Core/Src/bsp_dwt.c **** 
  15:Core/Src/bsp_dwt.c **** DWT_Time_t SysTime;
  16:Core/Src/bsp_dwt.c **** static uint32_t CPU_FREQ_Hz, CPU_FREQ_Hz_ms, CPU_FREQ_Hz_us;
  17:Core/Src/bsp_dwt.c **** static uint32_t CYCCNT_RountCount;
  18:Core/Src/bsp_dwt.c **** static uint32_t CYCCNT_LAST;
  19:Core/Src/bsp_dwt.c **** uint64_t CYCCNT64;
  20:Core/Src/bsp_dwt.c **** static void DWT_CNT_Update(void);
  21:Core/Src/bsp_dwt.c **** 
  22:Core/Src/bsp_dwt.c **** void DWT_Init(uint32_t CPU_Freq_mHz)
  23:Core/Src/bsp_dwt.c **** {
  24:Core/Src/bsp_dwt.c ****     /* 使能DWT外设 */
  25:Core/Src/bsp_dwt.c ****     CoreDebug->DEMCR |= CoreDebug_DEMCR_TRCENA_Msk;
  26:Core/Src/bsp_dwt.c **** 
  27:Core/Src/bsp_dwt.c ****     /* DWT CYCCNT寄存器计数清0 */
  28:Core/Src/bsp_dwt.c ****     DWT->CYCCNT = (uint32_t)0u;
  29:Core/Src/bsp_dwt.c **** 
  30:Core/Src/bsp_dwt.c ****     /* 使能Cortex-M DWT CYCCNT寄存器 */
  31:Core/Src/bsp_dwt.c ****     DWT->CTRL |= DWT_CTRL_CYCCNTENA_Msk;
ARM GAS  C:\Users\LENOVO\AppData\Local\Temp\ccBue5Hi.s 			page 2


  32:Core/Src/bsp_dwt.c **** 
  33:Core/Src/bsp_dwt.c ****     CPU_FREQ_Hz = CPU_Freq_mHz * 1000000;
  34:Core/Src/bsp_dwt.c ****     CPU_FREQ_Hz_ms = CPU_FREQ_Hz / 1000;
  35:Core/Src/bsp_dwt.c ****     CPU_FREQ_Hz_us = CPU_FREQ_Hz / 1000000;
  36:Core/Src/bsp_dwt.c ****     CYCCNT_RountCount = 0;
  37:Core/Src/bsp_dwt.c **** }
  38:Core/Src/bsp_dwt.c **** 
  39:Core/Src/bsp_dwt.c **** float DWT_GetDeltaT(uint32_t *cnt_last)
  40:Core/Src/bsp_dwt.c **** {
  41:Core/Src/bsp_dwt.c ****     volatile uint32_t cnt_now = DWT->CYCCNT;
  42:Core/Src/bsp_dwt.c ****     float dt = ((uint32_t)(cnt_now - *cnt_last)) / ((float)(CPU_FREQ_Hz));
  43:Core/Src/bsp_dwt.c ****     *cnt_last = cnt_now;
  44:Core/Src/bsp_dwt.c **** 
  45:Core/Src/bsp_dwt.c ****     DWT_CNT_Update();
  46:Core/Src/bsp_dwt.c **** 
  47:Core/Src/bsp_dwt.c ****     return dt;
  48:Core/Src/bsp_dwt.c **** }
  49:Core/Src/bsp_dwt.c **** 
  50:Core/Src/bsp_dwt.c **** double DWT_GetDeltaT64(uint32_t *cnt_last)
  51:Core/Src/bsp_dwt.c **** {
  52:Core/Src/bsp_dwt.c ****     volatile uint32_t cnt_now = DWT->CYCCNT;
  53:Core/Src/bsp_dwt.c ****     double dt = ((uint32_t)(cnt_now - *cnt_last)) / ((double)(CPU_FREQ_Hz));
  54:Core/Src/bsp_dwt.c ****     *cnt_last = cnt_now;
  55:Core/Src/bsp_dwt.c **** 
  56:Core/Src/bsp_dwt.c ****     DWT_CNT_Update();
  57:Core/Src/bsp_dwt.c **** 
  58:Core/Src/bsp_dwt.c ****     return dt;
  59:Core/Src/bsp_dwt.c **** }
  60:Core/Src/bsp_dwt.c **** 
  61:Core/Src/bsp_dwt.c **** void DWT_SysTimeUpdate(void)
  62:Core/Src/bsp_dwt.c **** {
  63:Core/Src/bsp_dwt.c ****     volatile uint32_t cnt_now = DWT->CYCCNT;
  64:Core/Src/bsp_dwt.c ****     static uint64_t CNT_TEMP1, CNT_TEMP2, CNT_TEMP3;
  65:Core/Src/bsp_dwt.c **** 
  66:Core/Src/bsp_dwt.c ****     DWT_CNT_Update();
  67:Core/Src/bsp_dwt.c **** 
  68:Core/Src/bsp_dwt.c ****     CYCCNT64 = (uint64_t)CYCCNT_RountCount * (uint64_t)UINT32_MAX + (uint64_t)cnt_now;
  69:Core/Src/bsp_dwt.c ****     CNT_TEMP1 = CYCCNT64 / CPU_FREQ_Hz;
  70:Core/Src/bsp_dwt.c ****     CNT_TEMP2 = CYCCNT64 - CNT_TEMP1 * CPU_FREQ_Hz;
  71:Core/Src/bsp_dwt.c ****     SysTime.s = CNT_TEMP1;
  72:Core/Src/bsp_dwt.c ****     SysTime.ms = CNT_TEMP2 / CPU_FREQ_Hz_ms;
  73:Core/Src/bsp_dwt.c ****     CNT_TEMP3 = CNT_TEMP2 - SysTime.ms * CPU_FREQ_Hz_ms;
  74:Core/Src/bsp_dwt.c ****     SysTime.us = CNT_TEMP3 / CPU_FREQ_Hz_us;
  75:Core/Src/bsp_dwt.c **** }
  76:Core/Src/bsp_dwt.c **** 
  77:Core/Src/bsp_dwt.c **** float DWT_GetTimeline_s(void)
  78:Core/Src/bsp_dwt.c **** {
  79:Core/Src/bsp_dwt.c ****     DWT_SysTimeUpdate();
  80:Core/Src/bsp_dwt.c **** 
  81:Core/Src/bsp_dwt.c ****     float DWT_Timelinef32 = SysTime.s + SysTime.ms * 0.001f + SysTime.us * 0.000001f;
  82:Core/Src/bsp_dwt.c **** 
  83:Core/Src/bsp_dwt.c ****     return DWT_Timelinef32;
  84:Core/Src/bsp_dwt.c **** }
  85:Core/Src/bsp_dwt.c **** 
  86:Core/Src/bsp_dwt.c **** float DWT_GetTimeline_ms(void)
  87:Core/Src/bsp_dwt.c **** {
  88:Core/Src/bsp_dwt.c ****     DWT_SysTimeUpdate();
ARM GAS  C:\Users\LENOVO\AppData\Local\Temp\ccBue5Hi.s 			page 3


  89:Core/Src/bsp_dwt.c **** 
  90:Core/Src/bsp_dwt.c ****     float DWT_Timelinef32 = SysTime.s * 1000 + SysTime.ms + SysTime.us * 0.001f;
  91:Core/Src/bsp_dwt.c **** 
  92:Core/Src/bsp_dwt.c ****     return DWT_Timelinef32;
  93:Core/Src/bsp_dwt.c **** }
  94:Core/Src/bsp_dwt.c **** 
  95:Core/Src/bsp_dwt.c **** uint32_t DWT_GetTimeline_ms_int32(void)
  96:Core/Src/bsp_dwt.c **** {
  97:Core/Src/bsp_dwt.c ****     DWT_SysTimeUpdate();
  98:Core/Src/bsp_dwt.c ****     uint32_t DWT_Timelinef32;
  99:Core/Src/bsp_dwt.c ****     if (SysTime.us >= 500)
 100:Core/Src/bsp_dwt.c ****         DWT_Timelinef32 = SysTime.s * 1000 + SysTime.ms + 1;
 101:Core/Src/bsp_dwt.c ****     else
 102:Core/Src/bsp_dwt.c ****         DWT_Timelinef32 = SysTime.s * 1000 + SysTime.ms;
 103:Core/Src/bsp_dwt.c **** 
 104:Core/Src/bsp_dwt.c ****     return DWT_Timelinef32;
 105:Core/Src/bsp_dwt.c **** }
 106:Core/Src/bsp_dwt.c **** 
 107:Core/Src/bsp_dwt.c **** uint64_t DWT_GetTimeline_us(void)
 108:Core/Src/bsp_dwt.c **** {
 109:Core/Src/bsp_dwt.c ****     DWT_SysTimeUpdate();
 110:Core/Src/bsp_dwt.c **** 
 111:Core/Src/bsp_dwt.c ****     uint64_t DWT_Timelinef32 = SysTime.s * 1000000 + SysTime.ms * 1000 + SysTime.us;
 112:Core/Src/bsp_dwt.c **** 
 113:Core/Src/bsp_dwt.c ****     return DWT_Timelinef32;
 114:Core/Src/bsp_dwt.c **** }
 115:Core/Src/bsp_dwt.c **** 
 116:Core/Src/bsp_dwt.c **** static void DWT_CNT_Update(void)
 117:Core/Src/bsp_dwt.c **** {
  28              		.loc 1 117 1 view -0
  29              		.cfi_startproc
  30              		@ args = 0, pretend = 0, frame = 8
  31              		@ frame_needed = 0, uses_anonymous_args = 0
  32              		@ link register save eliminated.
  33 0000 82B0     		sub	sp, sp, #8
  34              	.LCFI0:
  35              		.cfi_def_cfa_offset 8
 118:Core/Src/bsp_dwt.c ****     volatile uint32_t cnt_now = DWT->CYCCNT;
  36              		.loc 1 118 5 view .LVU1
  37              		.loc 1 118 36 is_stmt 0 view .LVU2
  38 0002 084B     		ldr	r3, .L4
  39 0004 5B68     		ldr	r3, [r3, #4]
  40              		.loc 1 118 23 view .LVU3
  41 0006 0193     		str	r3, [sp, #4]
 119:Core/Src/bsp_dwt.c **** 
 120:Core/Src/bsp_dwt.c ****     if (cnt_now < CYCCNT_LAST)
  42              		.loc 1 120 5 is_stmt 1 view .LVU4
  43              		.loc 1 120 17 is_stmt 0 view .LVU5
  44 0008 019A     		ldr	r2, [sp, #4]
  45 000a 074B     		ldr	r3, .L4+4
  46 000c 1B68     		ldr	r3, [r3]
  47              		.loc 1 120 8 view .LVU6
  48 000e 9A42     		cmp	r2, r3
  49 0010 03D2     		bcs	.L2
 121:Core/Src/bsp_dwt.c ****         CYCCNT_RountCount++;
  50              		.loc 1 121 9 is_stmt 1 view .LVU7
  51              		.loc 1 121 26 is_stmt 0 view .LVU8
ARM GAS  C:\Users\LENOVO\AppData\Local\Temp\ccBue5Hi.s 			page 4


  52 0012 064A     		ldr	r2, .L4+8
  53 0014 1368     		ldr	r3, [r2]
  54 0016 0133     		adds	r3, r3, #1
  55 0018 1360     		str	r3, [r2]
  56              	.L2:
 122:Core/Src/bsp_dwt.c **** 
 123:Core/Src/bsp_dwt.c ****     CYCCNT_LAST = cnt_now;
  57              		.loc 1 123 5 is_stmt 1 view .LVU9
  58              		.loc 1 123 17 is_stmt 0 view .LVU10
  59 001a 019A     		ldr	r2, [sp, #4]
  60 001c 024B     		ldr	r3, .L4+4
  61 001e 1A60     		str	r2, [r3]
 124:Core/Src/bsp_dwt.c **** }
  62              		.loc 1 124 1 view .LVU11
  63 0020 02B0     		add	sp, sp, #8
  64              	.LCFI1:
  65              		.cfi_def_cfa_offset 0
  66              		@ sp needed
  67 0022 7047     		bx	lr
  68              	.L5:
  69              		.align	2
  70              	.L4:
  71 0024 001000E0 		.word	-536866816
  72 0028 00000000 		.word	CYCCNT_LAST
  73 002c 00000000 		.word	CYCCNT_RountCount
  74              		.cfi_endproc
  75              	.LFE138:
  77              		.section	.text.DWT_Init,"ax",%progbits
  78              		.align	1
  79              		.global	DWT_Init
  80              		.syntax unified
  81              		.thumb
  82              		.thumb_func
  84              	DWT_Init:
  85              	.LVL0:
  86              	.LFB130:
  23:Core/Src/bsp_dwt.c ****     /* 使能DWT外设 */
  87              		.loc 1 23 1 is_stmt 1 view -0
  88              		.cfi_startproc
  89              		@ args = 0, pretend = 0, frame = 0
  90              		@ frame_needed = 0, uses_anonymous_args = 0
  91              		@ link register save eliminated.
  25:Core/Src/bsp_dwt.c **** 
  92              		.loc 1 25 5 view .LVU13
  25:Core/Src/bsp_dwt.c **** 
  93              		.loc 1 25 14 is_stmt 0 view .LVU14
  94 0000 104A     		ldr	r2, .L7
  95 0002 D2F8FC30 		ldr	r3, [r2, #252]
  25:Core/Src/bsp_dwt.c **** 
  96              		.loc 1 25 22 view .LVU15
  97 0006 43F08073 		orr	r3, r3, #16777216
  98 000a C2F8FC30 		str	r3, [r2, #252]
  28:Core/Src/bsp_dwt.c **** 
  99              		.loc 1 28 5 is_stmt 1 view .LVU16
  28:Core/Src/bsp_dwt.c **** 
 100              		.loc 1 28 17 is_stmt 0 view .LVU17
 101 000e 0E4B     		ldr	r3, .L7+4
ARM GAS  C:\Users\LENOVO\AppData\Local\Temp\ccBue5Hi.s 			page 5


 102 0010 0021     		movs	r1, #0
 103 0012 5960     		str	r1, [r3, #4]
  31:Core/Src/bsp_dwt.c **** 
 104              		.loc 1 31 5 is_stmt 1 view .LVU18
  31:Core/Src/bsp_dwt.c **** 
 105              		.loc 1 31 8 is_stmt 0 view .LVU19
 106 0014 1A68     		ldr	r2, [r3]
  31:Core/Src/bsp_dwt.c **** 
 107              		.loc 1 31 15 view .LVU20
 108 0016 42F00102 		orr	r2, r2, #1
 109 001a 1A60     		str	r2, [r3]
  33:Core/Src/bsp_dwt.c ****     CPU_FREQ_Hz_ms = CPU_FREQ_Hz / 1000;
 110              		.loc 1 33 5 is_stmt 1 view .LVU21
  33:Core/Src/bsp_dwt.c ****     CPU_FREQ_Hz_ms = CPU_FREQ_Hz / 1000;
 111              		.loc 1 33 32 is_stmt 0 view .LVU22
 112 001c 0B4B     		ldr	r3, .L7+8
 113 001e 03FB00F0 		mul	r0, r3, r0
 114              	.LVL1:
  33:Core/Src/bsp_dwt.c ****     CPU_FREQ_Hz_ms = CPU_FREQ_Hz / 1000;
 115              		.loc 1 33 17 view .LVU23
 116 0022 0B4B     		ldr	r3, .L7+12
 117 0024 1860     		str	r0, [r3]
  34:Core/Src/bsp_dwt.c ****     CPU_FREQ_Hz_us = CPU_FREQ_Hz / 1000000;
 118              		.loc 1 34 5 is_stmt 1 view .LVU24
  34:Core/Src/bsp_dwt.c ****     CPU_FREQ_Hz_us = CPU_FREQ_Hz / 1000000;
 119              		.loc 1 34 34 is_stmt 0 view .LVU25
 120 0026 0B4B     		ldr	r3, .L7+16
 121 0028 A3FB0023 		umull	r2, r3, r3, r0
 122 002c 9B09     		lsrs	r3, r3, #6
  34:Core/Src/bsp_dwt.c ****     CPU_FREQ_Hz_us = CPU_FREQ_Hz / 1000000;
 123              		.loc 1 34 20 view .LVU26
 124 002e 0A4A     		ldr	r2, .L7+20
 125 0030 1360     		str	r3, [r2]
  35:Core/Src/bsp_dwt.c ****     CYCCNT_RountCount = 0;
 126              		.loc 1 35 5 is_stmt 1 view .LVU27
  35:Core/Src/bsp_dwt.c ****     CYCCNT_RountCount = 0;
 127              		.loc 1 35 34 is_stmt 0 view .LVU28
 128 0032 0A4B     		ldr	r3, .L7+24
 129 0034 A3FB0030 		umull	r3, r0, r3, r0
 130 0038 800C     		lsrs	r0, r0, #18
  35:Core/Src/bsp_dwt.c ****     CYCCNT_RountCount = 0;
 131              		.loc 1 35 20 view .LVU29
 132 003a 094B     		ldr	r3, .L7+28
 133 003c 1860     		str	r0, [r3]
  36:Core/Src/bsp_dwt.c **** }
 134              		.loc 1 36 5 is_stmt 1 view .LVU30
  36:Core/Src/bsp_dwt.c **** }
 135              		.loc 1 36 23 is_stmt 0 view .LVU31
 136 003e 094B     		ldr	r3, .L7+32
 137 0040 1960     		str	r1, [r3]
  37:Core/Src/bsp_dwt.c **** 
 138              		.loc 1 37 1 view .LVU32
 139 0042 7047     		bx	lr
 140              	.L8:
 141              		.align	2
 142              	.L7:
 143 0044 00ED00E0 		.word	-536810240
ARM GAS  C:\Users\LENOVO\AppData\Local\Temp\ccBue5Hi.s 			page 6


 144 0048 001000E0 		.word	-536866816
 145 004c 40420F00 		.word	1000000
 146 0050 00000000 		.word	CPU_FREQ_Hz
 147 0054 D34D6210 		.word	274877907
 148 0058 00000000 		.word	CPU_FREQ_Hz_ms
 149 005c 83DE1B43 		.word	1125899907
 150 0060 00000000 		.word	CPU_FREQ_Hz_us
 151 0064 00000000 		.word	CYCCNT_RountCount
 152              		.cfi_endproc
 153              	.LFE130:
 155              		.section	.text.DWT_GetDeltaT,"ax",%progbits
 156              		.align	1
 157              		.global	DWT_GetDeltaT
 158              		.syntax unified
 159              		.thumb
 160              		.thumb_func
 162              	DWT_GetDeltaT:
 163              	.LVL2:
 164              	.LFB131:
  40:Core/Src/bsp_dwt.c ****     volatile uint32_t cnt_now = DWT->CYCCNT;
 165              		.loc 1 40 1 is_stmt 1 view -0
 166              		.cfi_startproc
 167              		@ args = 0, pretend = 0, frame = 8
 168              		@ frame_needed = 0, uses_anonymous_args = 0
  40:Core/Src/bsp_dwt.c ****     volatile uint32_t cnt_now = DWT->CYCCNT;
 169              		.loc 1 40 1 is_stmt 0 view .LVU34
 170 0000 00B5     		push	{lr}
 171              	.LCFI2:
 172              		.cfi_def_cfa_offset 4
 173              		.cfi_offset 14, -4
 174 0002 2DED028B 		vpush.64	{d8}
 175              	.LCFI3:
 176              		.cfi_def_cfa_offset 12
 177              		.cfi_offset 80, -12
 178              		.cfi_offset 81, -8
 179 0006 83B0     		sub	sp, sp, #12
 180              	.LCFI4:
 181              		.cfi_def_cfa_offset 24
  41:Core/Src/bsp_dwt.c ****     float dt = ((uint32_t)(cnt_now - *cnt_last)) / ((float)(CPU_FREQ_Hz));
 182              		.loc 1 41 5 is_stmt 1 view .LVU35
  41:Core/Src/bsp_dwt.c ****     float dt = ((uint32_t)(cnt_now - *cnt_last)) / ((float)(CPU_FREQ_Hz));
 183              		.loc 1 41 36 is_stmt 0 view .LVU36
 184 0008 0D4B     		ldr	r3, .L11
 185 000a 5B68     		ldr	r3, [r3, #4]
  41:Core/Src/bsp_dwt.c ****     float dt = ((uint32_t)(cnt_now - *cnt_last)) / ((float)(CPU_FREQ_Hz));
 186              		.loc 1 41 23 view .LVU37
 187 000c 0193     		str	r3, [sp, #4]
  42:Core/Src/bsp_dwt.c ****     *cnt_last = cnt_now;
 188              		.loc 1 42 5 is_stmt 1 view .LVU38
  42:Core/Src/bsp_dwt.c ****     *cnt_last = cnt_now;
 189              		.loc 1 42 36 is_stmt 0 view .LVU39
 190 000e 019B     		ldr	r3, [sp, #4]
  42:Core/Src/bsp_dwt.c ****     *cnt_last = cnt_now;
 191              		.loc 1 42 38 view .LVU40
 192 0010 0268     		ldr	r2, [r0]
  42:Core/Src/bsp_dwt.c ****     *cnt_last = cnt_now;
 193              		.loc 1 42 36 view .LVU41
ARM GAS  C:\Users\LENOVO\AppData\Local\Temp\ccBue5Hi.s 			page 7


 194 0012 9B1A     		subs	r3, r3, r2
  42:Core/Src/bsp_dwt.c ****     *cnt_last = cnt_now;
 195              		.loc 1 42 50 view .LVU42
 196 0014 07EE903A 		vmov	s15, r3	@ int
 197 0018 F8EE677A 		vcvt.f32.u32	s15, s15
  42:Core/Src/bsp_dwt.c ****     *cnt_last = cnt_now;
 198              		.loc 1 42 53 view .LVU43
 199 001c 094B     		ldr	r3, .L11+4
 200 001e 93ED007A 		vldr.32	s14, [r3]	@ int
 201 0022 B8EE477A 		vcvt.f32.u32	s14, s14
  42:Core/Src/bsp_dwt.c ****     *cnt_last = cnt_now;
 202              		.loc 1 42 11 view .LVU44
 203 0026 87EE878A 		vdiv.f32	s16, s15, s14
 204              	.LVL3:
  43:Core/Src/bsp_dwt.c **** 
 205              		.loc 1 43 5 is_stmt 1 view .LVU45
  43:Core/Src/bsp_dwt.c **** 
 206              		.loc 1 43 15 is_stmt 0 view .LVU46
 207 002a 019B     		ldr	r3, [sp, #4]
 208 002c 0360     		str	r3, [r0]
  45:Core/Src/bsp_dwt.c **** 
 209              		.loc 1 45 5 is_stmt 1 view .LVU47
 210 002e FFF7FEFF 		bl	DWT_CNT_Update
 211              	.LVL4:
  47:Core/Src/bsp_dwt.c **** }
 212              		.loc 1 47 5 view .LVU48
  48:Core/Src/bsp_dwt.c **** 
 213              		.loc 1 48 1 is_stmt 0 view .LVU49
 214 0032 B0EE480A 		vmov.f32	s0, s16
 215 0036 03B0     		add	sp, sp, #12
 216              	.LCFI5:
 217              		.cfi_def_cfa_offset 12
 218              		@ sp needed
 219 0038 BDEC028B 		vldm	sp!, {d8}
 220              	.LCFI6:
 221              		.cfi_restore 80
 222              		.cfi_restore 81
 223              		.cfi_def_cfa_offset 4
 224              	.LVL5:
  48:Core/Src/bsp_dwt.c **** 
 225              		.loc 1 48 1 view .LVU50
 226 003c 5DF804FB 		ldr	pc, [sp], #4
 227              	.L12:
 228              		.align	2
 229              	.L11:
 230 0040 001000E0 		.word	-536866816
 231 0044 00000000 		.word	CPU_FREQ_Hz
 232              		.cfi_endproc
 233              	.LFE131:
 235              		.global	__aeabi_ui2d
 236              		.global	__aeabi_ddiv
 237              		.section	.text.DWT_GetDeltaT64,"ax",%progbits
 238              		.align	1
 239              		.global	DWT_GetDeltaT64
 240              		.syntax unified
 241              		.thumb
 242              		.thumb_func
ARM GAS  C:\Users\LENOVO\AppData\Local\Temp\ccBue5Hi.s 			page 8


 244              	DWT_GetDeltaT64:
 245              	.LVL6:
 246              	.LFB132:
  51:Core/Src/bsp_dwt.c ****     volatile uint32_t cnt_now = DWT->CYCCNT;
 247              		.loc 1 51 1 is_stmt 1 view -0
 248              		.cfi_startproc
 249              		@ args = 0, pretend = 0, frame = 8
 250              		@ frame_needed = 0, uses_anonymous_args = 0
  51:Core/Src/bsp_dwt.c ****     volatile uint32_t cnt_now = DWT->CYCCNT;
 251              		.loc 1 51 1 is_stmt 0 view .LVU52
 252 0000 D0B5     		push	{r4, r6, r7, lr}
 253              	.LCFI7:
 254              		.cfi_def_cfa_offset 16
 255              		.cfi_offset 4, -16
 256              		.cfi_offset 6, -12
 257              		.cfi_offset 7, -8
 258              		.cfi_offset 14, -4
 259 0002 2DED028B 		vpush.64	{d8}
 260              	.LCFI8:
 261              		.cfi_def_cfa_offset 24
 262              		.cfi_offset 80, -24
 263              		.cfi_offset 81, -20
 264 0006 82B0     		sub	sp, sp, #8
 265              	.LCFI9:
 266              		.cfi_def_cfa_offset 32
 267 0008 0446     		mov	r4, r0
  52:Core/Src/bsp_dwt.c ****     double dt = ((uint32_t)(cnt_now - *cnt_last)) / ((double)(CPU_FREQ_Hz));
 268              		.loc 1 52 5 is_stmt 1 view .LVU53
  52:Core/Src/bsp_dwt.c ****     double dt = ((uint32_t)(cnt_now - *cnt_last)) / ((double)(CPU_FREQ_Hz));
 269              		.loc 1 52 36 is_stmt 0 view .LVU54
 270 000a 114B     		ldr	r3, .L15
 271 000c 5B68     		ldr	r3, [r3, #4]
  52:Core/Src/bsp_dwt.c ****     double dt = ((uint32_t)(cnt_now - *cnt_last)) / ((double)(CPU_FREQ_Hz));
 272              		.loc 1 52 23 view .LVU55
 273 000e 0193     		str	r3, [sp, #4]
  53:Core/Src/bsp_dwt.c ****     *cnt_last = cnt_now;
 274              		.loc 1 53 5 is_stmt 1 view .LVU56
  53:Core/Src/bsp_dwt.c ****     *cnt_last = cnt_now;
 275              		.loc 1 53 37 is_stmt 0 view .LVU57
 276 0010 0198     		ldr	r0, [sp, #4]
 277              	.LVL7:
  53:Core/Src/bsp_dwt.c ****     *cnt_last = cnt_now;
 278              		.loc 1 53 39 view .LVU58
 279 0012 2368     		ldr	r3, [r4]
  53:Core/Src/bsp_dwt.c ****     *cnt_last = cnt_now;
 280              		.loc 1 53 51 view .LVU59
 281 0014 C01A     		subs	r0, r0, r3
 282 0016 FFF7FEFF 		bl	__aeabi_ui2d
 283              	.LVL8:
 284 001a 0646     		mov	r6, r0
 285 001c 0F46     		mov	r7, r1
  53:Core/Src/bsp_dwt.c ****     *cnt_last = cnt_now;
 286              		.loc 1 53 54 view .LVU60
 287 001e 0D4B     		ldr	r3, .L15+4
 288 0020 1868     		ldr	r0, [r3]
 289 0022 FFF7FEFF 		bl	__aeabi_ui2d
 290              	.LVL9:
ARM GAS  C:\Users\LENOVO\AppData\Local\Temp\ccBue5Hi.s 			page 9


 291 0026 0246     		mov	r2, r0
 292 0028 0B46     		mov	r3, r1
  53:Core/Src/bsp_dwt.c ****     *cnt_last = cnt_now;
 293              		.loc 1 53 12 view .LVU61
 294 002a 3046     		mov	r0, r6
 295 002c 3946     		mov	r1, r7
 296 002e FFF7FEFF 		bl	__aeabi_ddiv
 297              	.LVL10:
 298 0032 41EC180B 		vmov	d8, r0, r1
 299              	.LVL11:
  54:Core/Src/bsp_dwt.c **** 
 300              		.loc 1 54 5 is_stmt 1 view .LVU62
  54:Core/Src/bsp_dwt.c **** 
 301              		.loc 1 54 15 is_stmt 0 view .LVU63
 302 0036 019B     		ldr	r3, [sp, #4]
 303 0038 2360     		str	r3, [r4]
  56:Core/Src/bsp_dwt.c **** 
 304              		.loc 1 56 5 is_stmt 1 view .LVU64
 305 003a FFF7FEFF 		bl	DWT_CNT_Update
 306              	.LVL12:
  58:Core/Src/bsp_dwt.c **** }
 307              		.loc 1 58 5 view .LVU65
  59:Core/Src/bsp_dwt.c **** 
 308              		.loc 1 59 1 is_stmt 0 view .LVU66
 309 003e B0EE480A 		vmov.f32	s0, s16
 310 0042 F0EE680A 		vmov.f32	s1, s17
 311 0046 02B0     		add	sp, sp, #8
 312              	.LCFI10:
 313              		.cfi_def_cfa_offset 24
 314              		@ sp needed
 315 0048 BDEC028B 		vldm	sp!, {d8}
 316              	.LCFI11:
 317              		.cfi_restore 80
 318              		.cfi_restore 81
 319              		.cfi_def_cfa_offset 16
 320              	.LVL13:
  59:Core/Src/bsp_dwt.c **** 
 321              		.loc 1 59 1 view .LVU67
 322 004c D0BD     		pop	{r4, r6, r7, pc}
 323              	.LVL14:
 324              	.L16:
  59:Core/Src/bsp_dwt.c **** 
 325              		.loc 1 59 1 view .LVU68
 326 004e 00BF     		.align	2
 327              	.L15:
 328 0050 001000E0 		.word	-536866816
 329 0054 00000000 		.word	CPU_FREQ_Hz
 330              		.cfi_endproc
 331              	.LFE132:
 333              		.global	__aeabi_uldivmod
 334              		.section	.text.DWT_SysTimeUpdate,"ax",%progbits
 335              		.align	1
 336              		.global	DWT_SysTimeUpdate
 337              		.syntax unified
 338              		.thumb
 339              		.thumb_func
 341              	DWT_SysTimeUpdate:
ARM GAS  C:\Users\LENOVO\AppData\Local\Temp\ccBue5Hi.s 			page 10


 342              	.LFB133:
  62:Core/Src/bsp_dwt.c ****     volatile uint32_t cnt_now = DWT->CYCCNT;
 343              		.loc 1 62 1 is_stmt 1 view -0
 344              		.cfi_startproc
 345              		@ args = 0, pretend = 0, frame = 8
 346              		@ frame_needed = 0, uses_anonymous_args = 0
 347 0000 2DE9F041 		push	{r4, r5, r6, r7, r8, lr}
 348              	.LCFI12:
 349              		.cfi_def_cfa_offset 24
 350              		.cfi_offset 4, -24
 351              		.cfi_offset 5, -20
 352              		.cfi_offset 6, -16
 353              		.cfi_offset 7, -12
 354              		.cfi_offset 8, -8
 355              		.cfi_offset 14, -4
 356 0004 82B0     		sub	sp, sp, #8
 357              	.LCFI13:
 358              		.cfi_def_cfa_offset 32
  63:Core/Src/bsp_dwt.c ****     static uint64_t CNT_TEMP1, CNT_TEMP2, CNT_TEMP3;
 359              		.loc 1 63 5 view .LVU70
  63:Core/Src/bsp_dwt.c ****     static uint64_t CNT_TEMP1, CNT_TEMP2, CNT_TEMP3;
 360              		.loc 1 63 36 is_stmt 0 view .LVU71
 361 0006 294B     		ldr	r3, .L19
 362 0008 5B68     		ldr	r3, [r3, #4]
  63:Core/Src/bsp_dwt.c ****     static uint64_t CNT_TEMP1, CNT_TEMP2, CNT_TEMP3;
 363              		.loc 1 63 23 view .LVU72
 364 000a 0193     		str	r3, [sp, #4]
  64:Core/Src/bsp_dwt.c **** 
 365              		.loc 1 64 5 is_stmt 1 view .LVU73
  66:Core/Src/bsp_dwt.c **** 
 366              		.loc 1 66 5 view .LVU74
 367 000c FFF7FEFF 		bl	DWT_CNT_Update
 368              	.LVL15:
  68:Core/Src/bsp_dwt.c ****     CNT_TEMP1 = CYCCNT64 / CPU_FREQ_Hz;
 369              		.loc 1 68 5 view .LVU75
  68:Core/Src/bsp_dwt.c ****     CNT_TEMP1 = CYCCNT64 / CPU_FREQ_Hz;
 370              		.loc 1 68 16 is_stmt 0 view .LVU76
 371 0010 274B     		ldr	r3, .L19+4
 372 0012 1C68     		ldr	r4, [r3]
 373 0014 0026     		movs	r6, #0
  68:Core/Src/bsp_dwt.c ****     CNT_TEMP1 = CYCCNT64 / CPU_FREQ_Hz;
 374              		.loc 1 68 44 view .LVU77
 375 0016 6508     		lsrs	r5, r4, #1
 376 0018 E307     		lsls	r3, r4, #31
 377 001a 1B1B     		subs	r3, r3, r4
 378 001c 65F10005 		sbc	r5, r5, #0
 379 0020 DB18     		adds	r3, r3, r3
 380 0022 6D41     		adcs	r5, r5, r5
 381 0024 1C19     		adds	r4, r3, r4
 382 0026 45F10005 		adc	r5, r5, #0
  68:Core/Src/bsp_dwt.c ****     CNT_TEMP1 = CYCCNT64 / CPU_FREQ_Hz;
 383              		.loc 1 68 69 view .LVU78
 384 002a 019B     		ldr	r3, [sp, #4]
  68:Core/Src/bsp_dwt.c ****     CNT_TEMP1 = CYCCNT64 / CPU_FREQ_Hz;
 385              		.loc 1 68 67 view .LVU79
 386 002c E418     		adds	r4, r4, r3
 387 002e 45F10005 		adc	r5, r5, #0
ARM GAS  C:\Users\LENOVO\AppData\Local\Temp\ccBue5Hi.s 			page 11


  68:Core/Src/bsp_dwt.c ****     CNT_TEMP1 = CYCCNT64 / CPU_FREQ_Hz;
 388              		.loc 1 68 14 view .LVU80
 389 0032 204B     		ldr	r3, .L19+8
 390 0034 1C60     		str	r4, [r3]
 391 0036 5D60     		str	r5, [r3, #4]
  69:Core/Src/bsp_dwt.c ****     CNT_TEMP2 = CYCCNT64 - CNT_TEMP1 * CPU_FREQ_Hz;
 392              		.loc 1 69 5 is_stmt 1 view .LVU81
  69:Core/Src/bsp_dwt.c ****     CNT_TEMP2 = CYCCNT64 - CNT_TEMP1 * CPU_FREQ_Hz;
 393              		.loc 1 69 26 is_stmt 0 view .LVU82
 394 0038 1F4B     		ldr	r3, .L19+12
 395 003a D3F80080 		ldr	r8, [r3]
 396 003e 4246     		mov	r2, r8
 397 0040 3346     		mov	r3, r6
 398 0042 2046     		mov	r0, r4
 399 0044 2946     		mov	r1, r5
 400 0046 FFF7FEFF 		bl	__aeabi_uldivmod
 401              	.LVL16:
 402 004a 0746     		mov	r7, r0
  69:Core/Src/bsp_dwt.c ****     CNT_TEMP2 = CYCCNT64 - CNT_TEMP1 * CPU_FREQ_Hz;
 403              		.loc 1 69 15 view .LVU83
 404 004c 1B4B     		ldr	r3, .L19+16
 405 004e 1860     		str	r0, [r3]
 406 0050 5960     		str	r1, [r3, #4]
  70:Core/Src/bsp_dwt.c ****     SysTime.s = CNT_TEMP1;
 407              		.loc 1 70 5 is_stmt 1 view .LVU84
 408 0052 4246     		mov	r2, r8
 409 0054 3346     		mov	r3, r6
 410 0056 2046     		mov	r0, r4
 411 0058 2946     		mov	r1, r5
 412 005a FFF7FEFF 		bl	__aeabi_uldivmod
 413              	.LVL17:
 414 005e 1046     		mov	r0, r2
 415 0060 1C46     		mov	r4, r3
 416 0062 1546     		mov	r5, r2
  70:Core/Src/bsp_dwt.c ****     SysTime.s = CNT_TEMP1;
 417              		.loc 1 70 15 is_stmt 0 view .LVU85
 418 0064 164B     		ldr	r3, .L19+20
 419 0066 1A60     		str	r2, [r3]
 420 0068 5C60     		str	r4, [r3, #4]
  71:Core/Src/bsp_dwt.c ****     SysTime.ms = CNT_TEMP2 / CPU_FREQ_Hz_ms;
 421              		.loc 1 71 5 is_stmt 1 view .LVU86
  71:Core/Src/bsp_dwt.c ****     SysTime.ms = CNT_TEMP2 / CPU_FREQ_Hz_ms;
 422              		.loc 1 71 15 is_stmt 0 view .LVU87
 423 006a DFF86480 		ldr	r8, .L19+36
 424 006e C8F80070 		str	r7, [r8]
  72:Core/Src/bsp_dwt.c ****     CNT_TEMP3 = CNT_TEMP2 - SysTime.ms * CPU_FREQ_Hz_ms;
 425              		.loc 1 72 5 is_stmt 1 view .LVU88
  72:Core/Src/bsp_dwt.c ****     CNT_TEMP3 = CNT_TEMP2 - SysTime.ms * CPU_FREQ_Hz_ms;
 426              		.loc 1 72 28 is_stmt 0 view .LVU89
 427 0072 144B     		ldr	r3, .L19+24
 428 0074 1F68     		ldr	r7, [r3]
 429 0076 3A46     		mov	r2, r7
 430 0078 3346     		mov	r3, r6
 431 007a 2146     		mov	r1, r4
 432 007c FFF7FEFF 		bl	__aeabi_uldivmod
 433              	.LVL18:
  72:Core/Src/bsp_dwt.c ****     CNT_TEMP3 = CNT_TEMP2 - SysTime.ms * CPU_FREQ_Hz_ms;
ARM GAS  C:\Users\LENOVO\AppData\Local\Temp\ccBue5Hi.s 			page 12


 434              		.loc 1 72 16 view .LVU90
 435 0080 80B2     		uxth	r0, r0
 436 0082 A8F80400 		strh	r0, [r8, #4]	@ movhi
  73:Core/Src/bsp_dwt.c ****     SysTime.us = CNT_TEMP3 / CPU_FREQ_Hz_us;
 437              		.loc 1 73 5 is_stmt 1 view .LVU91
  73:Core/Src/bsp_dwt.c ****     SysTime.us = CNT_TEMP3 / CPU_FREQ_Hz_us;
 438              		.loc 1 73 40 is_stmt 0 view .LVU92
 439 0086 00FB07F7 		mul	r7, r0, r7
  73:Core/Src/bsp_dwt.c ****     SysTime.us = CNT_TEMP3 / CPU_FREQ_Hz_us;
 440              		.loc 1 73 27 view .LVU93
 441 008a E81B     		subs	r0, r5, r7
 442 008c 64F10001 		sbc	r1, r4, #0
  73:Core/Src/bsp_dwt.c ****     SysTime.us = CNT_TEMP3 / CPU_FREQ_Hz_us;
 443              		.loc 1 73 15 view .LVU94
 444 0090 0D4B     		ldr	r3, .L19+28
 445 0092 1860     		str	r0, [r3]
 446 0094 5960     		str	r1, [r3, #4]
  74:Core/Src/bsp_dwt.c **** }
 447              		.loc 1 74 5 is_stmt 1 view .LVU95
  74:Core/Src/bsp_dwt.c **** }
 448              		.loc 1 74 28 is_stmt 0 view .LVU96
 449 0096 0D4B     		ldr	r3, .L19+32
 450 0098 1A68     		ldr	r2, [r3]
 451 009a 3346     		mov	r3, r6
 452 009c FFF7FEFF 		bl	__aeabi_uldivmod
 453              	.LVL19:
  74:Core/Src/bsp_dwt.c **** }
 454              		.loc 1 74 16 view .LVU97
 455 00a0 A8F80600 		strh	r0, [r8, #6]	@ movhi
  75:Core/Src/bsp_dwt.c **** 
 456              		.loc 1 75 1 view .LVU98
 457 00a4 02B0     		add	sp, sp, #8
 458              	.LCFI14:
 459              		.cfi_def_cfa_offset 24
 460              		@ sp needed
 461 00a6 BDE8F081 		pop	{r4, r5, r6, r7, r8, pc}
 462              	.L20:
 463 00aa 00BF     		.align	2
 464              	.L19:
 465 00ac 001000E0 		.word	-536866816
 466 00b0 00000000 		.word	CYCCNT_RountCount
 467 00b4 00000000 		.word	CYCCNT64
 468 00b8 00000000 		.word	CPU_FREQ_Hz
 469 00bc 00000000 		.word	CNT_TEMP1.2
 470 00c0 00000000 		.word	CNT_TEMP2.1
 471 00c4 00000000 		.word	CPU_FREQ_Hz_ms
 472 00c8 00000000 		.word	CNT_TEMP3.0
 473 00cc 00000000 		.word	CPU_FREQ_Hz_us
 474 00d0 00000000 		.word	SysTime
 475              		.cfi_endproc
 476              	.LFE133:
 478              		.section	.text.DWT_GetTimeline_s,"ax",%progbits
 479              		.align	1
 480              		.global	DWT_GetTimeline_s
 481              		.syntax unified
 482              		.thumb
 483              		.thumb_func
ARM GAS  C:\Users\LENOVO\AppData\Local\Temp\ccBue5Hi.s 			page 13


 485              	DWT_GetTimeline_s:
 486              	.LFB134:
  78:Core/Src/bsp_dwt.c ****     DWT_SysTimeUpdate();
 487              		.loc 1 78 1 is_stmt 1 view -0
 488              		.cfi_startproc
 489              		@ args = 0, pretend = 0, frame = 0
 490              		@ frame_needed = 0, uses_anonymous_args = 0
 491 0000 08B5     		push	{r3, lr}
 492              	.LCFI15:
 493              		.cfi_def_cfa_offset 8
 494              		.cfi_offset 3, -8
 495              		.cfi_offset 14, -4
  79:Core/Src/bsp_dwt.c **** 
 496              		.loc 1 79 5 view .LVU100
 497 0002 FFF7FEFF 		bl	DWT_SysTimeUpdate
 498              	.LVL20:
  81:Core/Src/bsp_dwt.c **** 
 499              		.loc 1 81 5 view .LVU101
  81:Core/Src/bsp_dwt.c **** 
 500              		.loc 1 81 36 is_stmt 0 view .LVU102
 501 0006 0E4B     		ldr	r3, .L23
  81:Core/Src/bsp_dwt.c **** 
 502              		.loc 1 81 48 view .LVU103
 503 0008 9A88     		ldrh	r2, [r3, #4]
 504 000a 07EE902A 		vmov	s15, r2	@ int
  81:Core/Src/bsp_dwt.c **** 
 505              		.loc 1 81 52 view .LVU104
 506 000e F8EEE77A 		vcvt.f32.s32	s15, s15
 507 0012 9FED0C7A 		vldr.32	s14, .L23+4
 508 0016 67EE877A 		vmul.f32	s15, s15, s14
  81:Core/Src/bsp_dwt.c **** 
 509              		.loc 1 81 39 view .LVU105
 510 001a 93ED007A 		vldr.32	s14, [r3]	@ int
 511 001e B8EE470A 		vcvt.f32.u32	s0, s14
 512 0022 30EE270A 		vadd.f32	s0, s0, s15
  81:Core/Src/bsp_dwt.c **** 
 513              		.loc 1 81 70 view .LVU106
 514 0026 DB88     		ldrh	r3, [r3, #6]
 515 0028 07EE903A 		vmov	s15, r3	@ int
  81:Core/Src/bsp_dwt.c **** 
 516              		.loc 1 81 74 view .LVU107
 517 002c F8EEE77A 		vcvt.f32.s32	s15, s15
 518 0030 9FED057A 		vldr.32	s14, .L23+8
 519 0034 67EE877A 		vmul.f32	s15, s15, s14
 520              	.LVL21:
  83:Core/Src/bsp_dwt.c **** }
 521              		.loc 1 83 5 is_stmt 1 view .LVU108
  84:Core/Src/bsp_dwt.c **** 
 522              		.loc 1 84 1 is_stmt 0 view .LVU109
 523 0038 30EE270A 		vadd.f32	s0, s0, s15
 524              	.LVL22:
  84:Core/Src/bsp_dwt.c **** 
 525              		.loc 1 84 1 view .LVU110
 526 003c 08BD     		pop	{r3, pc}
 527              	.L24:
 528 003e 00BF     		.align	2
 529              	.L23:
ARM GAS  C:\Users\LENOVO\AppData\Local\Temp\ccBue5Hi.s 			page 14


 530 0040 00000000 		.word	SysTime
 531 0044 6F12833A 		.word	981668463
 532 0048 BD378635 		.word	897988541
 533              		.cfi_endproc
 534              	.LFE134:
 536              		.section	.text.DWT_GetTimeline_ms,"ax",%progbits
 537              		.align	1
 538              		.global	DWT_GetTimeline_ms
 539              		.syntax unified
 540              		.thumb
 541              		.thumb_func
 543              	DWT_GetTimeline_ms:
 544              	.LFB135:
  87:Core/Src/bsp_dwt.c ****     DWT_SysTimeUpdate();
 545              		.loc 1 87 1 is_stmt 1 view -0
 546              		.cfi_startproc
 547              		@ args = 0, pretend = 0, frame = 0
 548              		@ frame_needed = 0, uses_anonymous_args = 0
 549 0000 08B5     		push	{r3, lr}
 550              	.LCFI16:
 551              		.cfi_def_cfa_offset 8
 552              		.cfi_offset 3, -8
 553              		.cfi_offset 14, -4
  88:Core/Src/bsp_dwt.c **** 
 554              		.loc 1 88 5 view .LVU112
 555 0002 FFF7FEFF 		bl	DWT_SysTimeUpdate
 556              	.LVL23:
  90:Core/Src/bsp_dwt.c **** 
 557              		.loc 1 90 5 view .LVU113
  90:Core/Src/bsp_dwt.c **** 
 558              		.loc 1 90 36 is_stmt 0 view .LVU114
 559 0006 0B4A     		ldr	r2, .L27
 560 0008 1168     		ldr	r1, [r2]
  90:Core/Src/bsp_dwt.c **** 
 561              		.loc 1 90 55 view .LVU115
 562 000a 9388     		ldrh	r3, [r2, #4]
  90:Core/Src/bsp_dwt.c **** 
 563              		.loc 1 90 46 view .LVU116
 564 000c 4FF47A70 		mov	r0, #1000
 565 0010 00FB0133 		mla	r3, r0, r1, r3
 566 0014 00EE103A 		vmov	s0, r3	@ int
  90:Core/Src/bsp_dwt.c **** 
 567              		.loc 1 90 59 view .LVU117
 568 0018 B8EE400A 		vcvt.f32.u32	s0, s0
  90:Core/Src/bsp_dwt.c **** 
 569              		.loc 1 90 68 view .LVU118
 570 001c D388     		ldrh	r3, [r2, #6]
 571 001e 07EE903A 		vmov	s15, r3	@ int
  90:Core/Src/bsp_dwt.c **** 
 572              		.loc 1 90 72 view .LVU119
 573 0022 F8EEE77A 		vcvt.f32.s32	s15, s15
 574 0026 9FED047A 		vldr.32	s14, .L27+4
 575 002a 67EE877A 		vmul.f32	s15, s15, s14
 576              	.LVL24:
  92:Core/Src/bsp_dwt.c **** }
 577              		.loc 1 92 5 is_stmt 1 view .LVU120
  93:Core/Src/bsp_dwt.c **** 
ARM GAS  C:\Users\LENOVO\AppData\Local\Temp\ccBue5Hi.s 			page 15


 578              		.loc 1 93 1 is_stmt 0 view .LVU121
 579 002e 30EE270A 		vadd.f32	s0, s0, s15
 580              	.LVL25:
  93:Core/Src/bsp_dwt.c **** 
 581              		.loc 1 93 1 view .LVU122
 582 0032 08BD     		pop	{r3, pc}
 583              	.L28:
 584              		.align	2
 585              	.L27:
 586 0034 00000000 		.word	SysTime
 587 0038 6F12833A 		.word	981668463
 588              		.cfi_endproc
 589              	.LFE135:
 591              		.section	.text.DWT_GetTimeline_ms_int32,"ax",%progbits
 592              		.align	1
 593              		.global	DWT_GetTimeline_ms_int32
 594              		.syntax unified
 595              		.thumb
 596              		.thumb_func
 598              	DWT_GetTimeline_ms_int32:
 599              	.LFB136:
  96:Core/Src/bsp_dwt.c ****     DWT_SysTimeUpdate();
 600              		.loc 1 96 1 is_stmt 1 view -0
 601              		.cfi_startproc
 602              		@ args = 0, pretend = 0, frame = 0
 603              		@ frame_needed = 0, uses_anonymous_args = 0
 604 0000 08B5     		push	{r3, lr}
 605              	.LCFI17:
 606              		.cfi_def_cfa_offset 8
 607              		.cfi_offset 3, -8
 608              		.cfi_offset 14, -4
  97:Core/Src/bsp_dwt.c ****     uint32_t DWT_Timelinef32;
 609              		.loc 1 97 5 view .LVU124
 610 0002 FFF7FEFF 		bl	DWT_SysTimeUpdate
 611              	.LVL26:
  98:Core/Src/bsp_dwt.c ****     if (SysTime.us >= 500)
 612              		.loc 1 98 5 view .LVU125
  99:Core/Src/bsp_dwt.c ****         DWT_Timelinef32 = SysTime.s * 1000 + SysTime.ms + 1;
 613              		.loc 1 99 5 view .LVU126
  99:Core/Src/bsp_dwt.c ****         DWT_Timelinef32 = SysTime.s * 1000 + SysTime.ms + 1;
 614              		.loc 1 99 16 is_stmt 0 view .LVU127
 615 0006 0B4B     		ldr	r3, .L33
 616 0008 DB88     		ldrh	r3, [r3, #6]
  99:Core/Src/bsp_dwt.c ****         DWT_Timelinef32 = SysTime.s * 1000 + SysTime.ms + 1;
 617              		.loc 1 99 8 view .LVU128
 618 000a B3F5FA7F 		cmp	r3, #500
 619 000e 08D3     		bcc	.L30
 100:Core/Src/bsp_dwt.c ****     else
 620              		.loc 1 100 9 is_stmt 1 view .LVU129
 100:Core/Src/bsp_dwt.c ****     else
 621              		.loc 1 100 34 is_stmt 0 view .LVU130
 622 0010 084B     		ldr	r3, .L33
 623 0012 1A68     		ldr	r2, [r3]
 100:Core/Src/bsp_dwt.c ****     else
 624              		.loc 1 100 53 view .LVU131
 625 0014 9888     		ldrh	r0, [r3, #4]
 100:Core/Src/bsp_dwt.c ****     else
ARM GAS  C:\Users\LENOVO\AppData\Local\Temp\ccBue5Hi.s 			page 16


 626              		.loc 1 100 44 view .LVU132
 627 0016 4FF47A73 		mov	r3, #1000
 628 001a 03FB0200 		mla	r0, r3, r2, r0
 100:Core/Src/bsp_dwt.c ****     else
 629              		.loc 1 100 25 view .LVU133
 630 001e 0130     		adds	r0, r0, #1
 631              	.LVL27:
 632              	.L29:
 105:Core/Src/bsp_dwt.c **** 
 633              		.loc 1 105 1 view .LVU134
 634 0020 08BD     		pop	{r3, pc}
 635              	.LVL28:
 636              	.L30:
 102:Core/Src/bsp_dwt.c **** 
 637              		.loc 1 102 9 is_stmt 1 view .LVU135
 102:Core/Src/bsp_dwt.c **** 
 638              		.loc 1 102 34 is_stmt 0 view .LVU136
 639 0022 044B     		ldr	r3, .L33
 640 0024 1A68     		ldr	r2, [r3]
 102:Core/Src/bsp_dwt.c **** 
 641              		.loc 1 102 53 view .LVU137
 642 0026 9888     		ldrh	r0, [r3, #4]
 102:Core/Src/bsp_dwt.c **** 
 643              		.loc 1 102 25 view .LVU138
 644 0028 4FF47A73 		mov	r3, #1000
 645 002c 03FB0200 		mla	r0, r3, r2, r0
 646              	.LVL29:
 104:Core/Src/bsp_dwt.c **** }
 647              		.loc 1 104 5 is_stmt 1 view .LVU139
 104:Core/Src/bsp_dwt.c **** }
 648              		.loc 1 104 12 is_stmt 0 view .LVU140
 649 0030 F6E7     		b	.L29
 650              	.L34:
 651 0032 00BF     		.align	2
 652              	.L33:
 653 0034 00000000 		.word	SysTime
 654              		.cfi_endproc
 655              	.LFE136:
 657              		.section	.text.DWT_GetTimeline_us,"ax",%progbits
 658              		.align	1
 659              		.global	DWT_GetTimeline_us
 660              		.syntax unified
 661              		.thumb
 662              		.thumb_func
 664              	DWT_GetTimeline_us:
 665              	.LFB137:
 108:Core/Src/bsp_dwt.c ****     DWT_SysTimeUpdate();
 666              		.loc 1 108 1 is_stmt 1 view -0
 667              		.cfi_startproc
 668              		@ args = 0, pretend = 0, frame = 0
 669              		@ frame_needed = 0, uses_anonymous_args = 0
 670 0000 08B5     		push	{r3, lr}
 671              	.LCFI18:
 672              		.cfi_def_cfa_offset 8
 673              		.cfi_offset 3, -8
 674              		.cfi_offset 14, -4
 109:Core/Src/bsp_dwt.c **** 
ARM GAS  C:\Users\LENOVO\AppData\Local\Temp\ccBue5Hi.s 			page 17


 675              		.loc 1 109 5 view .LVU142
 676 0002 FFF7FEFF 		bl	DWT_SysTimeUpdate
 677              	.LVL30:
 111:Core/Src/bsp_dwt.c **** 
 678              		.loc 1 111 5 view .LVU143
 111:Core/Src/bsp_dwt.c **** 
 679              		.loc 1 111 39 is_stmt 0 view .LVU144
 680 0006 074A     		ldr	r2, .L37
 681 0008 1168     		ldr	r1, [r2]
 111:Core/Src/bsp_dwt.c **** 
 682              		.loc 1 111 61 view .LVU145
 683 000a 9388     		ldrh	r3, [r2, #4]
 111:Core/Src/bsp_dwt.c **** 
 684              		.loc 1 111 65 view .LVU146
 685 000c 4FF47A70 		mov	r0, #1000
 686 0010 00FB03F3 		mul	r3, r0, r3
 111:Core/Src/bsp_dwt.c **** 
 687              		.loc 1 111 52 view .LVU147
 688 0014 0448     		ldr	r0, .L37+4
 689 0016 00FB0133 		mla	r3, r0, r1, r3
 111:Core/Src/bsp_dwt.c **** 
 690              		.loc 1 111 81 view .LVU148
 691 001a D088     		ldrh	r0, [r2, #6]
 692              	.LVL31:
 113:Core/Src/bsp_dwt.c **** }
 693              		.loc 1 113 5 is_stmt 1 view .LVU149
 114:Core/Src/bsp_dwt.c **** 
 694              		.loc 1 114 1 is_stmt 0 view .LVU150
 695 001c 1844     		add	r0, r0, r3
 696              	.LVL32:
 114:Core/Src/bsp_dwt.c **** 
 697              		.loc 1 114 1 view .LVU151
 698 001e 0021     		movs	r1, #0
 699 0020 08BD     		pop	{r3, pc}
 700              	.L38:
 701 0022 00BF     		.align	2
 702              	.L37:
 703 0024 00000000 		.word	SysTime
 704 0028 40420F00 		.word	1000000
 705              		.cfi_endproc
 706              	.LFE137:
 708              		.section	.text.DWT_Delay,"ax",%progbits
 709              		.align	1
 710              		.global	DWT_Delay
 711              		.syntax unified
 712              		.thumb
 713              		.thumb_func
 715              	DWT_Delay:
 716              	.LVL33:
 717              	.LFB139:
 125:Core/Src/bsp_dwt.c **** 
 126:Core/Src/bsp_dwt.c **** void DWT_Delay(float Delay)
 127:Core/Src/bsp_dwt.c **** {
 718              		.loc 1 127 1 is_stmt 1 view -0
 719              		.cfi_startproc
 720              		@ args = 0, pretend = 0, frame = 0
 721              		@ frame_needed = 0, uses_anonymous_args = 0
ARM GAS  C:\Users\LENOVO\AppData\Local\Temp\ccBue5Hi.s 			page 18


 722              		@ link register save eliminated.
 128:Core/Src/bsp_dwt.c ****     uint32_t tickstart = DWT->CYCCNT;
 723              		.loc 1 128 5 view .LVU153
 724              		.loc 1 128 14 is_stmt 0 view .LVU154
 725 0000 0A4B     		ldr	r3, .L41
 726 0002 5968     		ldr	r1, [r3, #4]
 727              	.LVL34:
 129:Core/Src/bsp_dwt.c ****     float wait = Delay;
 728              		.loc 1 129 5 is_stmt 1 view .LVU155
 130:Core/Src/bsp_dwt.c **** 
 131:Core/Src/bsp_dwt.c ****     while ((DWT->CYCCNT - tickstart) < wait * (float)CPU_FREQ_Hz)
 729              		.loc 1 131 5 view .LVU156
 730              	.L40:
 132:Core/Src/bsp_dwt.c ****     {
 133:Core/Src/bsp_dwt.c ****     }
 731              		.loc 1 133 5 view .LVU157
 131:Core/Src/bsp_dwt.c ****     {
 732              		.loc 1 131 38 discriminator 1 view .LVU158
 131:Core/Src/bsp_dwt.c ****     {
 733              		.loc 1 131 16 is_stmt 0 discriminator 1 view .LVU159
 734 0004 094B     		ldr	r3, .L41
 735 0006 5B68     		ldr	r3, [r3, #4]
 131:Core/Src/bsp_dwt.c ****     {
 736              		.loc 1 131 25 discriminator 1 view .LVU160
 737 0008 5B1A     		subs	r3, r3, r1
 131:Core/Src/bsp_dwt.c ****     {
 738              		.loc 1 131 47 discriminator 1 view .LVU161
 739 000a 094A     		ldr	r2, .L41+4
 740 000c D2ED007A 		vldr.32	s15, [r2]	@ int
 741 0010 F8EE677A 		vcvt.f32.u32	s15, s15
 131:Core/Src/bsp_dwt.c ****     {
 742              		.loc 1 131 45 discriminator 1 view .LVU162
 743 0014 67EE807A 		vmul.f32	s15, s15, s0
 131:Core/Src/bsp_dwt.c ****     {
 744              		.loc 1 131 38 discriminator 1 view .LVU163
 745 0018 07EE103A 		vmov	s14, r3	@ int
 746 001c B8EE477A 		vcvt.f32.u32	s14, s14
 747 0020 B4EEE77A 		vcmpe.f32	s14, s15
 748 0024 F1EE10FA 		vmrs	APSR_nzcv, FPSCR
 749 0028 ECD4     		bmi	.L40
 134:Core/Src/bsp_dwt.c **** }
 750              		.loc 1 134 1 view .LVU164
 751 002a 7047     		bx	lr
 752              	.L42:
 753              		.align	2
 754              	.L41:
 755 002c 001000E0 		.word	-536866816
 756 0030 00000000 		.word	CPU_FREQ_Hz
 757              		.cfi_endproc
 758              	.LFE139:
 760              		.section	.bss.CNT_TEMP3.0,"aw",%nobits
 761              		.align	3
 764              	CNT_TEMP3.0:
 765 0000 00000000 		.space	8
 765      00000000 
 766              		.section	.bss.CNT_TEMP2.1,"aw",%nobits
 767              		.align	3
ARM GAS  C:\Users\LENOVO\AppData\Local\Temp\ccBue5Hi.s 			page 19


 770              	CNT_TEMP2.1:
 771 0000 00000000 		.space	8
 771      00000000 
 772              		.section	.bss.CNT_TEMP1.2,"aw",%nobits
 773              		.align	3
 776              	CNT_TEMP1.2:
 777 0000 00000000 		.space	8
 777      00000000 
 778              		.global	CYCCNT64
 779              		.section	.bss.CYCCNT64,"aw",%nobits
 780              		.align	3
 783              	CYCCNT64:
 784 0000 00000000 		.space	8
 784      00000000 
 785              		.section	.bss.CYCCNT_LAST,"aw",%nobits
 786              		.align	2
 789              	CYCCNT_LAST:
 790 0000 00000000 		.space	4
 791              		.section	.bss.CYCCNT_RountCount,"aw",%nobits
 792              		.align	2
 795              	CYCCNT_RountCount:
 796 0000 00000000 		.space	4
 797              		.section	.bss.CPU_FREQ_Hz_us,"aw",%nobits
 798              		.align	2
 801              	CPU_FREQ_Hz_us:
 802 0000 00000000 		.space	4
 803              		.section	.bss.CPU_FREQ_Hz_ms,"aw",%nobits
 804              		.align	2
 807              	CPU_FREQ_Hz_ms:
 808 0000 00000000 		.space	4
 809              		.section	.bss.CPU_FREQ_Hz,"aw",%nobits
 810              		.align	2
 813              	CPU_FREQ_Hz:
 814 0000 00000000 		.space	4
 815              		.global	SysTime
 816              		.section	.bss.SysTime,"aw",%nobits
 817              		.align	2
 820              	SysTime:
 821 0000 00000000 		.space	8
 821      00000000 
 822              		.text
 823              	.Letext0:
 824              		.file 2 "C:/msys64/mingw64/arm-none-eabi/include/machine/_default_types.h"
 825              		.file 3 "C:/msys64/mingw64/arm-none-eabi/include/sys/_stdint.h"
 826              		.file 4 "Drivers/CMSIS/Include/core_cm4.h"
 827              		.file 5 "Core/Inc/bsp_dwt.h"
ARM GAS  C:\Users\LENOVO\AppData\Local\Temp\ccBue5Hi.s 			page 20

