ARM GAS  C:\Users\LENOVO\AppData\Local\Temp\ccrZ9VH8.s 			page 1


   1              		.cpu cortex-m4
   2              		.arch armv7e-m
   3              		.fpu fpv4-sp-d16
   4              		.eabi_attribute 27, 1
   5              		.eabi_attribute 28, 1
   6              		.eabi_attribute 20, 1
   7              		.eabi_attribute 21, 1
   8              		.eabi_attribute 23, 3
   9              		.eabi_attribute 24, 1
  10              		.eabi_attribute 25, 1
  11              		.eabi_attribute 26, 1
  12              		.eabi_attribute 30, 1
  13              		.eabi_attribute 34, 1
  14              		.eabi_attribute 18, 4
  15              		.file	"bsp_PWM.c"
  16              		.text
  17              	.Ltext0:
  18              		.cfi_sections	.debug_frame
  19              		.file 1 "Bsp/MCU/bsp_PWM.c"
  20              		.section	.text.TIM_Set_PWM,"ax",%progbits
  21              		.align	1
  22              		.global	TIM_Set_PWM
  23              		.syntax unified
  24              		.thumb
  25              		.thumb_func
  27              	TIM_Set_PWM:
  28              	.LVL0:
  29              	.LFB130:
   1:Bsp/MCU/bsp_PWM.c **** /**
   2:Bsp/MCU/bsp_PWM.c ****   ******************************************************************************
   3:Bsp/MCU/bsp_PWM.c ****   * @file	 bsp_PWM.c
   4:Bsp/MCU/bsp_PWM.c ****   * @author  Wang Hongxi
   5:Bsp/MCU/bsp_PWM.c ****   * @version V1.0.0
   6:Bsp/MCU/bsp_PWM.c ****   * @date    2020/3/1
   7:Bsp/MCU/bsp_PWM.c ****   * @brief   
   8:Bsp/MCU/bsp_PWM.c ****   ******************************************************************************
   9:Bsp/MCU/bsp_PWM.c ****   * @attention
  10:Bsp/MCU/bsp_PWM.c ****   *
  11:Bsp/MCU/bsp_PWM.c ****   ******************************************************************************
  12:Bsp/MCU/bsp_PWM.c ****   */
  13:Bsp/MCU/bsp_PWM.c **** #include "bsp_PWM.h"
  14:Bsp/MCU/bsp_PWM.c **** 
  15:Bsp/MCU/bsp_PWM.c **** void TIM_Set_PWM(TIM_HandleTypeDef *tim_pwmHandle, uint8_t Channel, uint16_t value)
  16:Bsp/MCU/bsp_PWM.c **** {
  30              		.loc 1 16 1 view -0
  31              		.cfi_startproc
  32              		@ args = 0, pretend = 0, frame = 0
  33              		@ frame_needed = 0, uses_anonymous_args = 0
  34              		@ link register save eliminated.
  17:Bsp/MCU/bsp_PWM.c ****     if (value > tim_pwmHandle->Instance->ARR)
  35              		.loc 1 17 5 view .LVU1
  36              		.loc 1 17 30 is_stmt 0 view .LVU2
  37 0000 0368     		ldr	r3, [r0]
  38              		.loc 1 17 40 view .LVU3
  39 0002 D86A     		ldr	r0, [r3, #44]
  40              	.LVL1:
  41              		.loc 1 17 8 view .LVU4
ARM GAS  C:\Users\LENOVO\AppData\Local\Temp\ccrZ9VH8.s 			page 2


  42 0004 8242     		cmp	r2, r0
  43 0006 01D9     		bls	.L2
  18:Bsp/MCU/bsp_PWM.c ****         value = tim_pwmHandle->Instance->ARR;
  44              		.loc 1 18 9 is_stmt 1 view .LVU5
  45              		.loc 1 18 40 is_stmt 0 view .LVU6
  46 0008 DA6A     		ldr	r2, [r3, #44]
  47              	.LVL2:
  48              		.loc 1 18 15 view .LVU7
  49 000a 92B2     		uxth	r2, r2
  50              	.LVL3:
  51              	.L2:
  19:Bsp/MCU/bsp_PWM.c **** 
  20:Bsp/MCU/bsp_PWM.c ****     switch (Channel)
  52              		.loc 1 20 5 is_stmt 1 view .LVU8
  53 000c 0C29     		cmp	r1, #12
  54 000e 0FD8     		bhi	.L1
  55 0010 DFE801F0 		tbb	[pc, r1]
  56              	.L5:
  57 0014 07       		.byte	(.L8-.L5)/2
  58 0015 0E       		.byte	(.L1-.L5)/2
  59 0016 0E       		.byte	(.L1-.L5)/2
  60 0017 0E       		.byte	(.L1-.L5)/2
  61 0018 09       		.byte	(.L7-.L5)/2
  62 0019 0E       		.byte	(.L1-.L5)/2
  63 001a 0E       		.byte	(.L1-.L5)/2
  64 001b 0E       		.byte	(.L1-.L5)/2
  65 001c 0B       		.byte	(.L6-.L5)/2
  66 001d 0E       		.byte	(.L1-.L5)/2
  67 001e 0E       		.byte	(.L1-.L5)/2
  68 001f 0E       		.byte	(.L1-.L5)/2
  69 0020 0D       		.byte	(.L4-.L5)/2
  70 0021 00       		.p2align 1
  71              	.L8:
  21:Bsp/MCU/bsp_PWM.c ****     {
  22:Bsp/MCU/bsp_PWM.c ****     case TIM_CHANNEL_1:
  23:Bsp/MCU/bsp_PWM.c ****         tim_pwmHandle->Instance->CCR1 = value;
  72              		.loc 1 23 9 view .LVU9
  73              		.loc 1 23 39 is_stmt 0 view .LVU10
  74 0022 5A63     		str	r2, [r3, #52]
  24:Bsp/MCU/bsp_PWM.c ****         break;
  75              		.loc 1 24 9 is_stmt 1 view .LVU11
  76 0024 7047     		bx	lr
  77              	.L7:
  25:Bsp/MCU/bsp_PWM.c ****     case TIM_CHANNEL_2:
  26:Bsp/MCU/bsp_PWM.c ****         tim_pwmHandle->Instance->CCR2 = value;
  78              		.loc 1 26 9 view .LVU12
  79              		.loc 1 26 39 is_stmt 0 view .LVU13
  80 0026 9A63     		str	r2, [r3, #56]
  27:Bsp/MCU/bsp_PWM.c ****         break;
  81              		.loc 1 27 9 is_stmt 1 view .LVU14
  82 0028 7047     		bx	lr
  83              	.L6:
  28:Bsp/MCU/bsp_PWM.c ****     case TIM_CHANNEL_3:
  29:Bsp/MCU/bsp_PWM.c ****         tim_pwmHandle->Instance->CCR3 = value;
  84              		.loc 1 29 9 view .LVU15
  85              		.loc 1 29 39 is_stmt 0 view .LVU16
  86 002a DA63     		str	r2, [r3, #60]
ARM GAS  C:\Users\LENOVO\AppData\Local\Temp\ccrZ9VH8.s 			page 3


  30:Bsp/MCU/bsp_PWM.c ****         break;
  87              		.loc 1 30 9 is_stmt 1 view .LVU17
  88 002c 7047     		bx	lr
  89              	.L4:
  31:Bsp/MCU/bsp_PWM.c ****     case TIM_CHANNEL_4:
  32:Bsp/MCU/bsp_PWM.c ****         tim_pwmHandle->Instance->CCR4 = value;
  90              		.loc 1 32 9 view .LVU18
  91              		.loc 1 32 39 is_stmt 0 view .LVU19
  92 002e 1A64     		str	r2, [r3, #64]
  33:Bsp/MCU/bsp_PWM.c ****         break;
  93              		.loc 1 33 9 is_stmt 1 view .LVU20
  94              	.L1:
  34:Bsp/MCU/bsp_PWM.c ****     }
  35:Bsp/MCU/bsp_PWM.c **** }
  95              		.loc 1 35 1 is_stmt 0 view .LVU21
  96 0030 7047     		bx	lr
  97              		.cfi_endproc
  98              	.LFE130:
 100              		.text
 101              	.Letext0:
 102              		.file 2 "C:/msys64/mingw64/arm-none-eabi/include/machine/_default_types.h"
 103              		.file 3 "C:/msys64/mingw64/arm-none-eabi/include/sys/_stdint.h"
 104              		.file 4 "Drivers/CMSIS/Device/ST/STM32F4xx/Include/stm32f407xx.h"
 105              		.file 5 "Drivers/STM32F4xx_HAL_Driver/Inc/stm32f4xx_hal_def.h"
 106              		.file 6 "Drivers/STM32F4xx_HAL_Driver/Inc/stm32f4xx_hal_dma.h"
 107              		.file 7 "Drivers/STM32F4xx_HAL_Driver/Inc/stm32f4xx_hal_tim.h"
ARM GAS  C:\Users\LENOVO\AppData\Local\Temp\ccrZ9VH8.s 			page 4


DEFINED SYMBOLS
                            *ABS*:00000000 bsp_PWM.c
C:\Users\LENOVO\AppData\Local\Temp\ccrZ9VH8.s:21     .text.TIM_Set_PWM:00000000 $t
C:\Users\LENOVO\AppData\Local\Temp\ccrZ9VH8.s:27     .text.TIM_Set_PWM:00000000 TIM_Set_PWM
C:\Users\LENOVO\AppData\Local\Temp\ccrZ9VH8.s:57     .text.TIM_Set_PWM:00000014 $d
C:\Users\LENOVO\AppData\Local\Temp\ccrZ9VH8.s:70     .text.TIM_Set_PWM:00000021 $d
C:\Users\LENOVO\AppData\Local\Temp\ccrZ9VH8.s:70     .text.TIM_Set_PWM:00000022 $t

NO UNDEFINED SYMBOLS
