ARM GAS  C:\Users\LENOVO\AppData\Local\Temp\ccqW8RyF.s 			page 1


   1              		.cpu cortex-m4
   2              		.arch armv7e-m
   3              		.fpu fpv4-sp-d16
   4              		.eabi_attribute 27, 1
   5              		.eabi_attribute 28, 1
   6              		.eabi_attribute 20, 1
   7              		.eabi_attribute 21, 1
   8              		.eabi_attribute 23, 3
   9              		.eabi_attribute 24, 1
  10              		.eabi_attribute 25, 1
  11              		.eabi_attribute 26, 1
  12              		.eabi_attribute 30, 1
  13              		.eabi_attribute 34, 1
  14              		.eabi_attribute 18, 4
  15              		.file	"chassis_task.c"
  16              		.text
  17              	.Ltext0:
  18              		.cfi_sections	.debug_frame
  19              		.file 1 "Application/ChassisTask/chassis_task.c"
  20              		.section	.text.Max_4,"ax",%progbits
  21              		.align	1
  22              		.syntax unified
  23              		.thumb
  24              		.thumb_func
  26              	Max_4:
  27              	.LVL0:
  28              	.LFB174:
   1:Application/ChassisTask/chassis_task.c **** #include "chassis_task.h"
   2:Application/ChassisTask/chassis_task.c **** #include "detect_task.h"
   3:Application/ChassisTask/chassis_task.c **** #include "QuaternionAHRS.h"
   4:Application/ChassisTask/chassis_task.c **** 
   5:Application/ChassisTask/chassis_task.c **** Chassis_t Chassis = {0};
   6:Application/ChassisTask/chassis_task.c **** uint32_t Chassis_DWT_Count = 0;
   7:Application/ChassisTask/chassis_task.c **** 
   8:Application/ChassisTask/chassis_task.c **** float MAX_RPM = 8000;
   9:Application/ChassisTask/chassis_task.c **** float Vx_k = 2000;
  10:Application/ChassisTask/chassis_task.c **** float Vy_k = 2000;
  11:Application/ChassisTask/chassis_task.c **** 
  12:Application/ChassisTask/chassis_task.c **** static float dt = 0;
  13:Application/ChassisTask/chassis_task.c **** 
  14:Application/ChassisTask/chassis_task.c **** static void Chassis_Set_Mode(void);
  15:Application/ChassisTask/chassis_task.c **** static void Chassis_Get_CtrlValue(void);
  16:Application/ChassisTask/chassis_task.c **** static void Chassis_Set_Control(void);
  17:Application/ChassisTask/chassis_task.c **** static void Send_Chassis_Current(void);
  18:Application/ChassisTask/chassis_task.c **** static float Max_4(float num1, float num2, float num3, float num4);
  19:Application/ChassisTask/chassis_task.c **** static void Velocity_MAXLimit(void);
  20:Application/ChassisTask/chassis_task.c **** 
  21:Application/ChassisTask/chassis_task.c **** void Chassis_Init(void)
  22:Application/ChassisTask/chassis_task.c **** {
  23:Application/ChassisTask/chassis_task.c ****     Chassis.WheelRadius = 0.0765f;
  24:Application/ChassisTask/chassis_task.c ****     Chassis.WheelReductionRatio = (3591.0f / 187.0f);//减速比
  25:Application/ChassisTask/chassis_task.c ****     Chassis.VelocityRatio = VELOCITY_RATIO;
  26:Application/ChassisTask/chassis_task.c ****     Chassis.rcStickRotateRatio = RC_STICK_ROTATE_RATIO;//0
  27:Application/ChassisTask/chassis_task.c **** 
  28:Application/ChassisTask/chassis_task.c ****     // 电机速度环PID初始化
  29:Application/ChassisTask/chassis_task.c ****     for (uint8_t i = 0; i < 4; i++)
  30:Application/ChassisTask/chassis_task.c ****     {
ARM GAS  C:\Users\LENOVO\AppData\Local\Temp\ccqW8RyF.s 			page 2


  31:Application/ChassisTask/chassis_task.c ****         PID_Init(&Chassis.ChassisMotor[i].PID_Velocity, 16384, 2000, 0, 50, 0.1, 0, 65, 15, 0.005, 
  32:Application/ChassisTask/chassis_task.c ****                  Integral_Limit | OutputFilter | ChangingIntegrationRate);
  33:Application/ChassisTask/chassis_task.c ****         Chassis.ChassisMotor[i].Max_Out = 16384.0f;
  34:Application/ChassisTask/chassis_task.c ****     }
  35:Application/ChassisTask/chassis_task.c **** }
  36:Application/ChassisTask/chassis_task.c **** 
  37:Application/ChassisTask/chassis_task.c **** void Chassis_Control(void)
  38:Application/ChassisTask/chassis_task.c **** {
  39:Application/ChassisTask/chassis_task.c ****     dt = DWT_GetDeltaT(&Chassis_DWT_Count);
  40:Application/ChassisTask/chassis_task.c **** 
  41:Application/ChassisTask/chassis_task.c ****     // 设置底盘运动模式
  42:Application/ChassisTask/chassis_task.c ****     Chassis_Set_Mode();
  43:Application/ChassisTask/chassis_task.c ****     // 处理来自摇杆与键盘的控制数据
  44:Application/ChassisTask/chassis_task.c ****     Chassis_Get_CtrlValue();
  45:Application/ChassisTask/chassis_task.c ****     // 底盘运动解算以及PID计算
  46:Application/ChassisTask/chassis_task.c ****     Chassis_Set_Control();
  47:Application/ChassisTask/chassis_task.c ****     // 发送底盘电机控制电流
  48:Application/ChassisTask/chassis_task.c ****     Send_Chassis_Current();
  49:Application/ChassisTask/chassis_task.c **** }
  50:Application/ChassisTask/chassis_task.c **** 
  51:Application/ChassisTask/chassis_task.c **** static void Chassis_Get_CtrlValue(void)
  52:Application/ChassisTask/chassis_task.c **** {
  53:Application/ChassisTask/chassis_task.c ****     static float Temp_Vx, Temp_Vy;
  54:Application/ChassisTask/chassis_task.c ****     static float tempVal;
  55:Application/ChassisTask/chassis_task.c ****     static float RC = 0.000001f;
  56:Application/ChassisTask/chassis_task.c **** 
  57:Application/ChassisTask/chassis_task.c ****     Temp_Vx = 0;
  58:Application/ChassisTask/chassis_task.c ****     Temp_Vy = 0;
  59:Application/ChassisTask/chassis_task.c **** 
  60:Application/ChassisTask/chassis_task.c ****     // 遥控器数值转化为车体速度
  61:Application/ChassisTask/chassis_task.c ****     Temp_Vx += (remote_control.ch3 * 2.64f / 660.0f);
  62:Application/ChassisTask/chassis_task.c ****     Temp_Vy += (remote_control.ch4 * 2.64f / 660.0f);
  63:Application/ChassisTask/chassis_task.c **** 
  64:Application/ChassisTask/chassis_task.c ****     // 缓启动 Vx
  65:Application/ChassisTask/chassis_task.c ****     if (fabsf(Temp_Vx) > 1e-3f)
  66:Application/ChassisTask/chassis_task.c ****     {
  67:Application/ChassisTask/chassis_task.c ****         if (Chassis.Vx * Temp_Vx < 0)
  68:Application/ChassisTask/chassis_task.c ****             Chassis.Vx = 0;
  69:Application/ChassisTask/chassis_task.c ****         tempVal = (Temp_Vx - Chassis.Vx) / (RC + dt);
  70:Application/ChassisTask/chassis_task.c ****         if (tempVal > Vx_k)
  71:Application/ChassisTask/chassis_task.c ****             tempVal = Vx_k;
  72:Application/ChassisTask/chassis_task.c ****         else if (tempVal < -Vx_k)
  73:Application/ChassisTask/chassis_task.c ****             tempVal = -Vx_k;
  74:Application/ChassisTask/chassis_task.c ****         Chassis.Vx += tempVal * dt;
  75:Application/ChassisTask/chassis_task.c ****     }
  76:Application/ChassisTask/chassis_task.c ****     else
  77:Application/ChassisTask/chassis_task.c ****     {
  78:Application/ChassisTask/chassis_task.c ****         tempVal = (Temp_Vx - Chassis.Vx) / (0.01f + dt);
  79:Application/ChassisTask/chassis_task.c ****         Chassis.Vx += tempVal * dt;
  80:Application/ChassisTask/chassis_task.c ****     }
  81:Application/ChassisTask/chassis_task.c **** 
  82:Application/ChassisTask/chassis_task.c ****     // 缓启动 Vy
  83:Application/ChassisTask/chassis_task.c ****     if (fabsf(Temp_Vy) > 1e-3f)
  84:Application/ChassisTask/chassis_task.c ****     {
  85:Application/ChassisTask/chassis_task.c ****         if (Chassis.Vy * Temp_Vy < 0)
  86:Application/ChassisTask/chassis_task.c ****             Chassis.Vy = 0;
  87:Application/ChassisTask/chassis_task.c ****         tempVal = (Temp_Vy - Chassis.Vy) / (RC + dt);
ARM GAS  C:\Users\LENOVO\AppData\Local\Temp\ccqW8RyF.s 			page 3


  88:Application/ChassisTask/chassis_task.c ****         if (tempVal > Vy_k)
  89:Application/ChassisTask/chassis_task.c ****             tempVal = Vy_k;
  90:Application/ChassisTask/chassis_task.c ****         else if (tempVal < -Vy_k)
  91:Application/ChassisTask/chassis_task.c ****             tempVal = -Vy_k;
  92:Application/ChassisTask/chassis_task.c ****         Chassis.Vy += 0.8f * tempVal * dt;
  93:Application/ChassisTask/chassis_task.c ****     }
  94:Application/ChassisTask/chassis_task.c ****     else
  95:Application/ChassisTask/chassis_task.c ****     {
  96:Application/ChassisTask/chassis_task.c ****         tempVal = (Temp_Vy - Chassis.Vy) / (0.01f + dt);
  97:Application/ChassisTask/chassis_task.c ****         Chassis.Vy += 0.8f * tempVal * dt;
  98:Application/ChassisTask/chassis_task.c ****     }
  99:Application/ChassisTask/chassis_task.c **** 
 100:Application/ChassisTask/chassis_task.c ****     Chassis.Vx = float_constrain(Chassis.Vx, -2.64f, 2.64f);
 101:Application/ChassisTask/chassis_task.c ****     Chassis.Vy = float_constrain(Chassis.Vy, -2.64f, 2.64f);
 102:Application/ChassisTask/chassis_task.c **** }
 103:Application/ChassisTask/chassis_task.c **** 
 104:Application/ChassisTask/chassis_task.c **** static void Chassis_Set_Mode(void)
 105:Application/ChassisTask/chassis_task.c **** {
 106:Application/ChassisTask/chassis_task.c ****     // 4个底盘电机全部离线 → 强制静止
 107:Application/ChassisTask/chassis_task.c ****     if (is_TOE_Error(CHASSIS_MOTOR1_TOE) &&
 108:Application/ChassisTask/chassis_task.c ****         is_TOE_Error(CHASSIS_MOTOR2_TOE) &&
 109:Application/ChassisTask/chassis_task.c ****         is_TOE_Error(CHASSIS_MOTOR3_TOE) &&
 110:Application/ChassisTask/chassis_task.c ****         is_TOE_Error(CHASSIS_MOTOR4_TOE))
 111:Application/ChassisTask/chassis_task.c ****     {
 112:Application/ChassisTask/chassis_task.c ****         Chassis.Mode = Silence_Mode;
 113:Application/ChassisTask/chassis_task.c ****     }
 114:Application/ChassisTask/chassis_task.c ****     else
 115:Application/ChassisTask/chassis_task.c ****     {
 116:Application/ChassisTask/chassis_task.c ****         // 左拨杆切换旋转模式（右拨杆已被云台占用控制枪管）
 117:Application/ChassisTask/chassis_task.c ****         Chassis.Mode = Follow_Mode;
 118:Application/ChassisTask/chassis_task.c ****     }
 119:Application/ChassisTask/chassis_task.c **** 
 120:Application/ChassisTask/chassis_task.c ****     Chassis.LastMode = Chassis.Mode;
 121:Application/ChassisTask/chassis_task.c **** }
 122:Application/ChassisTask/chassis_task.c **** 
 123:Application/ChassisTask/chassis_task.c **** static void Chassis_Set_Control(void)
 124:Application/ChassisTask/chassis_task.c **** {
 125:Application/ChassisTask/chassis_task.c ****     float yaw_rad; // IMU Yaw角(弧度) — 对标百零一 SpinningValidTheta
 126:Application/ChassisTask/chassis_task.c **** 
 127:Application/ChassisTask/chassis_task.c ****     switch (Chassis.Mode)
 128:Application/ChassisTask/chassis_task.c ****     {
 129:Application/ChassisTask/chassis_task.c ****     case Follow_Mode:
 130:Application/ChassisTask/chassis_task.c ****         // 左拨杆向下(Switch_Down=2)：自动旋转 + 摇杆平移
 131:Application/ChassisTask/chassis_task.c ****         if (remote_control.switch_left == Switch_Down)
 132:Application/ChassisTask/chassis_task.c ****         {
 133:Application/ChassisTask/chassis_task.c ****             Chassis.Vr = 50.0f; // 自动旋转角速度 50°/s
 134:Application/ChassisTask/chassis_task.c ****         }
 135:Application/ChassisTask/chassis_task.c ****         else
 136:Application/ChassisTask/chassis_task.c ****         {
 137:Application/ChassisTask/chassis_task.c ****             Chassis.Vr = 0; // 不自动旋转
 138:Application/ChassisTask/chassis_task.c ****         }
 139:Application/ChassisTask/chassis_task.c **** 
 140:Application/ChassisTask/chassis_task.c ****         // 使用IMU真实Yaw角(度→弧度) — 对标百零一 SpinningValidTheta
 141:Application/ChassisTask/chassis_task.c ****         yaw_rad = AHRS.Yaw * pi / 180.0f;
 142:Application/ChassisTask/chassis_task.c **** 
 143:Application/ChassisTask/chassis_task.c ****         // 对标百零一 Battle_MODE 坐标变换: sin(θ)*Vx - cos(θ)*Vy, cos(θ)*Vx + sin(θ)*
 144:Application/ChassisTask/chassis_task.c ****         Chassis.VxTransfer =  user_sin(yaw_rad) * Chassis.Vx - user_cos(yaw_rad) * Chassis.Vy;
ARM GAS  C:\Users\LENOVO\AppData\Local\Temp\ccqW8RyF.s 			page 4


 145:Application/ChassisTask/chassis_task.c ****         Chassis.VyTransfer =  user_cos(yaw_rad) * Chassis.Vx + user_sin(yaw_rad) * Chassis.Vy;
 146:Application/ChassisTask/chassis_task.c ****         break;
 147:Application/ChassisTask/chassis_task.c **** 
 148:Application/ChassisTask/chassis_task.c ****     case Silence_Mode:
 149:Application/ChassisTask/chassis_task.c ****     default:
 150:Application/ChassisTask/chassis_task.c ****         Chassis.Vr = 0;
 151:Application/ChassisTask/chassis_task.c ****         Chassis.VxTransfer = 0;
 152:Application/ChassisTask/chassis_task.c ****         Chassis.VyTransfer = 0;
 153:Application/ChassisTask/chassis_task.c ****         break;
 154:Application/ChassisTask/chassis_task.c ****     }
 155:Application/ChassisTask/chassis_task.c **** 
 156:Application/ChassisTask/chassis_task.c ****     // 麦克纳姆轮逆运动学
 157:Application/ChassisTask/chassis_task.c ****     Chassis.V1 = ((Chassis.VxTransfer - Chassis.VyTransfer) * Chassis.VelocityRatio + (WHEEL_OPPOSI
 158:Application/ChassisTask/chassis_task.c ****     Chassis.V2 = ((Chassis.VxTransfer + Chassis.VyTransfer) * Chassis.VelocityRatio + (WHEEL_OPPOSI
 159:Application/ChassisTask/chassis_task.c ****     Chassis.V3 = ((-Chassis.VxTransfer + Chassis.VyTransfer) * Chassis.VelocityRatio + (WHEEL_OPPOS
 160:Application/ChassisTask/chassis_task.c ****     Chassis.V4 = ((-Chassis.VxTransfer - Chassis.VyTransfer) * Chassis.VelocityRatio + (WHEEL_OPPOS
 161:Application/ChassisTask/chassis_task.c **** 
 162:Application/ChassisTask/chassis_task.c ****     Velocity_MAXLimit();
 163:Application/ChassisTask/chassis_task.c **** 
 164:Application/ChassisTask/chassis_task.c ****     // 电机速度PID控制
 165:Application/ChassisTask/chassis_task.c ****     Motor_Speed_Calculate(&Chassis.ChassisMotor[0], Chassis.ChassisMotor[0].Velocity_RPM / Chassis.
 166:Application/ChassisTask/chassis_task.c ****     Motor_Speed_Calculate(&Chassis.ChassisMotor[1], Chassis.ChassisMotor[1].Velocity_RPM / Chassis.
 167:Application/ChassisTask/chassis_task.c ****     Motor_Speed_Calculate(&Chassis.ChassisMotor[2], Chassis.ChassisMotor[2].Velocity_RPM / Chassis.
 168:Application/ChassisTask/chassis_task.c ****     Motor_Speed_Calculate(&Chassis.ChassisMotor[3], Chassis.ChassisMotor[3].Velocity_RPM / Chassis.
 169:Application/ChassisTask/chassis_task.c **** }
 170:Application/ChassisTask/chassis_task.c **** 
 171:Application/ChassisTask/chassis_task.c **** static void Send_Chassis_Current(void)
 172:Application/ChassisTask/chassis_task.c **** {
 173:Application/ChassisTask/chassis_task.c ****     // 遥控器离线 → 发送0电流保护
 174:Application/ChassisTask/chassis_task.c ****     if (is_TOE_Error(RC_TOE))
 175:Application/ChassisTask/chassis_task.c ****     {
 176:Application/ChassisTask/chassis_task.c ****         Send_Motor_Current_1_4(&hcan1, 0, 0, 0, 0);
 177:Application/ChassisTask/chassis_task.c ****     }
 178:Application/ChassisTask/chassis_task.c ****     else
 179:Application/ChassisTask/chassis_task.c ****     {
 180:Application/ChassisTask/chassis_task.c ****         Send_Motor_Current_1_4(&hcan1,
 181:Application/ChassisTask/chassis_task.c ****                                (int16_t)Chassis.ChassisMotor[0].Output,
 182:Application/ChassisTask/chassis_task.c ****                                (int16_t)Chassis.ChassisMotor[1].Output,
 183:Application/ChassisTask/chassis_task.c ****                                (int16_t)Chassis.ChassisMotor[2].Output,
 184:Application/ChassisTask/chassis_task.c ****                                (int16_t)Chassis.ChassisMotor[3].Output);
 185:Application/ChassisTask/chassis_task.c ****     }
 186:Application/ChassisTask/chassis_task.c **** }
 187:Application/ChassisTask/chassis_task.c **** 
 188:Application/ChassisTask/chassis_task.c **** static float Max_4(float num1, float num2, float num3, float num4)
 189:Application/ChassisTask/chassis_task.c **** {
  29              		.loc 1 189 1 view -0
  30              		.cfi_startproc
  31              		@ args = 0, pretend = 0, frame = 0
  32              		@ frame_needed = 0, uses_anonymous_args = 0
  33              		@ link register save eliminated.
 190:Application/ChassisTask/chassis_task.c ****     static float max_num = 0;
  34              		.loc 1 190 5 view .LVU1
 191:Application/ChassisTask/chassis_task.c ****     max_num = fabsf(num1);
  35              		.loc 1 191 5 view .LVU2
  36              		.loc 1 191 15 is_stmt 0 view .LVU3
  37 0000 B0EEC00A 		vabs.f32	s0, s0
  38              	.LVL1:
ARM GAS  C:\Users\LENOVO\AppData\Local\Temp\ccqW8RyF.s 			page 5


  39              		.loc 1 191 13 view .LVU4
  40 0004 134B     		ldr	r3, .L11
  41 0006 83ED000A 		vstr.32	s0, [r3]
 192:Application/ChassisTask/chassis_task.c ****     if (fabsf(num2) > max_num)
  42              		.loc 1 192 5 is_stmt 1 view .LVU5
  43              		.loc 1 192 9 is_stmt 0 view .LVU6
  44 000a F0EEE00A 		vabs.f32	s1, s1
  45              	.LVL2:
  46              		.loc 1 192 8 view .LVU7
  47 000e B4EEE00A 		vcmpe.f32	s0, s1
  48 0012 F1EE10FA 		vmrs	APSR_nzcv, FPSCR
  49 0016 01D5     		bpl	.L2
 193:Application/ChassisTask/chassis_task.c ****         max_num = fabsf(num2);
  50              		.loc 1 193 9 is_stmt 1 view .LVU8
  51              		.loc 1 193 17 is_stmt 0 view .LVU9
  52 0018 C3ED000A 		vstr.32	s1, [r3]
  53              	.L2:
 194:Application/ChassisTask/chassis_task.c ****     if (fabsf(num3) > max_num)
  54              		.loc 1 194 5 is_stmt 1 view .LVU10
  55              		.loc 1 194 9 is_stmt 0 view .LVU11
  56 001c B0EEC11A 		vabs.f32	s2, s2
  57              	.LVL3:
  58              		.loc 1 194 21 view .LVU12
  59 0020 0C4B     		ldr	r3, .L11
  60 0022 D3ED007A 		vldr.32	s15, [r3]
  61              		.loc 1 194 8 view .LVU13
  62 0026 B4EEE71A 		vcmpe.f32	s2, s15
  63 002a F1EE10FA 		vmrs	APSR_nzcv, FPSCR
  64 002e 01DD     		ble	.L4
 195:Application/ChassisTask/chassis_task.c ****         max_num = fabsf(num3);
  65              		.loc 1 195 9 is_stmt 1 view .LVU14
  66              		.loc 1 195 17 is_stmt 0 view .LVU15
  67 0030 83ED001A 		vstr.32	s2, [r3]
  68              	.L4:
 196:Application/ChassisTask/chassis_task.c ****     if (fabsf(num4) > max_num)
  69              		.loc 1 196 5 is_stmt 1 view .LVU16
  70              		.loc 1 196 9 is_stmt 0 view .LVU17
  71 0034 F0EEE11A 		vabs.f32	s3, s3
  72              	.LVL4:
  73              		.loc 1 196 21 view .LVU18
  74 0038 064B     		ldr	r3, .L11
  75 003a D3ED007A 		vldr.32	s15, [r3]
  76              		.loc 1 196 8 view .LVU19
  77 003e F4EEE71A 		vcmpe.f32	s3, s15
  78 0042 F1EE10FA 		vmrs	APSR_nzcv, FPSCR
  79 0046 01DD     		ble	.L6
 197:Application/ChassisTask/chassis_task.c ****         max_num = fabsf(num4);
  80              		.loc 1 197 9 is_stmt 1 view .LVU20
  81              		.loc 1 197 17 is_stmt 0 view .LVU21
  82 0048 C3ED001A 		vstr.32	s3, [r3]
  83              	.L6:
 198:Application/ChassisTask/chassis_task.c ****     return max_num;
  84              		.loc 1 198 5 is_stmt 1 view .LVU22
 199:Application/ChassisTask/chassis_task.c **** }
  85              		.loc 1 199 1 is_stmt 0 view .LVU23
  86 004c 014B     		ldr	r3, .L11
  87 004e 93ED000A 		vldr.32	s0, [r3]
ARM GAS  C:\Users\LENOVO\AppData\Local\Temp\ccqW8RyF.s 			page 6


  88 0052 7047     		bx	lr
  89              	.L12:
  90              		.align	2
  91              	.L11:
  92 0054 00000000 		.word	max_num.0
  93              		.cfi_endproc
  94              	.LFE174:
  96              		.section	.text.Velocity_MAXLimit,"ax",%progbits
  97              		.align	1
  98              		.syntax unified
  99              		.thumb
 100              		.thumb_func
 102              	Velocity_MAXLimit:
 103              	.LFB175:
 200:Application/ChassisTask/chassis_task.c **** 
 201:Application/ChassisTask/chassis_task.c **** static void Velocity_MAXLimit(void)
 202:Application/ChassisTask/chassis_task.c **** {
 104              		.loc 1 202 1 is_stmt 1 view -0
 105              		.cfi_startproc
 106              		@ args = 0, pretend = 0, frame = 0
 107              		@ frame_needed = 0, uses_anonymous_args = 0
 108 0000 10B5     		push	{r4, lr}
 109              	.LCFI0:
 110              		.cfi_def_cfa_offset 8
 111              		.cfi_offset 4, -8
 112              		.cfi_offset 14, -4
 203:Application/ChassisTask/chassis_task.c ****     static float TempMaxVelocity;
 113              		.loc 1 203 5 view .LVU25
 204:Application/ChassisTask/chassis_task.c ****     if (Max_4(fabsf(Chassis.V1), fabsf(Chassis.V2), fabsf(Chassis.V3), fabsf(Chassis.V4)) > MAX_RPM
 114              		.loc 1 204 5 view .LVU26
 115              		.loc 1 204 28 is_stmt 0 view .LVU27
 116 0002 284B     		ldr	r3, .L19
 117 0004 93ED070A 		vldr.32	s0, [r3, #28]
 118              		.loc 1 204 47 view .LVU28
 119 0008 D3ED080A 		vldr.32	s1, [r3, #32]
 120              		.loc 1 204 66 view .LVU29
 121 000c 93ED091A 		vldr.32	s2, [r3, #36]
 122              		.loc 1 204 85 view .LVU30
 123 0010 D3ED0A1A 		vldr.32	s3, [r3, #40]
 124              		.loc 1 204 9 view .LVU31
 125 0014 F0EEE11A 		vabs.f32	s3, s3
 126 0018 B0EEC11A 		vabs.f32	s2, s2
 127 001c F0EEE00A 		vabs.f32	s1, s1
 128 0020 B0EEC00A 		vabs.f32	s0, s0
 129 0024 FFF7FEFF 		bl	Max_4
 130              	.LVL5:
 131              		.loc 1 204 91 discriminator 1 view .LVU32
 132 0028 1F4B     		ldr	r3, .L19+4
 133 002a D3ED007A 		vldr.32	s15, [r3]
 134              		.loc 1 204 8 discriminator 1 view .LVU33
 135 002e B4EEE70A 		vcmpe.f32	s0, s15
 136 0032 F1EE10FA 		vmrs	APSR_nzcv, FPSCR
 137 0036 00DC     		bgt	.L18
 138              	.L13:
 205:Application/ChassisTask/chassis_task.c ****     {
 206:Application/ChassisTask/chassis_task.c ****         TempMaxVelocity = Max_4(fabsf(Chassis.V1), fabsf(Chassis.V2), fabsf(Chassis.V3), fabsf(Chas
 207:Application/ChassisTask/chassis_task.c ****         Chassis.V1 *= MAX_RPM / TempMaxVelocity;
ARM GAS  C:\Users\LENOVO\AppData\Local\Temp\ccqW8RyF.s 			page 7


 208:Application/ChassisTask/chassis_task.c ****         Chassis.V2 *= MAX_RPM / TempMaxVelocity;
 209:Application/ChassisTask/chassis_task.c ****         Chassis.V3 *= MAX_RPM / TempMaxVelocity;
 210:Application/ChassisTask/chassis_task.c ****         Chassis.V4 *= MAX_RPM / TempMaxVelocity;
 211:Application/ChassisTask/chassis_task.c ****     }
 212:Application/ChassisTask/chassis_task.c **** }
 139              		.loc 1 212 1 view .LVU34
 140 0038 10BD     		pop	{r4, pc}
 141              	.L18:
 206:Application/ChassisTask/chassis_task.c ****         Chassis.V1 *= MAX_RPM / TempMaxVelocity;
 142              		.loc 1 206 9 is_stmt 1 view .LVU35
 206:Application/ChassisTask/chassis_task.c ****         Chassis.V1 *= MAX_RPM / TempMaxVelocity;
 143              		.loc 1 206 46 is_stmt 0 view .LVU36
 144 003a 1A4C     		ldr	r4, .L19
 145 003c 94ED070A 		vldr.32	s0, [r4, #28]
 206:Application/ChassisTask/chassis_task.c ****         Chassis.V1 *= MAX_RPM / TempMaxVelocity;
 146              		.loc 1 206 65 view .LVU37
 147 0040 D4ED080A 		vldr.32	s1, [r4, #32]
 206:Application/ChassisTask/chassis_task.c ****         Chassis.V1 *= MAX_RPM / TempMaxVelocity;
 148              		.loc 1 206 84 view .LVU38
 149 0044 94ED091A 		vldr.32	s2, [r4, #36]
 206:Application/ChassisTask/chassis_task.c ****         Chassis.V1 *= MAX_RPM / TempMaxVelocity;
 150              		.loc 1 206 103 view .LVU39
 151 0048 D4ED0A1A 		vldr.32	s3, [r4, #40]
 206:Application/ChassisTask/chassis_task.c ****         Chassis.V1 *= MAX_RPM / TempMaxVelocity;
 152              		.loc 1 206 27 view .LVU40
 153 004c F0EEE11A 		vabs.f32	s3, s3
 154 0050 B0EEC11A 		vabs.f32	s2, s2
 155 0054 F0EEE00A 		vabs.f32	s1, s1
 156 0058 B0EEC00A 		vabs.f32	s0, s0
 157 005c FFF7FEFF 		bl	Max_4
 158              	.LVL6:
 206:Application/ChassisTask/chassis_task.c ****         Chassis.V1 *= MAX_RPM / TempMaxVelocity;
 159              		.loc 1 206 25 discriminator 1 view .LVU41
 160 0060 124B     		ldr	r3, .L19+8
 161 0062 83ED000A 		vstr.32	s0, [r3]
 207:Application/ChassisTask/chassis_task.c ****         Chassis.V2 *= MAX_RPM / TempMaxVelocity;
 162              		.loc 1 207 9 is_stmt 1 view .LVU42
 207:Application/ChassisTask/chassis_task.c ****         Chassis.V2 *= MAX_RPM / TempMaxVelocity;
 163              		.loc 1 207 16 is_stmt 0 view .LVU43
 164 0066 94ED077A 		vldr.32	s14, [r4, #28]
 207:Application/ChassisTask/chassis_task.c ****         Chassis.V2 *= MAX_RPM / TempMaxVelocity;
 165              		.loc 1 207 31 view .LVU44
 166 006a 0F4B     		ldr	r3, .L19+4
 167 006c D3ED006A 		vldr.32	s13, [r3]
 168 0070 C6EE807A 		vdiv.f32	s15, s13, s0
 207:Application/ChassisTask/chassis_task.c ****         Chassis.V2 *= MAX_RPM / TempMaxVelocity;
 169              		.loc 1 207 20 view .LVU45
 170 0074 27EE277A 		vmul.f32	s14, s14, s15
 171 0078 84ED077A 		vstr.32	s14, [r4, #28]
 208:Application/ChassisTask/chassis_task.c ****         Chassis.V3 *= MAX_RPM / TempMaxVelocity;
 172              		.loc 1 208 9 is_stmt 1 view .LVU46
 208:Application/ChassisTask/chassis_task.c ****         Chassis.V3 *= MAX_RPM / TempMaxVelocity;
 173              		.loc 1 208 16 is_stmt 0 view .LVU47
 174 007c 94ED087A 		vldr.32	s14, [r4, #32]
 208:Application/ChassisTask/chassis_task.c ****         Chassis.V3 *= MAX_RPM / TempMaxVelocity;
 175              		.loc 1 208 20 view .LVU48
 176 0080 27EE877A 		vmul.f32	s14, s15, s14
ARM GAS  C:\Users\LENOVO\AppData\Local\Temp\ccqW8RyF.s 			page 8


 177 0084 84ED087A 		vstr.32	s14, [r4, #32]
 209:Application/ChassisTask/chassis_task.c ****         Chassis.V4 *= MAX_RPM / TempMaxVelocity;
 178              		.loc 1 209 9 is_stmt 1 view .LVU49
 209:Application/ChassisTask/chassis_task.c ****         Chassis.V4 *= MAX_RPM / TempMaxVelocity;
 179              		.loc 1 209 16 is_stmt 0 view .LVU50
 180 0088 94ED097A 		vldr.32	s14, [r4, #36]
 209:Application/ChassisTask/chassis_task.c ****         Chassis.V4 *= MAX_RPM / TempMaxVelocity;
 181              		.loc 1 209 20 view .LVU51
 182 008c 27EE877A 		vmul.f32	s14, s15, s14
 183 0090 84ED097A 		vstr.32	s14, [r4, #36]
 210:Application/ChassisTask/chassis_task.c ****     }
 184              		.loc 1 210 9 is_stmt 1 view .LVU52
 210:Application/ChassisTask/chassis_task.c ****     }
 185              		.loc 1 210 16 is_stmt 0 view .LVU53
 186 0094 94ED0A7A 		vldr.32	s14, [r4, #40]
 210:Application/ChassisTask/chassis_task.c ****     }
 187              		.loc 1 210 20 view .LVU54
 188 0098 67EE877A 		vmul.f32	s15, s15, s14
 189 009c C4ED0A7A 		vstr.32	s15, [r4, #40]
 190              		.loc 1 212 1 view .LVU55
 191 00a0 CAE7     		b	.L13
 192              	.L20:
 193 00a2 00BF     		.align	2
 194              	.L19:
 195 00a4 00000000 		.word	Chassis
 196 00a8 00000000 		.word	MAX_RPM
 197 00ac 00000000 		.word	TempMaxVelocity.1
 198              		.cfi_endproc
 199              	.LFE175:
 201              		.section	.text.Chassis_Set_Mode,"ax",%progbits
 202              		.align	1
 203              		.syntax unified
 204              		.thumb
 205              		.thumb_func
 207              	Chassis_Set_Mode:
 208              	.LFB171:
 105:Application/ChassisTask/chassis_task.c ****     // 4个底盘电机全部离线 → 强制静止
 209              		.loc 1 105 1 is_stmt 1 view -0
 210              		.cfi_startproc
 211              		@ args = 0, pretend = 0, frame = 0
 212              		@ frame_needed = 0, uses_anonymous_args = 0
 213 0000 08B5     		push	{r3, lr}
 214              	.LCFI1:
 215              		.cfi_def_cfa_offset 8
 216              		.cfi_offset 3, -8
 217              		.cfi_offset 14, -4
 107:Application/ChassisTask/chassis_task.c ****         is_TOE_Error(CHASSIS_MOTOR2_TOE) &&
 218              		.loc 1 107 5 view .LVU57
 107:Application/ChassisTask/chassis_task.c ****         is_TOE_Error(CHASSIS_MOTOR2_TOE) &&
 219              		.loc 1 107 9 is_stmt 0 view .LVU58
 220 0002 0A20     		movs	r0, #10
 221 0004 FFF7FEFF 		bl	is_TOE_Error
 222              	.LVL7:
 107:Application/ChassisTask/chassis_task.c ****         is_TOE_Error(CHASSIS_MOTOR2_TOE) &&
 223              		.loc 1 107 8 discriminator 1 view .LVU59
 224 0008 48B9     		cbnz	r0, .L25
 225              	.L22:
ARM GAS  C:\Users\LENOVO\AppData\Local\Temp\ccqW8RyF.s 			page 9


 117:Application/ChassisTask/chassis_task.c ****     }
 226              		.loc 1 117 9 is_stmt 1 view .LVU60
 117:Application/ChassisTask/chassis_task.c ****     }
 227              		.loc 1 117 22 is_stmt 0 view .LVU61
 228 000a 0F4B     		ldr	r3, .L26
 229 000c 0022     		movs	r2, #0
 230 000e 83F82C20 		strb	r2, [r3, #44]
 231              	.L23:
 120:Application/ChassisTask/chassis_task.c **** }
 232              		.loc 1 120 5 is_stmt 1 view .LVU62
 120:Application/ChassisTask/chassis_task.c **** }
 233              		.loc 1 120 31 is_stmt 0 view .LVU63
 234 0012 0D4B     		ldr	r3, .L26
 235 0014 93F82C20 		ldrb	r2, [r3, #44]	@ zero_extendqisi2
 120:Application/ChassisTask/chassis_task.c **** }
 236              		.loc 1 120 22 view .LVU64
 237 0018 83F82D20 		strb	r2, [r3, #45]
 121:Application/ChassisTask/chassis_task.c **** 
 238              		.loc 1 121 1 view .LVU65
 239 001c 08BD     		pop	{r3, pc}
 240              	.L25:
 108:Application/ChassisTask/chassis_task.c ****         is_TOE_Error(CHASSIS_MOTOR3_TOE) &&
 241              		.loc 1 108 9 view .LVU66
 242 001e 0B20     		movs	r0, #11
 243 0020 FFF7FEFF 		bl	is_TOE_Error
 244              	.LVL8:
 107:Application/ChassisTask/chassis_task.c ****         is_TOE_Error(CHASSIS_MOTOR2_TOE) &&
 245              		.loc 1 107 42 discriminator 1 view .LVU67
 246 0024 0028     		cmp	r0, #0
 247 0026 F0D0     		beq	.L22
 109:Application/ChassisTask/chassis_task.c ****         is_TOE_Error(CHASSIS_MOTOR4_TOE))
 248              		.loc 1 109 9 view .LVU68
 249 0028 0C20     		movs	r0, #12
 250 002a FFF7FEFF 		bl	is_TOE_Error
 251              	.LVL9:
 108:Application/ChassisTask/chassis_task.c ****         is_TOE_Error(CHASSIS_MOTOR3_TOE) &&
 252              		.loc 1 108 42 view .LVU69
 253 002e 0028     		cmp	r0, #0
 254 0030 EBD0     		beq	.L22
 110:Application/ChassisTask/chassis_task.c ****     {
 255              		.loc 1 110 9 view .LVU70
 256 0032 0D20     		movs	r0, #13
 257 0034 FFF7FEFF 		bl	is_TOE_Error
 258              	.LVL10:
 109:Application/ChassisTask/chassis_task.c ****         is_TOE_Error(CHASSIS_MOTOR4_TOE))
 259              		.loc 1 109 42 view .LVU71
 260 0038 0028     		cmp	r0, #0
 261 003a E6D0     		beq	.L22
 112:Application/ChassisTask/chassis_task.c ****     }
 262              		.loc 1 112 9 is_stmt 1 view .LVU72
 112:Application/ChassisTask/chassis_task.c ****     }
 263              		.loc 1 112 22 is_stmt 0 view .LVU73
 264 003c 024B     		ldr	r3, .L26
 265 003e 0122     		movs	r2, #1
 266 0040 83F82C20 		strb	r2, [r3, #44]
 267 0044 E5E7     		b	.L23
 268              	.L27:
ARM GAS  C:\Users\LENOVO\AppData\Local\Temp\ccqW8RyF.s 			page 10


 269 0046 00BF     		.align	2
 270              	.L26:
 271 0048 00000000 		.word	Chassis
 272              		.cfi_endproc
 273              	.LFE171:
 275              		.section	.text.Chassis_Get_CtrlValue,"ax",%progbits
 276              		.align	1
 277              		.syntax unified
 278              		.thumb
 279              		.thumb_func
 281              	Chassis_Get_CtrlValue:
 282              	.LFB170:
  52:Application/ChassisTask/chassis_task.c ****     static float Temp_Vx, Temp_Vy;
 283              		.loc 1 52 1 is_stmt 1 view -0
 284              		.cfi_startproc
 285              		@ args = 0, pretend = 0, frame = 0
 286              		@ frame_needed = 0, uses_anonymous_args = 0
 287 0000 10B5     		push	{r4, lr}
 288              	.LCFI2:
 289              		.cfi_def_cfa_offset 8
 290              		.cfi_offset 4, -8
 291              		.cfi_offset 14, -4
 292 0002 2DED028B 		vpush.64	{d8}
 293              	.LCFI3:
 294              		.cfi_def_cfa_offset 16
 295              		.cfi_offset 80, -16
 296              		.cfi_offset 81, -12
  53:Application/ChassisTask/chassis_task.c ****     static float tempVal;
 297              		.loc 1 53 5 view .LVU75
  54:Application/ChassisTask/chassis_task.c ****     static float RC = 0.000001f;
 298              		.loc 1 54 5 view .LVU76
  55:Application/ChassisTask/chassis_task.c **** 
 299              		.loc 1 55 5 view .LVU77
  57:Application/ChassisTask/chassis_task.c ****     Temp_Vy = 0;
 300              		.loc 1 57 5 view .LVU78
  57:Application/ChassisTask/chassis_task.c ****     Temp_Vy = 0;
 301              		.loc 1 57 13 is_stmt 0 view .LVU79
 302 0006 8649     		ldr	r1, .L62
 303 0008 9FED866A 		vldr.32	s12, .L62+4
 304 000c 81ED006A 		vstr.32	s12, [r1]
  58:Application/ChassisTask/chassis_task.c **** 
 305              		.loc 1 58 5 is_stmt 1 view .LVU80
  58:Application/ChassisTask/chassis_task.c **** 
 306              		.loc 1 58 13 is_stmt 0 view .LVU81
 307 0010 854B     		ldr	r3, .L62+8
 308 0012 83ED006A 		vstr.32	s12, [r3]
  61:Application/ChassisTask/chassis_task.c ****     Temp_Vy += (remote_control.ch4 * 2.64f / 660.0f);
 309              		.loc 1 61 5 is_stmt 1 view .LVU82
  61:Application/ChassisTask/chassis_task.c ****     Temp_Vy += (remote_control.ch4 * 2.64f / 660.0f);
 310              		.loc 1 61 31 is_stmt 0 view .LVU83
 311 0016 854A     		ldr	r2, .L62+12
 312 0018 B2F90800 		ldrsh	r0, [r2, #8]
 313 001c 07EE900A 		vmov	s15, r0	@ int
  61:Application/ChassisTask/chassis_task.c ****     Temp_Vy += (remote_control.ch4 * 2.64f / 660.0f);
 314              		.loc 1 61 36 view .LVU84
 315 0020 F8EEE77A 		vcvt.f32.s32	s15, s15
 316 0024 9FED825A 		vldr.32	s10, .L62+16
ARM GAS  C:\Users\LENOVO\AppData\Local\Temp\ccqW8RyF.s 			page 11


 317 0028 67EE857A 		vmul.f32	s15, s15, s10
  61:Application/ChassisTask/chassis_task.c ****     Temp_Vy += (remote_control.ch4 * 2.64f / 660.0f);
 318              		.loc 1 61 44 view .LVU85
 319 002c DFED815A 		vldr.32	s11, .L62+20
 320 0030 87EEA57A 		vdiv.f32	s14, s15, s11
  61:Application/ChassisTask/chassis_task.c ****     Temp_Vy += (remote_control.ch4 * 2.64f / 660.0f);
 321              		.loc 1 61 13 view .LVU86
 322 0034 37EE067A 		vadd.f32	s14, s14, s12
 323 0038 81ED007A 		vstr.32	s14, [r1]
  62:Application/ChassisTask/chassis_task.c **** 
 324              		.loc 1 62 5 is_stmt 1 view .LVU87
  62:Application/ChassisTask/chassis_task.c **** 
 325              		.loc 1 62 31 is_stmt 0 view .LVU88
 326 003c B2F90A20 		ldrsh	r2, [r2, #10]
 327 0040 06EE902A 		vmov	s13, r2	@ int
  62:Application/ChassisTask/chassis_task.c **** 
 328              		.loc 1 62 36 view .LVU89
 329 0044 F8EEE66A 		vcvt.f32.s32	s13, s13
 330 0048 66EE856A 		vmul.f32	s13, s13, s10
  62:Application/ChassisTask/chassis_task.c **** 
 331              		.loc 1 62 44 view .LVU90
 332 004c C6EEA57A 		vdiv.f32	s15, s13, s11
  62:Application/ChassisTask/chassis_task.c **** 
 333              		.loc 1 62 13 view .LVU91
 334 0050 77EE867A 		vadd.f32	s15, s15, s12
 335 0054 C3ED007A 		vstr.32	s15, [r3]
  65:Application/ChassisTask/chassis_task.c ****     {
 336              		.loc 1 65 5 is_stmt 1 view .LVU92
  65:Application/ChassisTask/chassis_task.c ****     {
 337              		.loc 1 65 9 is_stmt 0 view .LVU93
 338 0058 B0EEC76A 		vabs.f32	s12, s14
  65:Application/ChassisTask/chassis_task.c ****     {
 339              		.loc 1 65 8 view .LVU94
 340 005c DFED766A 		vldr.32	s13, .L62+24
 341 0060 B4EEE66A 		vcmpe.f32	s12, s13
 342 0064 F1EE10FA 		vmrs	APSR_nzcv, FPSCR
 343 0068 40F39880 		ble	.L55
  67:Application/ChassisTask/chassis_task.c ****             Chassis.Vx = 0;
 344              		.loc 1 67 9 is_stmt 1 view .LVU95
  67:Application/ChassisTask/chassis_task.c ****             Chassis.Vx = 0;
 345              		.loc 1 67 20 is_stmt 0 view .LVU96
 346 006c 734B     		ldr	r3, .L62+28
 347 006e D3ED006A 		vldr.32	s13, [r3]
  67:Application/ChassisTask/chassis_task.c ****             Chassis.Vx = 0;
 348              		.loc 1 67 24 view .LVU97
 349 0072 67EE266A 		vmul.f32	s13, s14, s13
  67:Application/ChassisTask/chassis_task.c ****             Chassis.Vx = 0;
 350              		.loc 1 67 12 view .LVU98
 351 0076 F5EEC06A 		vcmpe.f32	s13, #0
 352 007a F1EE10FA 		vmrs	APSR_nzcv, FPSCR
 353 007e 7FD4     		bmi	.L60
 354              	.L31:
  69:Application/ChassisTask/chassis_task.c ****         if (tempVal > Vx_k)
 355              		.loc 1 69 9 is_stmt 1 view .LVU99
  69:Application/ChassisTask/chassis_task.c ****         if (tempVal > Vx_k)
 356              		.loc 1 69 37 is_stmt 0 view .LVU100
 357 0080 6E4B     		ldr	r3, .L62+28
ARM GAS  C:\Users\LENOVO\AppData\Local\Temp\ccqW8RyF.s 			page 12


 358 0082 D3ED006A 		vldr.32	s13, [r3]
  69:Application/ChassisTask/chassis_task.c ****         if (tempVal > Vx_k)
 359              		.loc 1 69 28 view .LVU101
 360 0086 37EE667A 		vsub.f32	s14, s14, s13
  69:Application/ChassisTask/chassis_task.c ****         if (tempVal > Vx_k)
 361              		.loc 1 69 48 view .LVU102
 362 008a 6D4B     		ldr	r3, .L62+32
 363 008c 93ED006A 		vldr.32	s12, [r3]
 364 0090 DFED6C5A 		vldr.32	s11, .L62+36
 365 0094 76EE255A 		vadd.f32	s11, s12, s11
  69:Application/ChassisTask/chassis_task.c ****         if (tempVal > Vx_k)
 366              		.loc 1 69 42 view .LVU103
 367 0098 87EE255A 		vdiv.f32	s10, s14, s11
  69:Application/ChassisTask/chassis_task.c ****         if (tempVal > Vx_k)
 368              		.loc 1 69 17 view .LVU104
 369 009c 6A4B     		ldr	r3, .L62+40
 370 009e 83ED005A 		vstr.32	s10, [r3]
  70:Application/ChassisTask/chassis_task.c ****             tempVal = Vx_k;
 371              		.loc 1 70 9 is_stmt 1 view .LVU105
  70:Application/ChassisTask/chassis_task.c ****             tempVal = Vx_k;
 372              		.loc 1 70 21 is_stmt 0 view .LVU106
 373 00a2 6A4B     		ldr	r3, .L62+44
 374 00a4 93ED007A 		vldr.32	s14, [r3]
  70:Application/ChassisTask/chassis_task.c ****             tempVal = Vx_k;
 375              		.loc 1 70 12 view .LVU107
 376 00a8 B4EEC75A 		vcmpe.f32	s10, s14
 377 00ac F1EE10FA 		vmrs	APSR_nzcv, FPSCR
 378 00b0 69DD     		ble	.L56
  71:Application/ChassisTask/chassis_task.c ****         else if (tempVal < -Vx_k)
 379              		.loc 1 71 13 is_stmt 1 view .LVU108
  71:Application/ChassisTask/chassis_task.c ****         else if (tempVal < -Vx_k)
 380              		.loc 1 71 21 is_stmt 0 view .LVU109
 381 00b2 654B     		ldr	r3, .L62+40
 382 00b4 83ED007A 		vstr.32	s14, [r3]
 383              	.L35:
  74:Application/ChassisTask/chassis_task.c ****     }
 384              		.loc 1 74 9 is_stmt 1 view .LVU110
  74:Application/ChassisTask/chassis_task.c ****     }
 385              		.loc 1 74 31 is_stmt 0 view .LVU111
 386 00b8 634B     		ldr	r3, .L62+40
 387 00ba 93ED007A 		vldr.32	s14, [r3]
 388 00be 26EE076A 		vmul.f32	s12, s12, s14
  74:Application/ChassisTask/chassis_task.c ****     }
 389              		.loc 1 74 20 view .LVU112
 390 00c2 76EE866A 		vadd.f32	s13, s13, s12
 391 00c6 5D4B     		ldr	r3, .L62+28
 392 00c8 C3ED006A 		vstr.32	s13, [r3]
 393              	.L37:
  83:Application/ChassisTask/chassis_task.c ****     {
 394              		.loc 1 83 5 is_stmt 1 view .LVU113
  83:Application/ChassisTask/chassis_task.c ****     {
 395              		.loc 1 83 9 is_stmt 0 view .LVU114
 396 00cc B0EEE77A 		vabs.f32	s14, s15
  83:Application/ChassisTask/chassis_task.c ****     {
 397              		.loc 1 83 8 view .LVU115
 398 00d0 DFED596A 		vldr.32	s13, .L62+24
 399 00d4 B4EEE67A 		vcmpe.f32	s14, s13
ARM GAS  C:\Users\LENOVO\AppData\Local\Temp\ccqW8RyF.s 			page 13


 400 00d8 F1EE10FA 		vmrs	APSR_nzcv, FPSCR
 401 00dc 40F38480 		ble	.L57
  85:Application/ChassisTask/chassis_task.c ****             Chassis.Vy = 0;
 402              		.loc 1 85 9 is_stmt 1 view .LVU116
  85:Application/ChassisTask/chassis_task.c ****             Chassis.Vy = 0;
 403              		.loc 1 85 20 is_stmt 0 view .LVU117
 404 00e0 564B     		ldr	r3, .L62+28
 405 00e2 93ED017A 		vldr.32	s14, [r3, #4]
  85:Application/ChassisTask/chassis_task.c ****             Chassis.Vy = 0;
 406              		.loc 1 85 24 view .LVU118
 407 00e6 27EE877A 		vmul.f32	s14, s15, s14
  85:Application/ChassisTask/chassis_task.c ****             Chassis.Vy = 0;
 408              		.loc 1 85 12 view .LVU119
 409 00ea B5EEC07A 		vcmpe.f32	s14, #0
 410 00ee F1EE10FA 		vmrs	APSR_nzcv, FPSCR
 411 00f2 6BD4     		bmi	.L61
 412              	.L40:
  87:Application/ChassisTask/chassis_task.c ****         if (tempVal > Vy_k)
 413              		.loc 1 87 9 is_stmt 1 view .LVU120
  87:Application/ChassisTask/chassis_task.c ****         if (tempVal > Vy_k)
 414              		.loc 1 87 37 is_stmt 0 view .LVU121
 415 00f4 514B     		ldr	r3, .L62+28
 416 00f6 93ED017A 		vldr.32	s14, [r3, #4]
  87:Application/ChassisTask/chassis_task.c ****         if (tempVal > Vy_k)
 417              		.loc 1 87 28 view .LVU122
 418 00fa 77EEC77A 		vsub.f32	s15, s15, s14
  87:Application/ChassisTask/chassis_task.c ****         if (tempVal > Vy_k)
 419              		.loc 1 87 48 view .LVU123
 420 00fe 504B     		ldr	r3, .L62+32
 421 0100 D3ED006A 		vldr.32	s13, [r3]
 422 0104 9FED4F6A 		vldr.32	s12, .L62+36
 423 0108 36EE866A 		vadd.f32	s12, s13, s12
  87:Application/ChassisTask/chassis_task.c ****         if (tempVal > Vy_k)
 424              		.loc 1 87 42 view .LVU124
 425 010c C7EE865A 		vdiv.f32	s11, s15, s12
  87:Application/ChassisTask/chassis_task.c ****         if (tempVal > Vy_k)
 426              		.loc 1 87 17 view .LVU125
 427 0110 4D4B     		ldr	r3, .L62+40
 428 0112 C3ED005A 		vstr.32	s11, [r3]
  88:Application/ChassisTask/chassis_task.c ****             tempVal = Vy_k;
 429              		.loc 1 88 9 is_stmt 1 view .LVU126
  88:Application/ChassisTask/chassis_task.c ****             tempVal = Vy_k;
 430              		.loc 1 88 21 is_stmt 0 view .LVU127
 431 0116 4E4B     		ldr	r3, .L62+48
 432 0118 D3ED007A 		vldr.32	s15, [r3]
  88:Application/ChassisTask/chassis_task.c ****             tempVal = Vy_k;
 433              		.loc 1 88 12 view .LVU128
 434 011c F4EEE75A 		vcmpe.f32	s11, s15
 435 0120 F1EE10FA 		vmrs	APSR_nzcv, FPSCR
 436 0124 55DD     		ble	.L58
  89:Application/ChassisTask/chassis_task.c ****         else if (tempVal < -Vy_k)
 437              		.loc 1 89 13 is_stmt 1 view .LVU129
  89:Application/ChassisTask/chassis_task.c ****         else if (tempVal < -Vy_k)
 438              		.loc 1 89 21 is_stmt 0 view .LVU130
 439 0126 484B     		ldr	r3, .L62+40
 440 0128 C3ED007A 		vstr.32	s15, [r3]
 441              	.L44:
ARM GAS  C:\Users\LENOVO\AppData\Local\Temp\ccqW8RyF.s 			page 14


  92:Application/ChassisTask/chassis_task.c ****     }
 442              		.loc 1 92 9 is_stmt 1 view .LVU131
  92:Application/ChassisTask/chassis_task.c ****     }
 443              		.loc 1 92 28 is_stmt 0 view .LVU132
 444 012c 464B     		ldr	r3, .L62+40
 445 012e D3ED007A 		vldr.32	s15, [r3]
 446 0132 9FED486A 		vldr.32	s12, .L62+52
 447 0136 67EE867A 		vmul.f32	s15, s15, s12
  92:Application/ChassisTask/chassis_task.c ****     }
 448              		.loc 1 92 38 view .LVU133
 449 013a 66EEA76A 		vmul.f32	s13, s13, s15
  92:Application/ChassisTask/chassis_task.c ****     }
 450              		.loc 1 92 20 view .LVU134
 451 013e 37EE267A 		vadd.f32	s14, s14, s13
 452 0142 3E4B     		ldr	r3, .L62+28
 453 0144 83ED017A 		vstr.32	s14, [r3, #4]
 454              	.L46:
 100:Application/ChassisTask/chassis_task.c ****     Chassis.Vy = float_constrain(Chassis.Vy, -2.64f, 2.64f);
 455              		.loc 1 100 5 is_stmt 1 view .LVU135
 100:Application/ChassisTask/chassis_task.c ****     Chassis.Vy = float_constrain(Chassis.Vy, -2.64f, 2.64f);
 456              		.loc 1 100 18 is_stmt 0 view .LVU136
 457 0148 DFED398A 		vldr.32	s17, .L62+16
 458 014c 9FED428A 		vldr.32	s16, .L62+56
 459 0150 3A4C     		ldr	r4, .L62+28
 460 0152 B0EE681A 		vmov.f32	s2, s17
 461 0156 F0EE480A 		vmov.f32	s1, s16
 462 015a 94ED000A 		vldr.32	s0, [r4]
 463 015e FFF7FEFF 		bl	float_constrain
 464              	.LVL11:
 100:Application/ChassisTask/chassis_task.c ****     Chassis.Vy = float_constrain(Chassis.Vy, -2.64f, 2.64f);
 465              		.loc 1 100 16 discriminator 1 view .LVU137
 466 0162 84ED000A 		vstr.32	s0, [r4]
 101:Application/ChassisTask/chassis_task.c **** }
 467              		.loc 1 101 5 is_stmt 1 view .LVU138
 101:Application/ChassisTask/chassis_task.c **** }
 468              		.loc 1 101 18 is_stmt 0 view .LVU139
 469 0166 B0EE681A 		vmov.f32	s2, s17
 470 016a F0EE480A 		vmov.f32	s1, s16
 471 016e 94ED010A 		vldr.32	s0, [r4, #4]
 472 0172 FFF7FEFF 		bl	float_constrain
 473              	.LVL12:
 101:Application/ChassisTask/chassis_task.c **** }
 474              		.loc 1 101 16 discriminator 1 view .LVU140
 475 0176 84ED010A 		vstr.32	s0, [r4, #4]
 102:Application/ChassisTask/chassis_task.c **** 
 476              		.loc 1 102 1 view .LVU141
 477 017a BDEC028B 		vldm	sp!, {d8}
 478              	.LCFI4:
 479              		.cfi_remember_state
 480              		.cfi_restore 80
 481              		.cfi_restore 81
 482              		.cfi_def_cfa_offset 8
 483 017e 10BD     		pop	{r4, pc}
 484              	.L60:
 485              	.LCFI5:
 486              		.cfi_restore_state
  68:Application/ChassisTask/chassis_task.c ****         tempVal = (Temp_Vx - Chassis.Vx) / (RC + dt);
ARM GAS  C:\Users\LENOVO\AppData\Local\Temp\ccqW8RyF.s 			page 15


 487              		.loc 1 68 13 is_stmt 1 view .LVU142
  68:Application/ChassisTask/chassis_task.c ****         tempVal = (Temp_Vx - Chassis.Vx) / (RC + dt);
 488              		.loc 1 68 24 is_stmt 0 view .LVU143
 489 0180 0022     		movs	r2, #0
 490 0182 1A60     		str	r2, [r3]	@ float
 491 0184 7CE7     		b	.L31
 492              	.L56:
  72:Application/ChassisTask/chassis_task.c ****             tempVal = -Vx_k;
 493              		.loc 1 72 14 is_stmt 1 view .LVU144
  72:Application/ChassisTask/chassis_task.c ****             tempVal = -Vx_k;
 494              		.loc 1 72 28 is_stmt 0 view .LVU145
 495 0186 B1EE477A 		vneg.f32	s14, s14
  72:Application/ChassisTask/chassis_task.c ****             tempVal = -Vx_k;
 496              		.loc 1 72 17 view .LVU146
 497 018a B4EEC75A 		vcmpe.f32	s10, s14
 498 018e F1EE10FA 		vmrs	APSR_nzcv, FPSCR
 499 0192 91D5     		bpl	.L35
  73:Application/ChassisTask/chassis_task.c ****         Chassis.Vx += tempVal * dt;
 500              		.loc 1 73 13 is_stmt 1 view .LVU147
  73:Application/ChassisTask/chassis_task.c ****         Chassis.Vx += tempVal * dt;
 501              		.loc 1 73 21 is_stmt 0 view .LVU148
 502 0194 2C4B     		ldr	r3, .L62+40
 503 0196 83ED007A 		vstr.32	s14, [r3]
 504 019a 8DE7     		b	.L35
 505              	.L55:
  78:Application/ChassisTask/chassis_task.c ****         Chassis.Vx += tempVal * dt;
 506              		.loc 1 78 9 is_stmt 1 view .LVU149
  78:Application/ChassisTask/chassis_task.c ****         Chassis.Vx += tempVal * dt;
 507              		.loc 1 78 37 is_stmt 0 view .LVU150
 508 019c 274B     		ldr	r3, .L62+28
 509 019e D3ED006A 		vldr.32	s13, [r3]
  78:Application/ChassisTask/chassis_task.c ****         Chassis.Vx += tempVal * dt;
 510              		.loc 1 78 28 view .LVU151
 511 01a2 37EE667A 		vsub.f32	s14, s14, s13
  78:Application/ChassisTask/chassis_task.c ****         Chassis.Vx += tempVal * dt;
 512              		.loc 1 78 51 view .LVU152
 513 01a6 264A     		ldr	r2, .L62+32
 514 01a8 92ED006A 		vldr.32	s12, [r2]
 515 01ac DFED2B5A 		vldr.32	s11, .L62+60
 516 01b0 76EE255A 		vadd.f32	s11, s12, s11
  78:Application/ChassisTask/chassis_task.c ****         Chassis.Vx += tempVal * dt;
 517              		.loc 1 78 42 view .LVU153
 518 01b4 87EE255A 		vdiv.f32	s10, s14, s11
  78:Application/ChassisTask/chassis_task.c ****         Chassis.Vx += tempVal * dt;
 519              		.loc 1 78 17 view .LVU154
 520 01b8 234A     		ldr	r2, .L62+40
 521 01ba 82ED005A 		vstr.32	s10, [r2]
  79:Application/ChassisTask/chassis_task.c ****     }
 522              		.loc 1 79 9 is_stmt 1 view .LVU155
  79:Application/ChassisTask/chassis_task.c ****     }
 523              		.loc 1 79 31 is_stmt 0 view .LVU156
 524 01be 26EE056A 		vmul.f32	s12, s12, s10
  79:Application/ChassisTask/chassis_task.c ****     }
 525              		.loc 1 79 20 view .LVU157
 526 01c2 76EE866A 		vadd.f32	s13, s13, s12
 527 01c6 C3ED006A 		vstr.32	s13, [r3]
 528 01ca 7FE7     		b	.L37
ARM GAS  C:\Users\LENOVO\AppData\Local\Temp\ccqW8RyF.s 			page 16


 529              	.L61:
  86:Application/ChassisTask/chassis_task.c ****         tempVal = (Temp_Vy - Chassis.Vy) / (RC + dt);
 530              		.loc 1 86 13 is_stmt 1 view .LVU158
  86:Application/ChassisTask/chassis_task.c ****         tempVal = (Temp_Vy - Chassis.Vy) / (RC + dt);
 531              		.loc 1 86 24 is_stmt 0 view .LVU159
 532 01cc 0022     		movs	r2, #0
 533 01ce 5A60     		str	r2, [r3, #4]	@ float
 534 01d0 90E7     		b	.L40
 535              	.L58:
  90:Application/ChassisTask/chassis_task.c ****             tempVal = -Vy_k;
 536              		.loc 1 90 14 is_stmt 1 view .LVU160
  90:Application/ChassisTask/chassis_task.c ****             tempVal = -Vy_k;
 537              		.loc 1 90 28 is_stmt 0 view .LVU161
 538 01d2 F1EE677A 		vneg.f32	s15, s15
  90:Application/ChassisTask/chassis_task.c ****             tempVal = -Vy_k;
 539              		.loc 1 90 17 view .LVU162
 540 01d6 F4EEE75A 		vcmpe.f32	s11, s15
 541 01da F1EE10FA 		vmrs	APSR_nzcv, FPSCR
 542 01de A5D5     		bpl	.L44
  91:Application/ChassisTask/chassis_task.c ****         Chassis.Vy += 0.8f * tempVal * dt;
 543              		.loc 1 91 13 is_stmt 1 view .LVU163
  91:Application/ChassisTask/chassis_task.c ****         Chassis.Vy += 0.8f * tempVal * dt;
 544              		.loc 1 91 21 is_stmt 0 view .LVU164
 545 01e0 194B     		ldr	r3, .L62+40
 546 01e2 C3ED007A 		vstr.32	s15, [r3]
 547 01e6 A1E7     		b	.L44
 548              	.L57:
  96:Application/ChassisTask/chassis_task.c ****         Chassis.Vy += 0.8f * tempVal * dt;
 549              		.loc 1 96 9 is_stmt 1 view .LVU165
  96:Application/ChassisTask/chassis_task.c ****         Chassis.Vy += 0.8f * tempVal * dt;
 550              		.loc 1 96 37 is_stmt 0 view .LVU166
 551 01e8 144B     		ldr	r3, .L62+28
 552 01ea 93ED017A 		vldr.32	s14, [r3, #4]
  96:Application/ChassisTask/chassis_task.c ****         Chassis.Vy += 0.8f * tempVal * dt;
 553              		.loc 1 96 28 view .LVU167
 554 01ee 77EEC77A 		vsub.f32	s15, s15, s14
  96:Application/ChassisTask/chassis_task.c ****         Chassis.Vy += 0.8f * tempVal * dt;
 555              		.loc 1 96 51 view .LVU168
 556 01f2 134A     		ldr	r2, .L62+32
 557 01f4 D2ED006A 		vldr.32	s13, [r2]
 558 01f8 DFED185A 		vldr.32	s11, .L62+60
 559 01fc 76EEA55A 		vadd.f32	s11, s13, s11
  96:Application/ChassisTask/chassis_task.c ****         Chassis.Vy += 0.8f * tempVal * dt;
 560              		.loc 1 96 42 view .LVU169
 561 0200 87EEA56A 		vdiv.f32	s12, s15, s11
  96:Application/ChassisTask/chassis_task.c ****         Chassis.Vy += 0.8f * tempVal * dt;
 562              		.loc 1 96 17 view .LVU170
 563 0204 104A     		ldr	r2, .L62+40
 564 0206 82ED006A 		vstr.32	s12, [r2]
  97:Application/ChassisTask/chassis_task.c ****     }
 565              		.loc 1 97 9 is_stmt 1 view .LVU171
  97:Application/ChassisTask/chassis_task.c ****     }
 566              		.loc 1 97 28 is_stmt 0 view .LVU172
 567 020a DFED127A 		vldr.32	s15, .L62+52
 568 020e 26EE276A 		vmul.f32	s12, s12, s15
  97:Application/ChassisTask/chassis_task.c ****     }
 569              		.loc 1 97 38 view .LVU173
ARM GAS  C:\Users\LENOVO\AppData\Local\Temp\ccqW8RyF.s 			page 17


 570 0212 66EE866A 		vmul.f32	s13, s13, s12
  97:Application/ChassisTask/chassis_task.c ****     }
 571              		.loc 1 97 20 view .LVU174
 572 0216 37EE267A 		vadd.f32	s14, s14, s13
 573 021a 83ED017A 		vstr.32	s14, [r3, #4]
 574 021e 93E7     		b	.L46
 575              	.L63:
 576              		.align	2
 577              	.L62:
 578 0220 00000000 		.word	Temp_Vx.5
 579 0224 00000000 		.word	0
 580 0228 00000000 		.word	Temp_Vy.4
 581 022c 00000000 		.word	remote_control
 582 0230 C3F52840 		.word	1076426179
 583 0234 00002544 		.word	1143275520
 584 0238 6F12833A 		.word	981668463
 585 023c 00000000 		.word	Chassis
 586 0240 00000000 		.word	dt
 587 0244 BD378635 		.word	897988541
 588 0248 00000000 		.word	tempVal.2
 589 024c 00000000 		.word	Vx_k
 590 0250 00000000 		.word	Vy_k
 591 0254 CDCC4C3F 		.word	1061997773
 592 0258 C3F528C0 		.word	-1071057469
 593 025c 0AD7233C 		.word	1008981770
 594              		.cfi_endproc
 595              	.LFE170:
 597              		.section	.text.Chassis_Set_Control,"ax",%progbits
 598              		.align	1
 599              		.syntax unified
 600              		.thumb
 601              		.thumb_func
 603              	Chassis_Set_Control:
 604              	.LFB172:
 124:Application/ChassisTask/chassis_task.c ****     float yaw_rad; // IMU Yaw角(弧度) — 对标百零一 SpinningValidTheta
 605              		.loc 1 124 1 is_stmt 1 view -0
 606              		.cfi_startproc
 607              		@ args = 0, pretend = 0, frame = 0
 608              		@ frame_needed = 0, uses_anonymous_args = 0
 609 0000 38B5     		push	{r3, r4, r5, lr}
 610              	.LCFI6:
 611              		.cfi_def_cfa_offset 16
 612              		.cfi_offset 3, -16
 613              		.cfi_offset 4, -12
 614              		.cfi_offset 5, -8
 615              		.cfi_offset 14, -4
 616 0002 2DED028B 		vpush.64	{d8}
 617              	.LCFI7:
 618              		.cfi_def_cfa_offset 24
 619              		.cfi_offset 80, -24
 620              		.cfi_offset 81, -20
 125:Application/ChassisTask/chassis_task.c **** 
 621              		.loc 1 125 5 view .LVU176
 127:Application/ChassisTask/chassis_task.c ****     {
 622              		.loc 1 127 5 view .LVU177
 127:Application/ChassisTask/chassis_task.c ****     {
 623              		.loc 1 127 20 is_stmt 0 view .LVU178
ARM GAS  C:\Users\LENOVO\AppData\Local\Temp\ccqW8RyF.s 			page 18


 624 0006 614B     		ldr	r3, .L71
 625 0008 93F82C30 		ldrb	r3, [r3, #44]	@ zero_extendqisi2
 127:Application/ChassisTask/chassis_task.c ****     {
 626              		.loc 1 127 5 view .LVU179
 627 000c 002B     		cmp	r3, #0
 628 000e 40F0B680 		bne	.L65
 131:Application/ChassisTask/chassis_task.c ****         {
 629              		.loc 1 131 9 is_stmt 1 view .LVU180
 131:Application/ChassisTask/chassis_task.c ****         {
 630              		.loc 1 131 27 is_stmt 0 view .LVU181
 631 0012 5F4B     		ldr	r3, .L71+4
 632 0014 1B7B     		ldrb	r3, [r3, #12]	@ zero_extendqisi2
 131:Application/ChassisTask/chassis_task.c ****         {
 633              		.loc 1 131 12 view .LVU182
 634 0016 022B     		cmp	r3, #2
 635 0018 00F0AD80 		beq	.L70
 137:Application/ChassisTask/chassis_task.c ****         }
 636              		.loc 1 137 13 is_stmt 1 view .LVU183
 137:Application/ChassisTask/chassis_task.c ****         }
 637              		.loc 1 137 24 is_stmt 0 view .LVU184
 638 001c 5B4B     		ldr	r3, .L71
 639 001e 0022     		movs	r2, #0
 640 0020 9A60     		str	r2, [r3, #8]	@ float
 641              	.L67:
 141:Application/ChassisTask/chassis_task.c **** 
 642              		.loc 1 141 9 is_stmt 1 view .LVU185
 141:Application/ChassisTask/chassis_task.c **** 
 643              		.loc 1 141 23 is_stmt 0 view .LVU186
 644 0022 5C4B     		ldr	r3, .L71+8
 645 0024 D3ED0A7A 		vldr.32	s15, [r3, #40]
 141:Application/ChassisTask/chassis_task.c **** 
 646              		.loc 1 141 28 view .LVU187
 647 0028 9FED5B7A 		vldr.32	s14, .L71+12
 648 002c 67EE877A 		vmul.f32	s15, s15, s14
 141:Application/ChassisTask/chassis_task.c **** 
 649              		.loc 1 141 17 view .LVU188
 650 0030 9FED5A7A 		vldr.32	s14, .L71+16
 651 0034 C7EE878A 		vdiv.f32	s17, s15, s14
 652              	.LVL13:
 144:Application/ChassisTask/chassis_task.c ****         Chassis.VyTransfer =  user_cos(yaw_rad) * Chassis.Vx + user_sin(yaw_rad) * Chassis.Vy;
 653              		.loc 1 144 9 is_stmt 1 view .LVU189
 144:Application/ChassisTask/chassis_task.c ****         Chassis.VyTransfer =  user_cos(yaw_rad) * Chassis.Vx + user_sin(yaw_rad) * Chassis.Vy;
 654              		.loc 1 144 31 is_stmt 0 view .LVU190
 655 0038 B0EE680A 		vmov.f32	s0, s17
 656 003c FFF7FEFF 		bl	arm_sin_f32
 657              	.LVL14:
 144:Application/ChassisTask/chassis_task.c ****         Chassis.VyTransfer =  user_cos(yaw_rad) * Chassis.Vx + user_sin(yaw_rad) * Chassis.Vy;
 658              		.loc 1 144 58 discriminator 1 view .LVU191
 659 0040 524C     		ldr	r4, .L71
 660 0042 D4ED007A 		vldr.32	s15, [r4]
 144:Application/ChassisTask/chassis_task.c ****         Chassis.VyTransfer =  user_cos(yaw_rad) * Chassis.Vx + user_sin(yaw_rad) * Chassis.Vy;
 661              		.loc 1 144 49 discriminator 1 view .LVU192
 662 0046 20EE278A 		vmul.f32	s16, s0, s15
 144:Application/ChassisTask/chassis_task.c ****         Chassis.VyTransfer =  user_cos(yaw_rad) * Chassis.Vx + user_sin(yaw_rad) * Chassis.Vy;
 663              		.loc 1 144 64 discriminator 1 view .LVU193
 664 004a B0EE680A 		vmov.f32	s0, s17
 665 004e FFF7FEFF 		bl	arm_cos_f32
ARM GAS  C:\Users\LENOVO\AppData\Local\Temp\ccqW8RyF.s 			page 19


 666              	.LVL15:
 144:Application/ChassisTask/chassis_task.c ****         Chassis.VyTransfer =  user_cos(yaw_rad) * Chassis.Vx + user_sin(yaw_rad) * Chassis.Vy;
 667              		.loc 1 144 91 discriminator 2 view .LVU194
 668 0052 D4ED017A 		vldr.32	s15, [r4, #4]
 144:Application/ChassisTask/chassis_task.c ****         Chassis.VyTransfer =  user_cos(yaw_rad) * Chassis.Vx + user_sin(yaw_rad) * Chassis.Vy;
 669              		.loc 1 144 82 discriminator 2 view .LVU195
 670 0056 20EE270A 		vmul.f32	s0, s0, s15
 144:Application/ChassisTask/chassis_task.c ****         Chassis.VyTransfer =  user_cos(yaw_rad) * Chassis.Vx + user_sin(yaw_rad) * Chassis.Vy;
 671              		.loc 1 144 62 discriminator 2 view .LVU196
 672 005a 38EE408A 		vsub.f32	s16, s16, s0
 144:Application/ChassisTask/chassis_task.c ****         Chassis.VyTransfer =  user_cos(yaw_rad) * Chassis.Vx + user_sin(yaw_rad) * Chassis.Vy;
 673              		.loc 1 144 28 discriminator 2 view .LVU197
 674 005e 84ED038A 		vstr.32	s16, [r4, #12]
 145:Application/ChassisTask/chassis_task.c ****         break;
 675              		.loc 1 145 9 is_stmt 1 view .LVU198
 145:Application/ChassisTask/chassis_task.c ****         break;
 676              		.loc 1 145 31 is_stmt 0 view .LVU199
 677 0062 B0EE680A 		vmov.f32	s0, s17
 678 0066 FFF7FEFF 		bl	arm_cos_f32
 679              	.LVL16:
 145:Application/ChassisTask/chassis_task.c ****         break;
 680              		.loc 1 145 58 discriminator 1 view .LVU200
 681 006a D4ED007A 		vldr.32	s15, [r4]
 145:Application/ChassisTask/chassis_task.c ****         break;
 682              		.loc 1 145 49 discriminator 1 view .LVU201
 683 006e 20EE278A 		vmul.f32	s16, s0, s15
 145:Application/ChassisTask/chassis_task.c ****         break;
 684              		.loc 1 145 64 discriminator 1 view .LVU202
 685 0072 B0EE680A 		vmov.f32	s0, s17
 686 0076 FFF7FEFF 		bl	arm_sin_f32
 687              	.LVL17:
 145:Application/ChassisTask/chassis_task.c ****         break;
 688              		.loc 1 145 91 discriminator 2 view .LVU203
 689 007a D4ED017A 		vldr.32	s15, [r4, #4]
 145:Application/ChassisTask/chassis_task.c ****         break;
 690              		.loc 1 145 82 discriminator 2 view .LVU204
 691 007e 20EE270A 		vmul.f32	s0, s0, s15
 145:Application/ChassisTask/chassis_task.c ****         break;
 692              		.loc 1 145 62 discriminator 2 view .LVU205
 693 0082 38EE008A 		vadd.f32	s16, s16, s0
 145:Application/ChassisTask/chassis_task.c ****         break;
 694              		.loc 1 145 28 discriminator 2 view .LVU206
 695 0086 84ED048A 		vstr.32	s16, [r4, #16]
 146:Application/ChassisTask/chassis_task.c **** 
 696              		.loc 1 146 9 is_stmt 1 view .LVU207
 697              	.LVL18:
 698              	.L68:
 157:Application/ChassisTask/chassis_task.c ****     Chassis.V2 = ((Chassis.VxTransfer + Chassis.VyTransfer) * Chassis.VelocityRatio + (WHEEL_OPPOSI
 699              		.loc 1 157 5 view .LVU208
 157:Application/ChassisTask/chassis_task.c ****     Chassis.V2 = ((Chassis.VxTransfer + Chassis.VyTransfer) * Chassis.VelocityRatio + (WHEEL_OPPOSI
 700              		.loc 1 157 27 is_stmt 0 view .LVU209
 701 008a 404C     		ldr	r4, .L71
 702 008c 94ED037A 		vldr.32	s14, [r4, #12]
 157:Application/ChassisTask/chassis_task.c ****     Chassis.V2 = ((Chassis.VxTransfer + Chassis.VyTransfer) * Chassis.VelocityRatio + (WHEEL_OPPOSI
 703              		.loc 1 157 48 view .LVU210
 704 0090 94ED045A 		vldr.32	s10, [r4, #16]
 157:Application/ChassisTask/chassis_task.c ****     Chassis.V2 = ((Chassis.VxTransfer + Chassis.VyTransfer) * Chassis.VelocityRatio + (WHEEL_OPPOSI
ARM GAS  C:\Users\LENOVO\AppData\Local\Temp\ccqW8RyF.s 			page 20


 705              		.loc 1 157 39 view .LVU211
 706 0094 37EE456A 		vsub.f32	s12, s14, s10
 157:Application/ChassisTask/chassis_task.c ****     Chassis.V2 = ((Chassis.VxTransfer + Chassis.VyTransfer) * Chassis.VelocityRatio + (WHEEL_OPPOSI
 707              		.loc 1 157 70 view .LVU212
 708 0098 D4ED056A 		vldr.32	s13, [r4, #20]
 157:Application/ChassisTask/chassis_task.c ****     Chassis.V2 = ((Chassis.VxTransfer + Chassis.VyTransfer) * Chassis.VelocityRatio + (WHEEL_OPPOSI
 709              		.loc 1 157 61 view .LVU213
 710 009c 26EE266A 		vmul.f32	s12, s12, s13
 157:Application/ChassisTask/chassis_task.c ****     Chassis.V2 = ((Chassis.VxTransfer + Chassis.VyTransfer) * Chassis.VelocityRatio + (WHEEL_OPPOSI
 711              		.loc 1 157 121 view .LVU214
 712 00a0 D4ED027A 		vldr.32	s15, [r4, #8]
 157:Application/ChassisTask/chassis_task.c ****     Chassis.V2 = ((Chassis.VxTransfer + Chassis.VyTransfer) * Chassis.VelocityRatio + (WHEEL_OPPOSI
 713              		.loc 1 157 112 view .LVU215
 714 00a4 DFED3E5A 		vldr.32	s11, .L71+20
 715 00a8 67EEA57A 		vmul.f32	s15, s15, s11
 157:Application/ChassisTask/chassis_task.c ****     Chassis.V2 = ((Chassis.VxTransfer + Chassis.VyTransfer) * Chassis.VelocityRatio + (WHEEL_OPPOSI
 716              		.loc 1 157 85 view .LVU216
 717 00ac 36EE276A 		vadd.f32	s12, s12, s15
 157:Application/ChassisTask/chassis_task.c ****     Chassis.V2 = ((Chassis.VxTransfer + Chassis.VyTransfer) * Chassis.VelocityRatio + (WHEEL_OPPOSI
 718              		.loc 1 157 126 view .LVU217
 719 00b0 DFED3C5A 		vldr.32	s11, .L71+24
 720 00b4 C6EE254A 		vdiv.f32	s9, s12, s11
 157:Application/ChassisTask/chassis_task.c ****     Chassis.V2 = ((Chassis.VxTransfer + Chassis.VyTransfer) * Chassis.VelocityRatio + (WHEEL_OPPOSI
 721              		.loc 1 157 16 view .LVU218
 722 00b8 C4ED074A 		vstr.32	s9, [r4, #28]
 158:Application/ChassisTask/chassis_task.c ****     Chassis.V3 = ((-Chassis.VxTransfer + Chassis.VyTransfer) * Chassis.VelocityRatio + (WHEEL_OPPOS
 723              		.loc 1 158 5 is_stmt 1 view .LVU219
 158:Application/ChassisTask/chassis_task.c ****     Chassis.V3 = ((-Chassis.VxTransfer + Chassis.VyTransfer) * Chassis.VelocityRatio + (WHEEL_OPPOS
 724              		.loc 1 158 39 is_stmt 0 view .LVU220
 725 00bc 37EE056A 		vadd.f32	s12, s14, s10
 158:Application/ChassisTask/chassis_task.c ****     Chassis.V3 = ((-Chassis.VxTransfer + Chassis.VyTransfer) * Chassis.VelocityRatio + (WHEEL_OPPOS
 726              		.loc 1 158 61 view .LVU221
 727 00c0 26EE866A 		vmul.f32	s12, s13, s12
 158:Application/ChassisTask/chassis_task.c ****     Chassis.V3 = ((-Chassis.VxTransfer + Chassis.VyTransfer) * Chassis.VelocityRatio + (WHEEL_OPPOS
 728              		.loc 1 158 85 view .LVU222
 729 00c4 37EE866A 		vadd.f32	s12, s15, s12
 158:Application/ChassisTask/chassis_task.c ****     Chassis.V3 = ((-Chassis.VxTransfer + Chassis.VyTransfer) * Chassis.VelocityRatio + (WHEEL_OPPOS
 730              		.loc 1 158 126 view .LVU223
 731 00c8 C6EE254A 		vdiv.f32	s9, s12, s11
 158:Application/ChassisTask/chassis_task.c ****     Chassis.V3 = ((-Chassis.VxTransfer + Chassis.VyTransfer) * Chassis.VelocityRatio + (WHEEL_OPPOS
 732              		.loc 1 158 16 view .LVU224
 733 00cc C4ED084A 		vstr.32	s9, [r4, #32]
 159:Application/ChassisTask/chassis_task.c ****     Chassis.V4 = ((-Chassis.VxTransfer - Chassis.VyTransfer) * Chassis.VelocityRatio + (WHEEL_OPPOS
 734              		.loc 1 159 5 is_stmt 1 view .LVU225
 159:Application/ChassisTask/chassis_task.c ****     Chassis.V4 = ((-Chassis.VxTransfer - Chassis.VyTransfer) * Chassis.VelocityRatio + (WHEEL_OPPOS
 735              		.loc 1 159 40 is_stmt 0 view .LVU226
 736 00d0 35EE476A 		vsub.f32	s12, s10, s14
 159:Application/ChassisTask/chassis_task.c ****     Chassis.V4 = ((-Chassis.VxTransfer - Chassis.VyTransfer) * Chassis.VelocityRatio + (WHEEL_OPPOS
 737              		.loc 1 159 62 view .LVU227
 738 00d4 26EE866A 		vmul.f32	s12, s13, s12
 159:Application/ChassisTask/chassis_task.c ****     Chassis.V4 = ((-Chassis.VxTransfer - Chassis.VyTransfer) * Chassis.VelocityRatio + (WHEEL_OPPOS
 739              		.loc 1 159 86 view .LVU228
 740 00d8 37EE866A 		vadd.f32	s12, s15, s12
 159:Application/ChassisTask/chassis_task.c ****     Chassis.V4 = ((-Chassis.VxTransfer - Chassis.VyTransfer) * Chassis.VelocityRatio + (WHEEL_OPPOS
 741              		.loc 1 159 127 view .LVU229
 742 00dc C6EE254A 		vdiv.f32	s9, s12, s11
 159:Application/ChassisTask/chassis_task.c ****     Chassis.V4 = ((-Chassis.VxTransfer - Chassis.VyTransfer) * Chassis.VelocityRatio + (WHEEL_OPPOS
ARM GAS  C:\Users\LENOVO\AppData\Local\Temp\ccqW8RyF.s 			page 21


 743              		.loc 1 159 16 view .LVU230
 744 00e0 C4ED094A 		vstr.32	s9, [r4, #36]
 160:Application/ChassisTask/chassis_task.c **** 
 745              		.loc 1 160 5 is_stmt 1 view .LVU231
 160:Application/ChassisTask/chassis_task.c **** 
 746              		.loc 1 160 20 is_stmt 0 view .LVU232
 747 00e4 B1EE477A 		vneg.f32	s14, s14
 160:Application/ChassisTask/chassis_task.c **** 
 748              		.loc 1 160 40 view .LVU233
 749 00e8 37EE457A 		vsub.f32	s14, s14, s10
 160:Application/ChassisTask/chassis_task.c **** 
 750              		.loc 1 160 62 view .LVU234
 751 00ec 66EE876A 		vmul.f32	s13, s13, s14
 160:Application/ChassisTask/chassis_task.c **** 
 752              		.loc 1 160 86 view .LVU235
 753 00f0 77EEA67A 		vadd.f32	s15, s15, s13
 160:Application/ChassisTask/chassis_task.c **** 
 754              		.loc 1 160 127 view .LVU236
 755 00f4 87EEA57A 		vdiv.f32	s14, s15, s11
 160:Application/ChassisTask/chassis_task.c **** 
 756              		.loc 1 160 16 view .LVU237
 757 00f8 84ED0A7A 		vstr.32	s14, [r4, #40]
 162:Application/ChassisTask/chassis_task.c **** 
 758              		.loc 1 162 5 is_stmt 1 view .LVU238
 759 00fc FFF7FEFF 		bl	Velocity_MAXLimit
 760              	.LVL19:
 165:Application/ChassisTask/chassis_task.c ****     Motor_Speed_Calculate(&Chassis.ChassisMotor[1], Chassis.ChassisMotor[1].Velocity_RPM / Chassis.
 761              		.loc 1 165 5 view .LVU239
 165:Application/ChassisTask/chassis_task.c ****     Motor_Speed_Calculate(&Chassis.ChassisMotor[1], Chassis.ChassisMotor[1].Velocity_RPM / Chassis.
 762              		.loc 1 165 76 is_stmt 0 view .LVU240
 763 0100 94ED0E0A 		vldr.32	s0, [r4, #56]
 165:Application/ChassisTask/chassis_task.c ****     Motor_Speed_Calculate(&Chassis.ChassisMotor[1], Chassis.ChassisMotor[1].Velocity_RPM / Chassis.
 764              		.loc 1 165 99 view .LVU241
 765 0104 04F5A555 		add	r5, r4, #5280
 766 0108 D5ED057A 		vldr.32	s15, [r5, #20]
 165:Application/ChassisTask/chassis_task.c ****     Motor_Speed_Calculate(&Chassis.ChassisMotor[1], Chassis.ChassisMotor[1].Velocity_RPM / Chassis.
 767              		.loc 1 165 5 view .LVU242
 768 010c D4ED070A 		vldr.32	s1, [r4, #28]
 769 0110 80EE270A 		vdiv.f32	s0, s0, s15
 770 0114 04F13000 		add	r0, r4, #48
 771 0118 FFF7FEFF 		bl	Motor_Speed_Calculate
 772              	.LVL20:
 166:Application/ChassisTask/chassis_task.c ****     Motor_Speed_Calculate(&Chassis.ChassisMotor[2], Chassis.ChassisMotor[2].Velocity_RPM / Chassis.
 773              		.loc 1 166 5 is_stmt 1 view .LVU243
 166:Application/ChassisTask/chassis_task.c ****     Motor_Speed_Calculate(&Chassis.ChassisMotor[2], Chassis.ChassisMotor[2].Velocity_RPM / Chassis.
 774              		.loc 1 166 76 is_stmt 0 view .LVU244
 775 011c 04F5AB63 		add	r3, r4, #1368
 776 0120 93ED000A 		vldr.32	s0, [r3]
 166:Application/ChassisTask/chassis_task.c ****     Motor_Speed_Calculate(&Chassis.ChassisMotor[2], Chassis.ChassisMotor[2].Velocity_RPM / Chassis.
 777              		.loc 1 166 99 view .LVU245
 778 0124 D5ED057A 		vldr.32	s15, [r5, #20]
 166:Application/ChassisTask/chassis_task.c ****     Motor_Speed_Calculate(&Chassis.ChassisMotor[2], Chassis.ChassisMotor[2].Velocity_RPM / Chassis.
 779              		.loc 1 166 5 view .LVU246
 780 0128 D4ED080A 		vldr.32	s1, [r4, #32]
 781 012c 80EE270A 		vdiv.f32	s0, s0, s15
 782 0130 04F5AA60 		add	r0, r4, #1360
 783 0134 FFF7FEFF 		bl	Motor_Speed_Calculate
ARM GAS  C:\Users\LENOVO\AppData\Local\Temp\ccqW8RyF.s 			page 22


 784              	.LVL21:
 167:Application/ChassisTask/chassis_task.c ****     Motor_Speed_Calculate(&Chassis.ChassisMotor[3], Chassis.ChassisMotor[3].Velocity_RPM / Chassis.
 785              		.loc 1 167 5 is_stmt 1 view .LVU247
 167:Application/ChassisTask/chassis_task.c ****     Motor_Speed_Calculate(&Chassis.ChassisMotor[3], Chassis.ChassisMotor[3].Velocity_RPM / Chassis.
 786              		.loc 1 167 76 is_stmt 0 view .LVU248
 787 0138 04F67823 		addw	r3, r4, #2680
 788 013c 93ED000A 		vldr.32	s0, [r3]
 167:Application/ChassisTask/chassis_task.c ****     Motor_Speed_Calculate(&Chassis.ChassisMotor[3], Chassis.ChassisMotor[3].Velocity_RPM / Chassis.
 789              		.loc 1 167 99 view .LVU249
 790 0140 D5ED057A 		vldr.32	s15, [r5, #20]
 167:Application/ChassisTask/chassis_task.c ****     Motor_Speed_Calculate(&Chassis.ChassisMotor[3], Chassis.ChassisMotor[3].Velocity_RPM / Chassis.
 791              		.loc 1 167 5 view .LVU250
 792 0144 D4ED090A 		vldr.32	s1, [r4, #36]
 793 0148 80EE270A 		vdiv.f32	s0, s0, s15
 794 014c 04F52760 		add	r0, r4, #2672
 795 0150 FFF7FEFF 		bl	Motor_Speed_Calculate
 796              	.LVL22:
 168:Application/ChassisTask/chassis_task.c **** }
 797              		.loc 1 168 5 is_stmt 1 view .LVU251
 168:Application/ChassisTask/chassis_task.c **** }
 798              		.loc 1 168 76 is_stmt 0 view .LVU252
 799 0154 04F69873 		addw	r3, r4, #3992
 800 0158 93ED000A 		vldr.32	s0, [r3]
 168:Application/ChassisTask/chassis_task.c **** }
 801              		.loc 1 168 99 view .LVU253
 802 015c D5ED057A 		vldr.32	s15, [r5, #20]
 168:Application/ChassisTask/chassis_task.c **** }
 803              		.loc 1 168 5 view .LVU254
 804 0160 D4ED0A0A 		vldr.32	s1, [r4, #40]
 805 0164 80EE270A 		vdiv.f32	s0, s0, s15
 806 0168 04F57960 		add	r0, r4, #3984
 807 016c FFF7FEFF 		bl	Motor_Speed_Calculate
 808              	.LVL23:
 169:Application/ChassisTask/chassis_task.c **** 
 809              		.loc 1 169 1 view .LVU255
 810 0170 BDEC028B 		vldm	sp!, {d8}
 811              	.LCFI8:
 812              		.cfi_remember_state
 813              		.cfi_restore 80
 814              		.cfi_restore 81
 815              		.cfi_def_cfa_offset 16
 816 0174 38BD     		pop	{r3, r4, r5, pc}
 817              	.L70:
 818              	.LCFI9:
 819              		.cfi_restore_state
 133:Application/ChassisTask/chassis_task.c ****         }
 820              		.loc 1 133 13 is_stmt 1 view .LVU256
 133:Application/ChassisTask/chassis_task.c ****         }
 821              		.loc 1 133 24 is_stmt 0 view .LVU257
 822 0176 054B     		ldr	r3, .L71
 823 0178 0B4A     		ldr	r2, .L71+28
 824 017a 9A60     		str	r2, [r3, #8]	@ float
 825 017c 51E7     		b	.L67
 826              	.L65:
 150:Application/ChassisTask/chassis_task.c ****         Chassis.VxTransfer = 0;
 827              		.loc 1 150 9 is_stmt 1 view .LVU258
 150:Application/ChassisTask/chassis_task.c ****         Chassis.VxTransfer = 0;
ARM GAS  C:\Users\LENOVO\AppData\Local\Temp\ccqW8RyF.s 			page 23


 828              		.loc 1 150 20 is_stmt 0 view .LVU259
 829 017e 034B     		ldr	r3, .L71
 830 0180 0022     		movs	r2, #0
 831 0182 9A60     		str	r2, [r3, #8]	@ float
 151:Application/ChassisTask/chassis_task.c ****         Chassis.VyTransfer = 0;
 832              		.loc 1 151 9 is_stmt 1 view .LVU260
 151:Application/ChassisTask/chassis_task.c ****         Chassis.VyTransfer = 0;
 833              		.loc 1 151 28 is_stmt 0 view .LVU261
 834 0184 DA60     		str	r2, [r3, #12]	@ float
 152:Application/ChassisTask/chassis_task.c ****         break;
 835              		.loc 1 152 9 is_stmt 1 view .LVU262
 152:Application/ChassisTask/chassis_task.c ****         break;
 836              		.loc 1 152 28 is_stmt 0 view .LVU263
 837 0186 1A61     		str	r2, [r3, #16]	@ float
 153:Application/ChassisTask/chassis_task.c ****     }
 838              		.loc 1 153 9 is_stmt 1 view .LVU264
 839 0188 7FE7     		b	.L68
 840              	.L72:
 841 018a 00BF     		.align	2
 842              	.L71:
 843 018c 00000000 		.word	Chassis
 844 0190 00000000 		.word	remote_control
 845 0194 00000000 		.word	AHRS
 846 0198 DA0F4940 		.word	1078530010
 847 019c 00003443 		.word	1127481344
 848 01a0 D1B0C13E 		.word	1052881105
 849 01a4 991EDC3D 		.word	1037835929
 850 01a8 00004842 		.word	1112014848
 851              		.cfi_endproc
 852              	.LFE172:
 854              		.section	.text.Send_Chassis_Current,"ax",%progbits
 855              		.align	1
 856              		.syntax unified
 857              		.thumb
 858              		.thumb_func
 860              	Send_Chassis_Current:
 861              	.LFB173:
 172:Application/ChassisTask/chassis_task.c ****     // 遥控器离线 → 发送0电流保护
 862              		.loc 1 172 1 view -0
 863              		.cfi_startproc
 864              		@ args = 0, pretend = 0, frame = 0
 865              		@ frame_needed = 0, uses_anonymous_args = 0
 866 0000 00B5     		push	{lr}
 867              	.LCFI10:
 868              		.cfi_def_cfa_offset 4
 869              		.cfi_offset 14, -4
 870 0002 83B0     		sub	sp, sp, #12
 871              	.LCFI11:
 872              		.cfi_def_cfa_offset 16
 174:Application/ChassisTask/chassis_task.c ****     {
 873              		.loc 1 174 5 view .LVU266
 174:Application/ChassisTask/chassis_task.c ****     {
 874              		.loc 1 174 9 is_stmt 0 view .LVU267
 875 0004 0420     		movs	r0, #4
 876 0006 FFF7FEFF 		bl	is_TOE_Error
 877              	.LVL24:
 174:Application/ChassisTask/chassis_task.c ****     {
ARM GAS  C:\Users\LENOVO\AppData\Local\Temp\ccqW8RyF.s 			page 24


 878              		.loc 1 174 8 discriminator 1 view .LVU268
 879 000a 48B1     		cbz	r0, .L74
 176:Application/ChassisTask/chassis_task.c ****     }
 880              		.loc 1 176 9 is_stmt 1 view .LVU269
 881 000c 0021     		movs	r1, #0
 882 000e 0091     		str	r1, [sp]
 883 0010 0B46     		mov	r3, r1
 884 0012 0A46     		mov	r2, r1
 885 0014 1648     		ldr	r0, .L77
 886 0016 FFF7FEFF 		bl	Send_Motor_Current_1_4
 887              	.LVL25:
 888              	.L73:
 186:Application/ChassisTask/chassis_task.c **** 
 889              		.loc 1 186 1 is_stmt 0 view .LVU270
 890 001a 03B0     		add	sp, sp, #12
 891              	.LCFI12:
 892              		.cfi_remember_state
 893              		.cfi_def_cfa_offset 4
 894              		@ sp needed
 895 001c 5DF804FB 		ldr	pc, [sp], #4
 896              	.L74:
 897              	.LCFI13:
 898              		.cfi_restore_state
 180:Application/ChassisTask/chassis_task.c ****                                (int16_t)Chassis.ChassisMotor[0].Output,
 899              		.loc 1 180 9 is_stmt 1 view .LVU271
 181:Application/ChassisTask/chassis_task.c ****                                (int16_t)Chassis.ChassisMotor[1].Output,
 900              		.loc 1 181 64 is_stmt 0 view .LVU272
 901 0020 144B     		ldr	r3, .L77+4
 902 0022 93ED227A 		vldr.32	s14, [r3, #136]
 182:Application/ChassisTask/chassis_task.c ****                                (int16_t)Chassis.ChassisMotor[2].Output,
 903              		.loc 1 182 64 view .LVU273
 904 0026 03F5B562 		add	r2, r3, #1448
 905 002a D2ED006A 		vldr.32	s13, [r2]
 183:Application/ChassisTask/chassis_task.c ****                                (int16_t)Chassis.ChassisMotor[3].Output);
 906              		.loc 1 183 64 view .LVU274
 907 002e 03F6C822 		addw	r2, r3, #2760
 908 0032 92ED006A 		vldr.32	s12, [r2]
 184:Application/ChassisTask/chassis_task.c ****     }
 909              		.loc 1 184 64 view .LVU275
 910 0036 03F6E873 		addw	r3, r3, #4072
 911 003a D3ED007A 		vldr.32	s15, [r3]
 180:Application/ChassisTask/chassis_task.c ****                                (int16_t)Chassis.ChassisMotor[0].Output,
 912              		.loc 1 180 9 view .LVU276
 913 003e BDEEC66A 		vcvt.s32.f32	s12, s12
 914 0042 FDEEE66A 		vcvt.s32.f32	s13, s13
 915 0046 BDEEC77A 		vcvt.s32.f32	s14, s14
 916 004a FDEEE77A 		vcvt.s32.f32	s15, s15
 917 004e 17EE903A 		vmov	r3, s15	@ int
 918 0052 1BB2     		sxth	r3, r3
 919 0054 0093     		str	r3, [sp]
 920 0056 16EE103A 		vmov	r3, s12	@ int
 921 005a 1BB2     		sxth	r3, r3
 922 005c 16EE902A 		vmov	r2, s13	@ int
 923 0060 12B2     		sxth	r2, r2
 924 0062 17EE101A 		vmov	r1, s14	@ int
 925 0066 09B2     		sxth	r1, r1
 926 0068 0148     		ldr	r0, .L77
ARM GAS  C:\Users\LENOVO\AppData\Local\Temp\ccqW8RyF.s 			page 25


 927 006a FFF7FEFF 		bl	Send_Motor_Current_1_4
 928              	.LVL26:
 186:Application/ChassisTask/chassis_task.c **** 
 929              		.loc 1 186 1 view .LVU277
 930 006e D4E7     		b	.L73
 931              	.L78:
 932              		.align	2
 933              	.L77:
 934 0070 00000000 		.word	hcan1
 935 0074 00000000 		.word	Chassis
 936              		.cfi_endproc
 937              	.LFE173:
 939              		.section	.text.Chassis_Init,"ax",%progbits
 940              		.align	1
 941              		.global	Chassis_Init
 942              		.syntax unified
 943              		.thumb
 944              		.thumb_func
 946              	Chassis_Init:
 947              	.LFB168:
  22:Application/ChassisTask/chassis_task.c ****     Chassis.WheelRadius = 0.0765f;
 948              		.loc 1 22 1 is_stmt 1 view -0
 949              		.cfi_startproc
 950              		@ args = 0, pretend = 0, frame = 0
 951              		@ frame_needed = 0, uses_anonymous_args = 0
 952 0000 70B5     		push	{r4, r5, r6, lr}
 953              	.LCFI14:
 954              		.cfi_def_cfa_offset 16
 955              		.cfi_offset 4, -16
 956              		.cfi_offset 5, -12
 957              		.cfi_offset 6, -8
 958              		.cfi_offset 14, -4
 959 0002 2DED028B 		vpush.64	{d8}
 960              	.LCFI15:
 961              		.cfi_def_cfa_offset 24
 962              		.cfi_offset 80, -24
 963              		.cfi_offset 81, -20
  23:Application/ChassisTask/chassis_task.c ****     Chassis.WheelReductionRatio = (3591.0f / 187.0f);//减速比
 964              		.loc 1 23 5 view .LVU279
  23:Application/ChassisTask/chassis_task.c ****     Chassis.WheelReductionRatio = (3591.0f / 187.0f);//减速比
 965              		.loc 1 23 25 is_stmt 0 view .LVU280
 966 0006 1E4A     		ldr	r2, .L83
 967 0008 02F58053 		add	r3, r2, #4096
 968 000c 03F59661 		add	r1, r3, #1200
 969 0010 1C48     		ldr	r0, .L83+4
 970 0012 0860     		str	r0, [r1]	@ float
  24:Application/ChassisTask/chassis_task.c ****     Chassis.VelocityRatio = VELOCITY_RATIO;
 971              		.loc 1 24 5 is_stmt 1 view .LVU281
  24:Application/ChassisTask/chassis_task.c ****     Chassis.VelocityRatio = VELOCITY_RATIO;
 972              		.loc 1 24 33 is_stmt 0 view .LVU282
 973 0014 03F2B443 		addw	r3, r3, #1204
 974 0018 1B49     		ldr	r1, .L83+8
 975 001a 1960     		str	r1, [r3]	@ float
  25:Application/ChassisTask/chassis_task.c ****     Chassis.rcStickRotateRatio = RC_STICK_ROTATE_RATIO;//0
 976              		.loc 1 25 5 is_stmt 1 view .LVU283
  25:Application/ChassisTask/chassis_task.c ****     Chassis.rcStickRotateRatio = RC_STICK_ROTATE_RATIO;//0
 977              		.loc 1 25 27 is_stmt 0 view .LVU284
ARM GAS  C:\Users\LENOVO\AppData\Local\Temp\ccqW8RyF.s 			page 26


 978 001c 1B4B     		ldr	r3, .L83+12
 979 001e 5361     		str	r3, [r2, #20]	@ float
  26:Application/ChassisTask/chassis_task.c **** 
 980              		.loc 1 26 5 is_stmt 1 view .LVU285
  26:Application/ChassisTask/chassis_task.c **** 
 981              		.loc 1 26 32 is_stmt 0 view .LVU286
 982 0020 1B4B     		ldr	r3, .L83+16
 983 0022 9361     		str	r3, [r2, #24]	@ float
  29:Application/ChassisTask/chassis_task.c ****     {
 984              		.loc 1 29 5 is_stmt 1 view .LVU287
 985              	.LBB2:
  29:Application/ChassisTask/chassis_task.c ****     {
 986              		.loc 1 29 10 view .LVU288
 987              	.LVL27:
  29:Application/ChassisTask/chassis_task.c ****     {
 988              		.loc 1 29 18 is_stmt 0 view .LVU289
 989 0024 0024     		movs	r4, #0
  29:Application/ChassisTask/chassis_task.c ****     {
 990              		.loc 1 29 5 view .LVU290
 991 0026 26E0     		b	.L80
 992              	.LVL28:
 993              	.L81:
  31:Application/ChassisTask/chassis_task.c ****                  Integral_Limit | OutputFilter | ChangingIntegrationRate);
 994              		.loc 1 31 9 is_stmt 1 view .LVU291
 995 0028 9FED1A1A 		vldr.32	s2, .L83+20
 996 002c 9FED1A8A 		vldr.32	s16, .L83+24
 997 0030 4FF4A466 		mov	r6, #1312
 998 0034 04FB06F6 		mul	r6, r4, r6
 999 0038 06F5AC70 		add	r0, r6, #344
 1000 003c 104D     		ldr	r5, .L83
 1001 003e 3122     		movs	r2, #49
 1002 0040 0121     		movs	r1, #1
 1003 0042 F0EE414A 		vmov.f32	s9, s2
 1004 0046 9FED154A 		vldr.32	s8, .L83+28
 1005 004a F2EE0E3A 		vmov.f32	s7, #1.5e+1
 1006 004e 9FED143A 		vldr.32	s6, .L83+32
 1007 0052 F0EE412A 		vmov.f32	s5, s2
 1008 0056 9FED132A 		vldr.32	s4, .L83+36
 1009 005a DFED131A 		vldr.32	s3, .L83+40
 1010 005e DFED130A 		vldr.32	s1, .L83+44
 1011 0062 B0EE480A 		vmov.f32	s0, s16
 1012 0066 2844     		add	r0, r0, r5
 1013 0068 FFF7FEFF 		bl	PID_Init
 1014              	.LVL29:
  33:Application/ChassisTask/chassis_task.c ****     }
 1015              		.loc 1 33 9 view .LVU292
  33:Application/ChassisTask/chassis_task.c ****     }
 1016              		.loc 1 33 41 is_stmt 0 view .LVU293
 1017 006c 3544     		add	r5, r5, r6
 1018 006e 85ED238A 		vstr.32	s16, [r5, #140]
  29:Application/ChassisTask/chassis_task.c ****     {
 1019              		.loc 1 29 33 is_stmt 1 discriminator 3 view .LVU294
 1020 0072 0134     		adds	r4, r4, #1
 1021              	.LVL30:
  29:Application/ChassisTask/chassis_task.c ****     {
 1022              		.loc 1 29 33 is_stmt 0 discriminator 3 view .LVU295
 1023 0074 E4B2     		uxtb	r4, r4
ARM GAS  C:\Users\LENOVO\AppData\Local\Temp\ccqW8RyF.s 			page 27


 1024              	.LVL31:
 1025              	.L80:
  29:Application/ChassisTask/chassis_task.c ****     {
 1026              		.loc 1 29 27 is_stmt 1 discriminator 1 view .LVU296
 1027 0076 032C     		cmp	r4, #3
 1028 0078 D6D9     		bls	.L81
 1029              	.LBE2:
  35:Application/ChassisTask/chassis_task.c **** 
 1030              		.loc 1 35 1 is_stmt 0 view .LVU297
 1031 007a BDEC028B 		vldm	sp!, {d8}
 1032              	.LCFI16:
 1033              		.cfi_restore 80
 1034              		.cfi_restore 81
 1035              		.cfi_def_cfa_offset 16
 1036 007e 70BD     		pop	{r4, r5, r6, pc}
 1037              	.LVL32:
 1038              	.L84:
  35:Application/ChassisTask/chassis_task.c **** 
 1039              		.loc 1 35 1 view .LVU298
 1040              		.align	2
 1041              	.L83:
 1042 0080 00000000 		.word	Chassis
 1043 0084 08AC9C3D 		.word	1033677832
 1044 0088 2CA09941 		.word	1100587052
 1045 008c 00004040 		.word	1077936128
 1046 0090 EC51383F 		.word	1060655596
 1047 0094 00000000 		.word	0
 1048 0098 00008046 		.word	1182793728
 1049 009c 0AD7A33B 		.word	1000593162
 1050 00a0 00008242 		.word	1115815936
 1051 00a4 CDCCCC3D 		.word	1036831949
 1052 00a8 00004842 		.word	1112014848
 1053 00ac 0000FA44 		.word	1157234688
 1054              		.cfi_endproc
 1055              	.LFE168:
 1057              		.section	.text.Chassis_Control,"ax",%progbits
 1058              		.align	1
 1059              		.global	Chassis_Control
 1060              		.syntax unified
 1061              		.thumb
 1062              		.thumb_func
 1064              	Chassis_Control:
 1065              	.LFB169:
  38:Application/ChassisTask/chassis_task.c ****     dt = DWT_GetDeltaT(&Chassis_DWT_Count);
 1066              		.loc 1 38 1 is_stmt 1 view -0
 1067              		.cfi_startproc
 1068              		@ args = 0, pretend = 0, frame = 0
 1069              		@ frame_needed = 0, uses_anonymous_args = 0
 1070 0000 08B5     		push	{r3, lr}
 1071              	.LCFI17:
 1072              		.cfi_def_cfa_offset 8
 1073              		.cfi_offset 3, -8
 1074              		.cfi_offset 14, -4
  39:Application/ChassisTask/chassis_task.c **** 
 1075              		.loc 1 39 5 view .LVU300
  39:Application/ChassisTask/chassis_task.c **** 
 1076              		.loc 1 39 10 is_stmt 0 view .LVU301
ARM GAS  C:\Users\LENOVO\AppData\Local\Temp\ccqW8RyF.s 			page 28


 1077 0002 0748     		ldr	r0, .L87
 1078 0004 FFF7FEFF 		bl	DWT_GetDeltaT
 1079              	.LVL33:
  39:Application/ChassisTask/chassis_task.c **** 
 1080              		.loc 1 39 8 discriminator 1 view .LVU302
 1081 0008 064B     		ldr	r3, .L87+4
 1082 000a 83ED000A 		vstr.32	s0, [r3]
  42:Application/ChassisTask/chassis_task.c ****     // 处理来自摇杆与键盘的控制数据
 1083              		.loc 1 42 5 is_stmt 1 view .LVU303
 1084 000e FFF7FEFF 		bl	Chassis_Set_Mode
 1085              	.LVL34:
  44:Application/ChassisTask/chassis_task.c ****     // 底盘运动解算以及PID计算
 1086              		.loc 1 44 5 view .LVU304
 1087 0012 FFF7FEFF 		bl	Chassis_Get_CtrlValue
 1088              	.LVL35:
  46:Application/ChassisTask/chassis_task.c ****     // 发送底盘电机控制电流
 1089              		.loc 1 46 5 view .LVU305
 1090 0016 FFF7FEFF 		bl	Chassis_Set_Control
 1091              	.LVL36:
  48:Application/ChassisTask/chassis_task.c **** }
 1092              		.loc 1 48 5 view .LVU306
 1093 001a FFF7FEFF 		bl	Send_Chassis_Current
 1094              	.LVL37:
  49:Application/ChassisTask/chassis_task.c **** 
 1095              		.loc 1 49 1 is_stmt 0 view .LVU307
 1096 001e 08BD     		pop	{r3, pc}
 1097              	.L88:
 1098              		.align	2
 1099              	.L87:
 1100 0020 00000000 		.word	Chassis_DWT_Count
 1101 0024 00000000 		.word	dt
 1102              		.cfi_endproc
 1103              	.LFE169:
 1105              		.section	.bss.max_num.0,"aw",%nobits
 1106              		.align	2
 1109              	max_num.0:
 1110 0000 00000000 		.space	4
 1111              		.section	.bss.TempMaxVelocity.1,"aw",%nobits
 1112              		.align	2
 1115              	TempMaxVelocity.1:
 1116 0000 00000000 		.space	4
 1117              		.section	.bss.tempVal.2,"aw",%nobits
 1118              		.align	2
 1121              	tempVal.2:
 1122 0000 00000000 		.space	4
 1123              		.section	.bss.Temp_Vy.4,"aw",%nobits
 1124              		.align	2
 1127              	Temp_Vy.4:
 1128 0000 00000000 		.space	4
 1129              		.section	.bss.Temp_Vx.5,"aw",%nobits
 1130              		.align	2
 1133              	Temp_Vx.5:
 1134 0000 00000000 		.space	4
 1135              		.section	.bss.dt,"aw",%nobits
 1136              		.align	2
 1139              	dt:
 1140 0000 00000000 		.space	4
ARM GAS  C:\Users\LENOVO\AppData\Local\Temp\ccqW8RyF.s 			page 29


 1141              		.global	Vy_k
 1142              		.section	.data.Vy_k,"aw"
 1143              		.align	2
 1146              	Vy_k:
 1147 0000 0000FA44 		.word	1157234688
 1148              		.global	Vx_k
 1149              		.section	.data.Vx_k,"aw"
 1150              		.align	2
 1153              	Vx_k:
 1154 0000 0000FA44 		.word	1157234688
 1155              		.global	MAX_RPM
 1156              		.section	.data.MAX_RPM,"aw"
 1157              		.align	2
 1160              	MAX_RPM:
 1161 0000 0000FA45 		.word	1174011904
 1162              		.global	Chassis_DWT_Count
 1163              		.section	.bss.Chassis_DWT_Count,"aw",%nobits
 1164              		.align	2
 1167              	Chassis_DWT_Count:
 1168 0000 00000000 		.space	4
 1169              		.global	Chassis
 1170              		.section	.bss.Chassis,"aw",%nobits
 1171              		.align	3
 1174              	Chassis:
 1175 0000 00000000 		.space	5304
 1175      00000000 
 1175      00000000 
 1175      00000000 
 1175      00000000 
 1176              		.text
 1177              	.Letext0:
 1178              		.file 2 "C:/msys64/mingw64/arm-none-eabi/include/machine/_default_types.h"
 1179              		.file 3 "C:/msys64/mingw64/arm-none-eabi/include/sys/_stdint.h"
 1180              		.file 4 "Drivers/CMSIS/Device/ST/STM32F4xx/Include/stm32f407xx.h"
 1181              		.file 5 "Drivers/CMSIS/Device/ST/STM32F4xx/Include/stm32f4xx.h"
 1182              		.file 6 "Drivers/STM32F4xx_HAL_Driver/Inc/stm32f4xx_hal_def.h"
 1183              		.file 7 "Drivers/STM32F4xx_HAL_Driver/Inc/stm32f4xx_hal_dma.h"
 1184              		.file 8 "Drivers/STM32F4xx_HAL_Driver/Inc/stm32f4xx_hal_can.h"
 1185              		.file 9 "Drivers/STM32F4xx_HAL_Driver/Inc/stm32f4xx_hal_uart.h"
 1186              		.file 10 "Middlewares/Algorithm/Include/user_lib.h"
 1187              		.file 11 "Middlewares/Algorithm/Include/arm_math.h"
 1188              		.file 12 "Middlewares/Controller/controller.h"
 1189              		.file 13 "Bsp/Motor/motor.h"
 1190              		.file 14 "Bsp/RemoteControl/remote_control.h"
 1191              		.file 15 "Core/Inc/can.h"
 1192              		.file 16 "Application/ChassisTask/chassis_task.h"
 1193              		.file 17 "Application/DetectTask/detect_task.h"
 1194              		.file 18 "Application/INSTask/QuaternionAHRS.h"
 1195              		.file 19 "Core/Inc/bsp_dwt.h"
ARM GAS  C:\Users\LENOVO\AppData\Local\Temp\ccqW8RyF.s 			page 30

