ARM GAS  C:\Users\LENOVO\AppData\Local\Temp\ccfA621b.s 			page 1


   1              		.cpu cortex-m4
   2              		.arch armv7e-m
   3              		.fpu fpv4-sp-d16
   4              		.eabi_attribute 27, 1
   5              		.eabi_attribute 28, 1
   6              		.eabi_attribute 20, 1
   7              		.eabi_attribute 21, 1
   8              		.eabi_attribute 23, 3
   9              		.eabi_attribute 24, 1
  10              		.eabi_attribute 25, 1
  11              		.eabi_attribute 26, 1
  12              		.eabi_attribute 30, 1
  13              		.eabi_attribute 34, 1
  14              		.eabi_attribute 18, 4
  15              		.file	"GravityEstimateKF.c"
  16              		.text
  17              	.Ltext0:
  18              		.cfi_sections	.debug_frame
  19              		.file 1 "Application/INSTask/GravityEstimateKF.c"
  20              		.section	.text.gEstimateKF_Tuning,"ax",%progbits
  21              		.align	1
  22              		.syntax unified
  23              		.thumb
  24              		.thumb_func
  26              	gEstimateKF_Tuning:
  27              	.LVL0:
  28              	.LFB171:
   1:Application/INSTask/GravityEstimateKF.c **** /**
   2:Application/INSTask/GravityEstimateKF.c ****   ******************************************************************************
   3:Application/INSTask/GravityEstimateKF.c ****   * @file    GravityEstimateKF.c
   4:Application/INSTask/GravityEstimateKF.c ****   * @author  Hongxi Wong
   5:Application/INSTask/GravityEstimateKF.c ****   * @version V1.0.1
   6:Application/INSTask/GravityEstimateKF.c ****   * @date    2020/2/16
   7:Application/INSTask/GravityEstimateKF.c ****   * @brief
   8:Application/INSTask/GravityEstimateKF.c ****   ******************************************************************************
   9:Application/INSTask/GravityEstimateKF.c ****   * @attention
  10:Application/INSTask/GravityEstimateKF.c ****   *
  11:Application/INSTask/GravityEstimateKF.c ****   ******************************************************************************
  12:Application/INSTask/GravityEstimateKF.c ****   */
  13:Application/INSTask/GravityEstimateKF.c **** #include "GravityEstimateKF.h"
  14:Application/INSTask/GravityEstimateKF.c **** 
  15:Application/INSTask/GravityEstimateKF.c **** KalmanFilter_t gEstimateKF;
  16:Application/INSTask/GravityEstimateKF.c **** float gVec[3];
  17:Application/INSTask/GravityEstimateKF.c **** 
  18:Application/INSTask/GravityEstimateKF.c **** float gEstimateKF_F[9] = {1, 0, 0,
  19:Application/INSTask/GravityEstimateKF.c ****                           0, 1, 0,
  20:Application/INSTask/GravityEstimateKF.c ****                           0, 0, 1};
  21:Application/INSTask/GravityEstimateKF.c **** float gEstimateKF_P[9] = {100, 0.1, 0.1,
  22:Application/INSTask/GravityEstimateKF.c ****                           0.1, 100, 0.1,
  23:Application/INSTask/GravityEstimateKF.c ****                           0.1, 0.1, 100};
  24:Application/INSTask/GravityEstimateKF.c **** static float gEstimateKF_Q[9] = {0.01, 0, 0,
  25:Application/INSTask/GravityEstimateKF.c ****                                  0, 0.01, 0,
  26:Application/INSTask/GravityEstimateKF.c ****                                  0, 0, 0.01};
  27:Application/INSTask/GravityEstimateKF.c **** static float gEstimateKF_R[9] = {100000, 0, 0,
  28:Application/INSTask/GravityEstimateKF.c ****                                  0, 100000, 0,
  29:Application/INSTask/GravityEstimateKF.c ****                                  0, 0, 100000};
  30:Application/INSTask/GravityEstimateKF.c **** float gEstimateKF_K[9];
ARM GAS  C:\Users\LENOVO\AppData\Local\Temp\ccfA621b.s 			page 2


  31:Application/INSTask/GravityEstimateKF.c **** const float gEstimateKF_H[9] = {1, 0, 0,
  32:Application/INSTask/GravityEstimateKF.c ****                                 0, 1, 0,
  33:Application/INSTask/GravityEstimateKF.c ****                                 0, 0, 1};
  34:Application/INSTask/GravityEstimateKF.c **** 
  35:Application/INSTask/GravityEstimateKF.c **** static void gEstimateKF_Tuning(KalmanFilter_t *kf);
  36:Application/INSTask/GravityEstimateKF.c **** 
  37:Application/INSTask/GravityEstimateKF.c **** void gEstimateKF_Init(float process_noise, float measure_noise)
  38:Application/INSTask/GravityEstimateKF.c **** {
  39:Application/INSTask/GravityEstimateKF.c ****     for (uint8_t i = 0; i < 9; i += 4)
  40:Application/INSTask/GravityEstimateKF.c ****     {
  41:Application/INSTask/GravityEstimateKF.c ****         gEstimateKF_Q[i] = process_noise;
  42:Application/INSTask/GravityEstimateKF.c ****         gEstimateKF_R[i] = measure_noise;
  43:Application/INSTask/GravityEstimateKF.c ****     }
  44:Application/INSTask/GravityEstimateKF.c **** 
  45:Application/INSTask/GravityEstimateKF.c ****     Kalman_Filter_Init(&gEstimateKF, 3, 0, 3);
  46:Application/INSTask/GravityEstimateKF.c ****     gEstimateKF.User_Func0_f = gEstimateKF_Tuning;
  47:Application/INSTask/GravityEstimateKF.c ****     memcpy(gEstimateKF.F_data, gEstimateKF_F, sizeof(gEstimateKF_F));
  48:Application/INSTask/GravityEstimateKF.c ****     memcpy(gEstimateKF.P_data, gEstimateKF_P, sizeof(gEstimateKF_P));
  49:Application/INSTask/GravityEstimateKF.c ****     memcpy(gEstimateKF.Q_data, gEstimateKF_Q, sizeof(gEstimateKF_Q));
  50:Application/INSTask/GravityEstimateKF.c ****     memcpy(gEstimateKF.R_data, gEstimateKF_R, sizeof(gEstimateKF_R));
  51:Application/INSTask/GravityEstimateKF.c ****     memcpy(gEstimateKF.H_data, gEstimateKF_H, sizeof(gEstimateKF_H));
  52:Application/INSTask/GravityEstimateKF.c **** }
  53:Application/INSTask/GravityEstimateKF.c **** 
  54:Application/INSTask/GravityEstimateKF.c **** void gEstimateKF_Update(float gx, float gy, float gz, float ax, float ay, float az, float dt)
  55:Application/INSTask/GravityEstimateKF.c **** {
  56:Application/INSTask/GravityEstimateKF.c ****     static float gxdt, gydt, gzdt;
  57:Application/INSTask/GravityEstimateKF.c **** 
  58:Application/INSTask/GravityEstimateKF.c ****     gxdt = gx * dt;
  59:Application/INSTask/GravityEstimateKF.c ****     gydt = gy * dt;
  60:Application/INSTask/GravityEstimateKF.c ****     gzdt = gz * dt;
  61:Application/INSTask/GravityEstimateKF.c **** 
  62:Application/INSTask/GravityEstimateKF.c ****     gEstimateKF.F_data[1] = gzdt;
  63:Application/INSTask/GravityEstimateKF.c ****     gEstimateKF.F_data[2] = -gydt;
  64:Application/INSTask/GravityEstimateKF.c **** 
  65:Application/INSTask/GravityEstimateKF.c ****     gEstimateKF.F_data[3] = -gzdt;
  66:Application/INSTask/GravityEstimateKF.c ****     gEstimateKF.F_data[5] = gxdt;
  67:Application/INSTask/GravityEstimateKF.c **** 
  68:Application/INSTask/GravityEstimateKF.c ****     gEstimateKF.F_data[6] = gydt;
  69:Application/INSTask/GravityEstimateKF.c ****     gEstimateKF.F_data[7] = -gxdt;
  70:Application/INSTask/GravityEstimateKF.c **** 
  71:Application/INSTask/GravityEstimateKF.c ****     gEstimateKF.MeasuredVector[0] = ax;
  72:Application/INSTask/GravityEstimateKF.c ****     gEstimateKF.MeasuredVector[1] = ay;
  73:Application/INSTask/GravityEstimateKF.c ****     gEstimateKF.MeasuredVector[2] = az;
  74:Application/INSTask/GravityEstimateKF.c **** 
  75:Application/INSTask/GravityEstimateKF.c ****     Kalman_Filter_Update(&gEstimateKF);
  76:Application/INSTask/GravityEstimateKF.c **** 
  77:Application/INSTask/GravityEstimateKF.c ****     for (uint8_t i = 0; i < 3; i++)
  78:Application/INSTask/GravityEstimateKF.c ****     {
  79:Application/INSTask/GravityEstimateKF.c ****         gVec[i] = gEstimateKF.FilteredValue[i];
  80:Application/INSTask/GravityEstimateKF.c ****     }
  81:Application/INSTask/GravityEstimateKF.c **** }
  82:Application/INSTask/GravityEstimateKF.c **** 
  83:Application/INSTask/GravityEstimateKF.c **** void gEstimateKF_SetQR(float process_noise, float measure_noise)
  84:Application/INSTask/GravityEstimateKF.c **** {
  85:Application/INSTask/GravityEstimateKF.c ****     for (uint8_t i = 0; i < 9; i += 4)
  86:Application/INSTask/GravityEstimateKF.c ****     {
  87:Application/INSTask/GravityEstimateKF.c ****         gEstimateKF_Q[i] = process_noise;
ARM GAS  C:\Users\LENOVO\AppData\Local\Temp\ccfA621b.s 			page 3


  88:Application/INSTask/GravityEstimateKF.c ****         gEstimateKF_R[i] = measure_noise;
  89:Application/INSTask/GravityEstimateKF.c ****     }
  90:Application/INSTask/GravityEstimateKF.c **** }
  91:Application/INSTask/GravityEstimateKF.c **** 
  92:Application/INSTask/GravityEstimateKF.c **** static void gEstimateKF_Tuning(KalmanFilter_t *kf)
  93:Application/INSTask/GravityEstimateKF.c **** {
  29              		.loc 1 93 1 view -0
  30              		.cfi_startproc
  31              		@ args = 0, pretend = 0, frame = 0
  32              		@ frame_needed = 0, uses_anonymous_args = 0
  33              		.loc 1 93 1 is_stmt 0 view .LVU1
  34 0000 70B5     		push	{r4, r5, r6, lr}
  35              	.LCFI0:
  36              		.cfi_def_cfa_offset 16
  37              		.cfi_offset 4, -16
  38              		.cfi_offset 5, -12
  39              		.cfi_offset 6, -8
  40              		.cfi_offset 14, -4
  41 0002 8646     		mov	lr, r0
  94:Application/INSTask/GravityEstimateKF.c ****     memcpy(gEstimateKF_F, kf->F_data, sizeof(gEstimateKF_F));
  42              		.loc 1 94 5 is_stmt 1 view .LVU2
  43              		.loc 1 94 29 is_stmt 0 view .LVU3
  44 0004 D0F80031 		ldr	r3, [r0, #256]
  45              		.loc 1 94 5 view .LVU4
  46 0008 9C46     		mov	ip, r3
  47 000a 364D     		ldr	r5, .L8
  48 000c 03F12006 		add	r6, r3, #32
  49              	.LVL1:
  50              	.L2:
  51              		.loc 1 94 5 view .LVU5
  52 0010 2C46     		mov	r4, r5
  53 0012 DCF80000 		ldr	r0, [ip]	@ unaligned
  54 0016 DCF80410 		ldr	r1, [ip, #4]	@ unaligned
  55 001a DCF80820 		ldr	r2, [ip, #8]	@ unaligned
  56 001e DCF80C30 		ldr	r3, [ip, #12]	@ unaligned
  57 0022 0FC4     		stmia	r4!, {r0, r1, r2, r3}
  58 0024 0CF1100C 		add	ip, ip, #16
  59 0028 2546     		mov	r5, r4
  60 002a B445     		cmp	ip, r6
  61 002c F0D1     		bne	.L2
  62 002e DCF80000 		ldr	r0, [ip]	@ unaligned
  63 0032 2060     		str	r0, [r4]
  95:Application/INSTask/GravityEstimateKF.c ****     memcpy(gEstimateKF_P, kf->P_data, sizeof(gEstimateKF_P));
  64              		.loc 1 95 5 is_stmt 1 view .LVU6
  65              		.loc 1 95 29 is_stmt 0 view .LVU7
  66 0034 DEF8F830 		ldr	r3, [lr, #248]
  67              		.loc 1 95 5 view .LVU8
  68 0038 9C46     		mov	ip, r3
  69 003a 2B4D     		ldr	r5, .L8+4
  70 003c 03F12006 		add	r6, r3, #32
  71              	.L3:
  72 0040 2C46     		mov	r4, r5
  73 0042 DCF80000 		ldr	r0, [ip]	@ unaligned
  74 0046 DCF80410 		ldr	r1, [ip, #4]	@ unaligned
  75 004a DCF80820 		ldr	r2, [ip, #8]	@ unaligned
  76 004e DCF80C30 		ldr	r3, [ip, #12]	@ unaligned
  77 0052 0FC4     		stmia	r4!, {r0, r1, r2, r3}
ARM GAS  C:\Users\LENOVO\AppData\Local\Temp\ccfA621b.s 			page 4


  78 0054 0CF1100C 		add	ip, ip, #16
  79 0058 2546     		mov	r5, r4
  80 005a B445     		cmp	ip, r6
  81 005c F0D1     		bne	.L3
  82 005e DCF80000 		ldr	r0, [ip]	@ unaligned
  83 0062 2060     		str	r0, [r4]
  96:Application/INSTask/GravityEstimateKF.c ****     memcpy(kf->Q_data, gEstimateKF_Q, sizeof(gEstimateKF_Q));
  84              		.loc 1 96 5 is_stmt 1 view .LVU9
  85 0064 214D     		ldr	r5, .L8+8
  86 0066 DEF81441 		ldr	r4, [lr, #276]
  87 006a 05F12006 		add	r6, r5, #32
  88              	.L4:
  89 006e AC46     		mov	ip, r5
  90 0070 BCE80F00 		ldmia	ip!, {r0, r1, r2, r3}
  91 0074 2060     		str	r0, [r4]	@ unaligned
  92 0076 6160     		str	r1, [r4, #4]	@ unaligned
  93 0078 A260     		str	r2, [r4, #8]	@ unaligned
  94 007a E360     		str	r3, [r4, #12]	@ unaligned
  95 007c 6546     		mov	r5, ip
  96 007e 1034     		adds	r4, r4, #16
  97 0080 B445     		cmp	ip, r6
  98 0082 F4D1     		bne	.L4
  99 0084 DCF80000 		ldr	r0, [ip]
 100 0088 2060     		str	r0, [r4]	@ unaligned
  97:Application/INSTask/GravityEstimateKF.c ****     memcpy(kf->R_data, gEstimateKF_R, sizeof(gEstimateKF_R));
 101              		.loc 1 97 5 view .LVU10
 102 008a 194D     		ldr	r5, .L8+12
 103 008c DEF81841 		ldr	r4, [lr, #280]
 104 0090 05F12006 		add	r6, r5, #32
 105              	.L5:
 106 0094 AC46     		mov	ip, r5
 107 0096 BCE80F00 		ldmia	ip!, {r0, r1, r2, r3}
 108 009a 2060     		str	r0, [r4]	@ unaligned
 109 009c 6160     		str	r1, [r4, #4]	@ unaligned
 110 009e A260     		str	r2, [r4, #8]	@ unaligned
 111 00a0 E360     		str	r3, [r4, #12]	@ unaligned
 112 00a2 6546     		mov	r5, ip
 113 00a4 1034     		adds	r4, r4, #16
 114 00a6 B445     		cmp	ip, r6
 115 00a8 F4D1     		bne	.L5
 116 00aa DCF80000 		ldr	r0, [ip]
 117 00ae 2060     		str	r0, [r4]	@ unaligned
  98:Application/INSTask/GravityEstimateKF.c ****     memcpy(gEstimateKF_K, kf->K_data, sizeof(gEstimateKF_K));
 118              		.loc 1 98 5 view .LVU11
 119              		.loc 1 98 29 is_stmt 0 view .LVU12
 120 00b0 DEF81C31 		ldr	r3, [lr, #284]
 121              		.loc 1 98 5 view .LVU13
 122 00b4 9C46     		mov	ip, r3
 123 00b6 0F4D     		ldr	r5, .L8+16
 124 00b8 03F1200E 		add	lr, r3, #32
 125              	.LVL2:
 126              	.L6:
 127              		.loc 1 98 5 view .LVU14
 128 00bc 2C46     		mov	r4, r5
 129 00be DCF80000 		ldr	r0, [ip]	@ unaligned
 130 00c2 DCF80410 		ldr	r1, [ip, #4]	@ unaligned
 131 00c6 DCF80820 		ldr	r2, [ip, #8]	@ unaligned
ARM GAS  C:\Users\LENOVO\AppData\Local\Temp\ccfA621b.s 			page 5


 132 00ca DCF80C30 		ldr	r3, [ip, #12]	@ unaligned
 133 00ce 0FC4     		stmia	r4!, {r0, r1, r2, r3}
 134 00d0 0CF1100C 		add	ip, ip, #16
 135 00d4 2546     		mov	r5, r4
 136 00d6 F445     		cmp	ip, lr
 137 00d8 F0D1     		bne	.L6
 138 00da DCF80000 		ldr	r0, [ip]	@ unaligned
 139 00de 2060     		str	r0, [r4]
  99:Application/INSTask/GravityEstimateKF.c **** }
 140              		.loc 1 99 1 view .LVU15
 141 00e0 70BD     		pop	{r4, r5, r6, pc}
 142              	.L9:
 143 00e2 00BF     		.align	2
 144              	.L8:
 145 00e4 00000000 		.word	gEstimateKF_F
 146 00e8 00000000 		.word	gEstimateKF_P
 147 00ec 00000000 		.word	gEstimateKF_Q
 148 00f0 00000000 		.word	gEstimateKF_R
 149 00f4 00000000 		.word	gEstimateKF_K
 150              		.cfi_endproc
 151              	.LFE171:
 153              		.section	.text.gEstimateKF_Init,"ax",%progbits
 154              		.align	1
 155              		.global	gEstimateKF_Init
 156              		.syntax unified
 157              		.thumb
 158              		.thumb_func
 160              	gEstimateKF_Init:
 161              	.LVL3:
 162              	.LFB168:
  38:Application/INSTask/GravityEstimateKF.c ****     for (uint8_t i = 0; i < 9; i += 4)
 163              		.loc 1 38 1 is_stmt 1 view -0
 164              		.cfi_startproc
 165              		@ args = 0, pretend = 0, frame = 0
 166              		@ frame_needed = 0, uses_anonymous_args = 0
  38:Application/INSTask/GravityEstimateKF.c ****     for (uint8_t i = 0; i < 9; i += 4)
 167              		.loc 1 38 1 is_stmt 0 view .LVU17
 168 0000 70B5     		push	{r4, r5, r6, lr}
 169              	.LCFI1:
 170              		.cfi_def_cfa_offset 16
 171              		.cfi_offset 4, -16
 172              		.cfi_offset 5, -12
 173              		.cfi_offset 6, -8
 174              		.cfi_offset 14, -4
  39:Application/INSTask/GravityEstimateKF.c ****     {
 175              		.loc 1 39 5 is_stmt 1 view .LVU18
 176              	.LBB2:
  39:Application/INSTask/GravityEstimateKF.c ****     {
 177              		.loc 1 39 10 view .LVU19
 178              	.LVL4:
  39:Application/INSTask/GravityEstimateKF.c ****     {
 179              		.loc 1 39 18 is_stmt 0 view .LVU20
 180 0002 0023     		movs	r3, #0
  39:Application/INSTask/GravityEstimateKF.c ****     {
 181              		.loc 1 39 5 view .LVU21
 182 0004 0BE0     		b	.L11
 183              	.LVL5:
ARM GAS  C:\Users\LENOVO\AppData\Local\Temp\ccfA621b.s 			page 6


 184              	.L12:
  41:Application/INSTask/GravityEstimateKF.c ****         gEstimateKF_R[i] = measure_noise;
 185              		.loc 1 41 9 is_stmt 1 view .LVU22
  41:Application/INSTask/GravityEstimateKF.c ****         gEstimateKF_R[i] = measure_noise;
 186              		.loc 1 41 26 is_stmt 0 view .LVU23
 187 0006 3C4A     		ldr	r2, .L19
 188 0008 02EB8302 		add	r2, r2, r3, lsl #2
 189 000c 82ED000A 		vstr.32	s0, [r2]
  42:Application/INSTask/GravityEstimateKF.c ****     }
 190              		.loc 1 42 9 is_stmt 1 view .LVU24
  42:Application/INSTask/GravityEstimateKF.c ****     }
 191              		.loc 1 42 26 is_stmt 0 view .LVU25
 192 0010 3A4A     		ldr	r2, .L19+4
 193 0012 02EB8302 		add	r2, r2, r3, lsl #2
 194 0016 C2ED000A 		vstr.32	s1, [r2]
  39:Application/INSTask/GravityEstimateKF.c ****     {
 195              		.loc 1 39 34 is_stmt 1 discriminator 3 view .LVU26
 196 001a 0433     		adds	r3, r3, #4
 197              	.LVL6:
  39:Application/INSTask/GravityEstimateKF.c ****     {
 198              		.loc 1 39 34 is_stmt 0 discriminator 3 view .LVU27
 199 001c DBB2     		uxtb	r3, r3
 200              	.LVL7:
 201              	.L11:
  39:Application/INSTask/GravityEstimateKF.c ****     {
 202              		.loc 1 39 27 is_stmt 1 discriminator 1 view .LVU28
 203 001e 082B     		cmp	r3, #8
 204 0020 F1D9     		bls	.L12
 205              	.LBE2:
  45:Application/INSTask/GravityEstimateKF.c ****     gEstimateKF.User_Func0_f = gEstimateKF_Tuning;
 206              		.loc 1 45 5 view .LVU29
 207 0022 374C     		ldr	r4, .L19+8
 208 0024 0323     		movs	r3, #3
 209              	.LVL8:
  45:Application/INSTask/GravityEstimateKF.c ****     gEstimateKF.User_Func0_f = gEstimateKF_Tuning;
 210              		.loc 1 45 5 is_stmt 0 view .LVU30
 211 0026 0022     		movs	r2, #0
 212 0028 1946     		mov	r1, r3
 213 002a 2046     		mov	r0, r4
 214 002c FFF7FEFF 		bl	Kalman_Filter_Init
 215              	.LVL9:
  46:Application/INSTask/GravityEstimateKF.c ****     memcpy(gEstimateKF.F_data, gEstimateKF_F, sizeof(gEstimateKF_F));
 216              		.loc 1 46 5 is_stmt 1 view .LVU31
  46:Application/INSTask/GravityEstimateKF.c ****     memcpy(gEstimateKF.F_data, gEstimateKF_F, sizeof(gEstimateKF_F));
 217              		.loc 1 46 30 is_stmt 0 view .LVU32
 218 0030 344B     		ldr	r3, .L19+12
 219 0032 C4F8CC30 		str	r3, [r4, #204]
  47:Application/INSTask/GravityEstimateKF.c ****     memcpy(gEstimateKF.P_data, gEstimateKF_P, sizeof(gEstimateKF_P));
 220              		.loc 1 47 5 is_stmt 1 view .LVU33
 221 0036 344E     		ldr	r6, .L19+16
 222 0038 D4F80051 		ldr	r5, [r4, #256]
 223 003c 06F1200C 		add	ip, r6, #32
 224              	.L13:
 225 0040 3446     		mov	r4, r6
 226 0042 0FCC     		ldmia	r4!, {r0, r1, r2, r3}
 227 0044 2860     		str	r0, [r5]	@ unaligned
 228 0046 6960     		str	r1, [r5, #4]	@ unaligned
ARM GAS  C:\Users\LENOVO\AppData\Local\Temp\ccfA621b.s 			page 7


 229 0048 AA60     		str	r2, [r5, #8]	@ unaligned
 230 004a EB60     		str	r3, [r5, #12]	@ unaligned
 231 004c 2646     		mov	r6, r4
 232 004e 1035     		adds	r5, r5, #16
 233 0050 6445     		cmp	r4, ip
 234 0052 F5D1     		bne	.L13
 235 0054 2068     		ldr	r0, [r4]
 236 0056 2860     		str	r0, [r5]	@ unaligned
  48:Application/INSTask/GravityEstimateKF.c ****     memcpy(gEstimateKF.Q_data, gEstimateKF_Q, sizeof(gEstimateKF_Q));
 237              		.loc 1 48 5 view .LVU34
 238 0058 2C4E     		ldr	r6, .L19+20
 239 005a 294B     		ldr	r3, .L19+8
 240 005c D3F8F850 		ldr	r5, [r3, #248]
 241 0060 06F1200C 		add	ip, r6, #32
 242              	.L14:
 243 0064 3446     		mov	r4, r6
 244 0066 0FCC     		ldmia	r4!, {r0, r1, r2, r3}
 245 0068 2860     		str	r0, [r5]	@ unaligned
 246 006a 6960     		str	r1, [r5, #4]	@ unaligned
 247 006c AA60     		str	r2, [r5, #8]	@ unaligned
 248 006e EB60     		str	r3, [r5, #12]	@ unaligned
 249 0070 2646     		mov	r6, r4
 250 0072 1035     		adds	r5, r5, #16
 251 0074 6445     		cmp	r4, ip
 252 0076 F5D1     		bne	.L14
 253 0078 2068     		ldr	r0, [r4]
 254 007a 2860     		str	r0, [r5]	@ unaligned
  49:Application/INSTask/GravityEstimateKF.c ****     memcpy(gEstimateKF.R_data, gEstimateKF_R, sizeof(gEstimateKF_R));
 255              		.loc 1 49 5 view .LVU35
 256 007c 1E4D     		ldr	r5, .L19
 257 007e 204B     		ldr	r3, .L19+8
 258 0080 D3F81441 		ldr	r4, [r3, #276]
 259 0084 05F12006 		add	r6, r5, #32
 260              	.L15:
 261 0088 AC46     		mov	ip, r5
 262 008a BCE80F00 		ldmia	ip!, {r0, r1, r2, r3}
 263 008e 2060     		str	r0, [r4]	@ unaligned
 264 0090 6160     		str	r1, [r4, #4]	@ unaligned
 265 0092 A260     		str	r2, [r4, #8]	@ unaligned
 266 0094 E360     		str	r3, [r4, #12]	@ unaligned
 267 0096 6546     		mov	r5, ip
 268 0098 1034     		adds	r4, r4, #16
 269 009a B445     		cmp	ip, r6
 270 009c F4D1     		bne	.L15
 271 009e DCF80000 		ldr	r0, [ip]
 272 00a2 2060     		str	r0, [r4]	@ unaligned
  50:Application/INSTask/GravityEstimateKF.c ****     memcpy(gEstimateKF.H_data, gEstimateKF_H, sizeof(gEstimateKF_H));
 273              		.loc 1 50 5 view .LVU36
 274 00a4 154D     		ldr	r5, .L19+4
 275 00a6 164B     		ldr	r3, .L19+8
 276 00a8 D3F81841 		ldr	r4, [r3, #280]
 277 00ac 05F12006 		add	r6, r5, #32
 278              	.L16:
 279 00b0 AC46     		mov	ip, r5
 280 00b2 BCE80F00 		ldmia	ip!, {r0, r1, r2, r3}
 281 00b6 2060     		str	r0, [r4]	@ unaligned
 282 00b8 6160     		str	r1, [r4, #4]	@ unaligned
ARM GAS  C:\Users\LENOVO\AppData\Local\Temp\ccfA621b.s 			page 8


 283 00ba A260     		str	r2, [r4, #8]	@ unaligned
 284 00bc E360     		str	r3, [r4, #12]	@ unaligned
 285 00be 6546     		mov	r5, ip
 286 00c0 1034     		adds	r4, r4, #16
 287 00c2 B445     		cmp	ip, r6
 288 00c4 F4D1     		bne	.L16
 289 00c6 DCF80000 		ldr	r0, [ip]
 290 00ca 2060     		str	r0, [r4]	@ unaligned
  51:Application/INSTask/GravityEstimateKF.c **** }
 291              		.loc 1 51 5 view .LVU37
 292 00cc 104D     		ldr	r5, .L19+24
 293 00ce 0C4B     		ldr	r3, .L19+8
 294 00d0 D3F80C41 		ldr	r4, [r3, #268]
 295 00d4 05F12006 		add	r6, r5, #32
 296              	.L17:
 297 00d8 AC46     		mov	ip, r5
 298 00da BCE80F00 		ldmia	ip!, {r0, r1, r2, r3}
 299 00de 2060     		str	r0, [r4]	@ unaligned
 300 00e0 6160     		str	r1, [r4, #4]	@ unaligned
 301 00e2 A260     		str	r2, [r4, #8]	@ unaligned
 302 00e4 E360     		str	r3, [r4, #12]	@ unaligned
 303 00e6 6546     		mov	r5, ip
 304 00e8 1034     		adds	r4, r4, #16
 305 00ea B445     		cmp	ip, r6
 306 00ec F4D1     		bne	.L17
 307 00ee DCF80000 		ldr	r0, [ip]
 308 00f2 2060     		str	r0, [r4]	@ unaligned
  52:Application/INSTask/GravityEstimateKF.c **** 
 309              		.loc 1 52 1 is_stmt 0 view .LVU38
 310 00f4 70BD     		pop	{r4, r5, r6, pc}
 311              	.L20:
 312 00f6 00BF     		.align	2
 313              	.L19:
 314 00f8 00000000 		.word	gEstimateKF_Q
 315 00fc 00000000 		.word	gEstimateKF_R
 316 0100 00000000 		.word	gEstimateKF
 317 0104 00000000 		.word	gEstimateKF_Tuning
 318 0108 00000000 		.word	gEstimateKF_F
 319 010c 00000000 		.word	gEstimateKF_P
 320 0110 00000000 		.word	gEstimateKF_H
 321              		.cfi_endproc
 322              	.LFE168:
 324              		.section	.text.gEstimateKF_Update,"ax",%progbits
 325              		.align	1
 326              		.global	gEstimateKF_Update
 327              		.syntax unified
 328              		.thumb
 329              		.thumb_func
 331              	gEstimateKF_Update:
 332              	.LVL10:
 333              	.LFB169:
  55:Application/INSTask/GravityEstimateKF.c ****     static float gxdt, gydt, gzdt;
 334              		.loc 1 55 1 is_stmt 1 view -0
 335              		.cfi_startproc
 336              		@ args = 0, pretend = 0, frame = 0
 337              		@ frame_needed = 0, uses_anonymous_args = 0
  55:Application/INSTask/GravityEstimateKF.c ****     static float gxdt, gydt, gzdt;
ARM GAS  C:\Users\LENOVO\AppData\Local\Temp\ccfA621b.s 			page 9


 338              		.loc 1 55 1 is_stmt 0 view .LVU40
 339 0000 08B5     		push	{r3, lr}
 340              	.LCFI2:
 341              		.cfi_def_cfa_offset 8
 342              		.cfi_offset 3, -8
 343              		.cfi_offset 14, -4
  56:Application/INSTask/GravityEstimateKF.c **** 
 344              		.loc 1 56 5 is_stmt 1 view .LVU41
  58:Application/INSTask/GravityEstimateKF.c ****     gydt = gy * dt;
 345              		.loc 1 58 5 view .LVU42
  58:Application/INSTask/GravityEstimateKF.c ****     gydt = gy * dt;
 346              		.loc 1 58 15 is_stmt 0 view .LVU43
 347 0002 20EE030A 		vmul.f32	s0, s0, s6
 348              	.LVL11:
  58:Application/INSTask/GravityEstimateKF.c ****     gydt = gy * dt;
 349              		.loc 1 58 10 view .LVU44
 350 0006 234B     		ldr	r3, .L25
 351 0008 83ED000A 		vstr.32	s0, [r3]
  59:Application/INSTask/GravityEstimateKF.c ****     gzdt = gz * dt;
 352              		.loc 1 59 5 is_stmt 1 view .LVU45
  59:Application/INSTask/GravityEstimateKF.c ****     gzdt = gz * dt;
 353              		.loc 1 59 15 is_stmt 0 view .LVU46
 354 000c 63EE200A 		vmul.f32	s1, s6, s1
 355              	.LVL12:
  59:Application/INSTask/GravityEstimateKF.c ****     gzdt = gz * dt;
 356              		.loc 1 59 10 view .LVU47
 357 0010 214B     		ldr	r3, .L25+4
 358 0012 C3ED000A 		vstr.32	s1, [r3]
  60:Application/INSTask/GravityEstimateKF.c **** 
 359              		.loc 1 60 5 is_stmt 1 view .LVU48
  60:Application/INSTask/GravityEstimateKF.c **** 
 360              		.loc 1 60 15 is_stmt 0 view .LVU49
 361 0016 23EE013A 		vmul.f32	s6, s6, s2
 362              	.LVL13:
  60:Application/INSTask/GravityEstimateKF.c **** 
 363              		.loc 1 60 10 view .LVU50
 364 001a 204B     		ldr	r3, .L25+8
 365 001c 83ED003A 		vstr.32	s6, [r3]
  62:Application/INSTask/GravityEstimateKF.c ****     gEstimateKF.F_data[2] = -gydt;
 366              		.loc 1 62 5 is_stmt 1 view .LVU51
  62:Application/INSTask/GravityEstimateKF.c ****     gEstimateKF.F_data[2] = -gydt;
 367              		.loc 1 62 16 is_stmt 0 view .LVU52
 368 0020 1F48     		ldr	r0, .L25+12
 369 0022 D0F80031 		ldr	r3, [r0, #256]
  62:Application/INSTask/GravityEstimateKF.c ****     gEstimateKF.F_data[2] = -gydt;
 370              		.loc 1 62 27 view .LVU53
 371 0026 83ED013A 		vstr.32	s6, [r3, #4]
  63:Application/INSTask/GravityEstimateKF.c **** 
 372              		.loc 1 63 5 is_stmt 1 view .LVU54
  63:Application/INSTask/GravityEstimateKF.c **** 
 373              		.loc 1 63 16 is_stmt 0 view .LVU55
 374 002a D0F80031 		ldr	r3, [r0, #256]
  63:Application/INSTask/GravityEstimateKF.c **** 
 375              		.loc 1 63 29 view .LVU56
 376 002e F1EE607A 		vneg.f32	s15, s1
  63:Application/INSTask/GravityEstimateKF.c **** 
 377              		.loc 1 63 27 view .LVU57
ARM GAS  C:\Users\LENOVO\AppData\Local\Temp\ccfA621b.s 			page 10


 378 0032 C3ED027A 		vstr.32	s15, [r3, #8]
  65:Application/INSTask/GravityEstimateKF.c ****     gEstimateKF.F_data[5] = gxdt;
 379              		.loc 1 65 5 is_stmt 1 view .LVU58
  65:Application/INSTask/GravityEstimateKF.c ****     gEstimateKF.F_data[5] = gxdt;
 380              		.loc 1 65 16 is_stmt 0 view .LVU59
 381 0036 D0F80031 		ldr	r3, [r0, #256]
  65:Application/INSTask/GravityEstimateKF.c ****     gEstimateKF.F_data[5] = gxdt;
 382              		.loc 1 65 29 view .LVU60
 383 003a B1EE433A 		vneg.f32	s6, s6
  65:Application/INSTask/GravityEstimateKF.c ****     gEstimateKF.F_data[5] = gxdt;
 384              		.loc 1 65 27 view .LVU61
 385 003e 83ED033A 		vstr.32	s6, [r3, #12]
  66:Application/INSTask/GravityEstimateKF.c **** 
 386              		.loc 1 66 5 is_stmt 1 view .LVU62
  66:Application/INSTask/GravityEstimateKF.c **** 
 387              		.loc 1 66 16 is_stmt 0 view .LVU63
 388 0042 D0F80031 		ldr	r3, [r0, #256]
  66:Application/INSTask/GravityEstimateKF.c **** 
 389              		.loc 1 66 27 view .LVU64
 390 0046 83ED050A 		vstr.32	s0, [r3, #20]
  68:Application/INSTask/GravityEstimateKF.c ****     gEstimateKF.F_data[7] = -gxdt;
 391              		.loc 1 68 5 is_stmt 1 view .LVU65
  68:Application/INSTask/GravityEstimateKF.c ****     gEstimateKF.F_data[7] = -gxdt;
 392              		.loc 1 68 16 is_stmt 0 view .LVU66
 393 004a D0F80031 		ldr	r3, [r0, #256]
  68:Application/INSTask/GravityEstimateKF.c ****     gEstimateKF.F_data[7] = -gxdt;
 394              		.loc 1 68 27 view .LVU67
 395 004e C3ED060A 		vstr.32	s1, [r3, #24]
  69:Application/INSTask/GravityEstimateKF.c **** 
 396              		.loc 1 69 5 is_stmt 1 view .LVU68
  69:Application/INSTask/GravityEstimateKF.c **** 
 397              		.loc 1 69 16 is_stmt 0 view .LVU69
 398 0052 D0F80031 		ldr	r3, [r0, #256]
  69:Application/INSTask/GravityEstimateKF.c **** 
 399              		.loc 1 69 29 view .LVU70
 400 0056 B1EE400A 		vneg.f32	s0, s0
  69:Application/INSTask/GravityEstimateKF.c **** 
 401              		.loc 1 69 27 view .LVU71
 402 005a 83ED070A 		vstr.32	s0, [r3, #28]
  71:Application/INSTask/GravityEstimateKF.c ****     gEstimateKF.MeasuredVector[1] = ay;
 403              		.loc 1 71 5 is_stmt 1 view .LVU72
  71:Application/INSTask/GravityEstimateKF.c ****     gEstimateKF.MeasuredVector[1] = ay;
 404              		.loc 1 71 16 is_stmt 0 view .LVU73
 405 005e 4368     		ldr	r3, [r0, #4]
  71:Application/INSTask/GravityEstimateKF.c ****     gEstimateKF.MeasuredVector[1] = ay;
 406              		.loc 1 71 35 view .LVU74
 407 0060 C3ED001A 		vstr.32	s3, [r3]
  72:Application/INSTask/GravityEstimateKF.c ****     gEstimateKF.MeasuredVector[2] = az;
 408              		.loc 1 72 5 is_stmt 1 view .LVU75
  72:Application/INSTask/GravityEstimateKF.c ****     gEstimateKF.MeasuredVector[2] = az;
 409              		.loc 1 72 16 is_stmt 0 view .LVU76
 410 0064 4368     		ldr	r3, [r0, #4]
  72:Application/INSTask/GravityEstimateKF.c ****     gEstimateKF.MeasuredVector[2] = az;
 411              		.loc 1 72 35 view .LVU77
 412 0066 83ED012A 		vstr.32	s4, [r3, #4]
  73:Application/INSTask/GravityEstimateKF.c **** 
 413              		.loc 1 73 5 is_stmt 1 view .LVU78
ARM GAS  C:\Users\LENOVO\AppData\Local\Temp\ccfA621b.s 			page 11


  73:Application/INSTask/GravityEstimateKF.c **** 
 414              		.loc 1 73 16 is_stmt 0 view .LVU79
 415 006a 4368     		ldr	r3, [r0, #4]
  73:Application/INSTask/GravityEstimateKF.c **** 
 416              		.loc 1 73 35 view .LVU80
 417 006c C3ED022A 		vstr.32	s5, [r3, #8]
  75:Application/INSTask/GravityEstimateKF.c **** 
 418              		.loc 1 75 5 is_stmt 1 view .LVU81
 419 0070 FFF7FEFF 		bl	Kalman_Filter_Update
 420              	.LVL14:
  77:Application/INSTask/GravityEstimateKF.c ****     {
 421              		.loc 1 77 5 view .LVU82
 422              	.LBB3:
  77:Application/INSTask/GravityEstimateKF.c ****     {
 423              		.loc 1 77 10 view .LVU83
  77:Application/INSTask/GravityEstimateKF.c ****     {
 424              		.loc 1 77 18 is_stmt 0 view .LVU84
 425 0074 0023     		movs	r3, #0
  77:Application/INSTask/GravityEstimateKF.c ****     {
 426              		.loc 1 77 5 view .LVU85
 427 0076 0AE0     		b	.L22
 428              	.LVL15:
 429              	.L23:
  79:Application/INSTask/GravityEstimateKF.c ****     }
 430              		.loc 1 79 9 is_stmt 1 view .LVU86
  79:Application/INSTask/GravityEstimateKF.c ****     }
 431              		.loc 1 79 30 is_stmt 0 view .LVU87
 432 0078 094A     		ldr	r2, .L25+12
 433 007a 1268     		ldr	r2, [r2]
  79:Application/INSTask/GravityEstimateKF.c ****     }
 434              		.loc 1 79 44 view .LVU88
 435 007c 02EB8302 		add	r2, r2, r3, lsl #2
 436 0080 1168     		ldr	r1, [r2]	@ float
  79:Application/INSTask/GravityEstimateKF.c ****     }
 437              		.loc 1 79 17 view .LVU89
 438 0082 084A     		ldr	r2, .L25+16
 439 0084 02EB8302 		add	r2, r2, r3, lsl #2
 440 0088 1160     		str	r1, [r2]	@ float
  77:Application/INSTask/GravityEstimateKF.c ****     {
 441              		.loc 1 77 33 is_stmt 1 discriminator 3 view .LVU90
 442 008a 0133     		adds	r3, r3, #1
 443              	.LVL16:
  77:Application/INSTask/GravityEstimateKF.c ****     {
 444              		.loc 1 77 33 is_stmt 0 discriminator 3 view .LVU91
 445 008c DBB2     		uxtb	r3, r3
 446              	.LVL17:
 447              	.L22:
  77:Application/INSTask/GravityEstimateKF.c ****     {
 448              		.loc 1 77 27 is_stmt 1 discriminator 1 view .LVU92
 449 008e 022B     		cmp	r3, #2
 450 0090 F2D9     		bls	.L23
 451              	.LBE3:
  81:Application/INSTask/GravityEstimateKF.c **** 
 452              		.loc 1 81 1 is_stmt 0 view .LVU93
 453 0092 08BD     		pop	{r3, pc}
 454              	.LVL18:
 455              	.L26:
ARM GAS  C:\Users\LENOVO\AppData\Local\Temp\ccfA621b.s 			page 12


  81:Application/INSTask/GravityEstimateKF.c **** 
 456              		.loc 1 81 1 view .LVU94
 457              		.align	2
 458              	.L25:
 459 0094 00000000 		.word	gxdt.2
 460 0098 00000000 		.word	gydt.1
 461 009c 00000000 		.word	gzdt.0
 462 00a0 00000000 		.word	gEstimateKF
 463 00a4 00000000 		.word	gVec
 464              		.cfi_endproc
 465              	.LFE169:
 467              		.section	.text.gEstimateKF_SetQR,"ax",%progbits
 468              		.align	1
 469              		.global	gEstimateKF_SetQR
 470              		.syntax unified
 471              		.thumb
 472              		.thumb_func
 474              	gEstimateKF_SetQR:
 475              	.LVL19:
 476              	.LFB170:
  84:Application/INSTask/GravityEstimateKF.c ****     for (uint8_t i = 0; i < 9; i += 4)
 477              		.loc 1 84 1 is_stmt 1 view -0
 478              		.cfi_startproc
 479              		@ args = 0, pretend = 0, frame = 0
 480              		@ frame_needed = 0, uses_anonymous_args = 0
 481              		@ link register save eliminated.
  85:Application/INSTask/GravityEstimateKF.c ****     {
 482              		.loc 1 85 5 view .LVU96
 483              	.LBB4:
  85:Application/INSTask/GravityEstimateKF.c ****     {
 484              		.loc 1 85 10 view .LVU97
  85:Application/INSTask/GravityEstimateKF.c ****     {
 485              		.loc 1 85 18 is_stmt 0 view .LVU98
 486 0000 0023     		movs	r3, #0
  85:Application/INSTask/GravityEstimateKF.c ****     {
 487              		.loc 1 85 5 view .LVU99
 488 0002 0BE0     		b	.L28
 489              	.LVL20:
 490              	.L29:
  87:Application/INSTask/GravityEstimateKF.c ****         gEstimateKF_R[i] = measure_noise;
 491              		.loc 1 87 9 is_stmt 1 view .LVU100
  87:Application/INSTask/GravityEstimateKF.c ****         gEstimateKF_R[i] = measure_noise;
 492              		.loc 1 87 26 is_stmt 0 view .LVU101
 493 0004 074A     		ldr	r2, .L30
 494 0006 02EB8302 		add	r2, r2, r3, lsl #2
 495 000a 82ED000A 		vstr.32	s0, [r2]
  88:Application/INSTask/GravityEstimateKF.c ****     }
 496              		.loc 1 88 9 is_stmt 1 view .LVU102
  88:Application/INSTask/GravityEstimateKF.c ****     }
 497              		.loc 1 88 26 is_stmt 0 view .LVU103
 498 000e 064A     		ldr	r2, .L30+4
 499 0010 02EB8302 		add	r2, r2, r3, lsl #2
 500 0014 C2ED000A 		vstr.32	s1, [r2]
  85:Application/INSTask/GravityEstimateKF.c ****     {
 501              		.loc 1 85 34 is_stmt 1 discriminator 3 view .LVU104
 502 0018 0433     		adds	r3, r3, #4
 503              	.LVL21:
ARM GAS  C:\Users\LENOVO\AppData\Local\Temp\ccfA621b.s 			page 13


  85:Application/INSTask/GravityEstimateKF.c ****     {
 504              		.loc 1 85 34 is_stmt 0 discriminator 3 view .LVU105
 505 001a DBB2     		uxtb	r3, r3
 506              	.LVL22:
 507              	.L28:
  85:Application/INSTask/GravityEstimateKF.c ****     {
 508              		.loc 1 85 27 is_stmt 1 discriminator 1 view .LVU106
 509 001c 082B     		cmp	r3, #8
 510 001e F1D9     		bls	.L29
 511              	.LBE4:
  90:Application/INSTask/GravityEstimateKF.c **** 
 512              		.loc 1 90 1 is_stmt 0 view .LVU107
 513 0020 7047     		bx	lr
 514              	.L31:
 515 0022 00BF     		.align	2
 516              	.L30:
 517 0024 00000000 		.word	gEstimateKF_Q
 518 0028 00000000 		.word	gEstimateKF_R
 519              		.cfi_endproc
 520              	.LFE170:
 522              		.section	.bss.gzdt.0,"aw",%nobits
 523              		.align	2
 526              	gzdt.0:
 527 0000 00000000 		.space	4
 528              		.section	.bss.gydt.1,"aw",%nobits
 529              		.align	2
 532              	gydt.1:
 533 0000 00000000 		.space	4
 534              		.section	.bss.gxdt.2,"aw",%nobits
 535              		.align	2
 538              	gxdt.2:
 539 0000 00000000 		.space	4
 540              		.global	gEstimateKF_H
 541              		.section	.rodata.gEstimateKF_H,"a"
 542              		.align	2
 545              	gEstimateKF_H:
 546 0000 0000803F 		.word	1065353216
 547 0004 00000000 		.word	0
 548 0008 00000000 		.word	0
 549 000c 00000000 		.word	0
 550 0010 0000803F 		.word	1065353216
 551 0014 00000000 		.word	0
 552 0018 00000000 		.word	0
 553 001c 00000000 		.word	0
 554 0020 0000803F 		.word	1065353216
 555              		.global	gEstimateKF_K
 556              		.section	.bss.gEstimateKF_K,"aw",%nobits
 557              		.align	2
 560              	gEstimateKF_K:
 561 0000 00000000 		.space	36
 561      00000000 
 561      00000000 
 561      00000000 
 561      00000000 
 562              		.section	.data.gEstimateKF_R,"aw"
 563              		.align	2
 566              	gEstimateKF_R:
ARM GAS  C:\Users\LENOVO\AppData\Local\Temp\ccfA621b.s 			page 14


 567 0000 0050C347 		.word	1203982336
 568 0004 00000000 		.word	0
 569 0008 00000000 		.word	0
 570 000c 00000000 		.word	0
 571 0010 0050C347 		.word	1203982336
 572 0014 00000000 		.word	0
 573 0018 00000000 		.word	0
 574 001c 00000000 		.word	0
 575 0020 0050C347 		.word	1203982336
 576              		.section	.data.gEstimateKF_Q,"aw"
 577              		.align	2
 580              	gEstimateKF_Q:
 581 0000 0AD7233C 		.word	1008981770
 582 0004 00000000 		.word	0
 583 0008 00000000 		.word	0
 584 000c 00000000 		.word	0
 585 0010 0AD7233C 		.word	1008981770
 586 0014 00000000 		.word	0
 587 0018 00000000 		.word	0
 588 001c 00000000 		.word	0
 589 0020 0AD7233C 		.word	1008981770
 590              		.global	gEstimateKF_P
 591              		.section	.data.gEstimateKF_P,"aw"
 592              		.align	2
 595              	gEstimateKF_P:
 596 0000 0000C842 		.word	1120403456
 597 0004 CDCCCC3D 		.word	1036831949
 598 0008 CDCCCC3D 		.word	1036831949
 599 000c CDCCCC3D 		.word	1036831949
 600 0010 0000C842 		.word	1120403456
 601 0014 CDCCCC3D 		.word	1036831949
 602 0018 CDCCCC3D 		.word	1036831949
 603 001c CDCCCC3D 		.word	1036831949
 604 0020 0000C842 		.word	1120403456
 605              		.global	gEstimateKF_F
 606              		.section	.data.gEstimateKF_F,"aw"
 607              		.align	2
 610              	gEstimateKF_F:
 611 0000 0000803F 		.word	1065353216
 612 0004 00000000 		.word	0
 613 0008 00000000 		.word	0
 614 000c 00000000 		.word	0
 615 0010 0000803F 		.word	1065353216
 616 0014 00000000 		.word	0
 617 0018 00000000 		.word	0
 618 001c 00000000 		.word	0
 619 0020 0000803F 		.word	1065353216
 620              		.global	gVec
 621              		.section	.bss.gVec,"aw",%nobits
 622              		.align	2
 625              	gVec:
 626 0000 00000000 		.space	12
 626      00000000 
 626      00000000 
 627              		.global	gEstimateKF
 628              		.section	.bss.gEstimateKF,"aw",%nobits
 629              		.align	2
ARM GAS  C:\Users\LENOVO\AppData\Local\Temp\ccfA621b.s 			page 15


 632              	gEstimateKF:
 633 0000 00000000 		.space	308
 633      00000000 
 633      00000000 
 633      00000000 
 633      00000000 
 634              		.text
 635              	.Letext0:
 636              		.file 2 "C:/msys64/mingw64/lib/gcc/arm-none-eabi/13.3.0/include/stddef.h"
 637              		.file 3 "C:/msys64/mingw64/arm-none-eabi/include/machine/_default_types.h"
 638              		.file 4 "C:/msys64/mingw64/arm-none-eabi/include/sys/_stdint.h"
 639              		.file 5 "Middlewares/Algorithm/Include/arm_math.h"
 640              		.file 6 "Middlewares/Filter/KalmanFilter/kalman_filter.h"
 641              		.file 7 "Application/INSTask/GravityEstimateKF.h"
 642              		.file 8 "C:/msys64/mingw64/arm-none-eabi/include/string.h"
ARM GAS  C:\Users\LENOVO\AppData\Local\Temp\ccfA621b.s 			page 16

