ARM GAS  C:\Users\LENOVO\AppData\Local\Temp\ccA7Ewip.s 			page 1


   1              		.cpu cortex-m4
   2              		.arch armv7e-m
   3              		.fpu fpv4-sp-d16
   4              		.eabi_attribute 27, 1
   5              		.eabi_attribute 28, 1
   6              		.eabi_attribute 20, 1
   7              		.eabi_attribute 21, 1
   8              		.eabi_attribute 23, 3
   9              		.eabi_attribute 24, 1
  10              		.eabi_attribute 25, 1
  11              		.eabi_attribute 26, 1
  12              		.eabi_attribute 30, 1
  13              		.eabi_attribute 34, 1
  14              		.eabi_attribute 18, 4
  15              		.file	"remote_control.c"
  16              		.text
  17              	.Ltext0:
  18              		.cfi_sections	.debug_frame
  19              		.file 1 "Bsp/RemoteControl/remote_control.c"
  20              		.section	.text.Remote_Control_Init,"ax",%progbits
  21              		.align	1
  22              		.global	Remote_Control_Init
  23              		.syntax unified
  24              		.thumb
  25              		.thumb_func
  27              	Remote_Control_Init:
  28              	.LVL0:
  29              	.LFB135:
   1:Bsp/RemoteControl/remote_control.c **** #include "remote_control.h"
   2:Bsp/RemoteControl/remote_control.c **** #include "bsp_CAN.h"
   3:Bsp/RemoteControl/remote_control.c **** #include "bsp_dwt.h"
   4:Bsp/RemoteControl/remote_control.c **** #include "bsp_usart_idle.h"
   5:Bsp/RemoteControl/remote_control.c **** #include "detect_task.h"
   6:Bsp/RemoteControl/remote_control.c **** 
   7:Bsp/RemoteControl/remote_control.c **** RC_Type remote_control = {0};
   8:Bsp/RemoteControl/remote_control.c **** 
   9:Bsp/RemoteControl/remote_control.c **** uint8_t sbus_rx_buf[SBUS_RX_BUF_NUM];
  10:Bsp/RemoteControl/remote_control.c **** 
  11:Bsp/RemoteControl/remote_control.c **** uint8_t RC_Data_Buffer[16] = {0};
  12:Bsp/RemoteControl/remote_control.c **** 
  13:Bsp/RemoteControl/remote_control.c **** uint32_t RC_DWT_Count = 0;
  14:Bsp/RemoteControl/remote_control.c **** float RC_dt = 0;
  15:Bsp/RemoteControl/remote_control.c **** uint8_t RC_Update = 0;
  16:Bsp/RemoteControl/remote_control.c **** 
  17:Bsp/RemoteControl/remote_control.c **** void Remote_Control_Init(UART_HandleTypeDef *huart)
  18:Bsp/RemoteControl/remote_control.c **** {
  30              		.loc 1 18 1 view -0
  31              		.cfi_startproc
  32              		@ args = 0, pretend = 0, frame = 0
  33              		@ frame_needed = 0, uses_anonymous_args = 0
  34              		.loc 1 18 1 is_stmt 0 view .LVU1
  35 0000 08B5     		push	{r3, lr}
  36              	.LCFI0:
  37              		.cfi_def_cfa_offset 8
  38              		.cfi_offset 3, -8
  39              		.cfi_offset 14, -4
  19:Bsp/RemoteControl/remote_control.c ****     remote_control.RC_USART = huart;
ARM GAS  C:\Users\LENOVO\AppData\Local\Temp\ccA7Ewip.s 			page 2


  40              		.loc 1 19 5 is_stmt 1 view .LVU2
  41              		.loc 1 19 29 is_stmt 0 view .LVU3
  42 0002 034B     		ldr	r3, .L3
  43 0004 1860     		str	r0, [r3]
  20:Bsp/RemoteControl/remote_control.c **** 
  21:Bsp/RemoteControl/remote_control.c ****     USART_IDLE_Init(huart, sbus_rx_buf, SBUS_RX_BUF_NUM);
  44              		.loc 1 21 5 is_stmt 1 view .LVU4
  45 0006 2422     		movs	r2, #36
  46 0008 0249     		ldr	r1, .L3+4
  47 000a FFF7FEFF 		bl	USART_IDLE_Init
  48              	.LVL1:
  22:Bsp/RemoteControl/remote_control.c **** }
  49              		.loc 1 22 1 is_stmt 0 view .LVU5
  50 000e 08BD     		pop	{r3, pc}
  51              	.L4:
  52              		.align	2
  53              	.L3:
  54 0010 00000000 		.word	remote_control
  55 0014 00000000 		.word	sbus_rx_buf
  56              		.cfi_endproc
  57              	.LFE135:
  59              		.section	.text.Callback_RC_Handle,"ax",%progbits
  60              		.align	1
  61              		.global	Callback_RC_Handle
  62              		.syntax unified
  63              		.thumb
  64              		.thumb_func
  66              	Callback_RC_Handle:
  67              	.LVL2:
  68              	.LFB136:
  23:Bsp/RemoteControl/remote_control.c **** 
  24:Bsp/RemoteControl/remote_control.c **** 
  25:Bsp/RemoteControl/remote_control.c **** void Callback_RC_Handle(RC_Type *rc, uint8_t *buff)
  26:Bsp/RemoteControl/remote_control.c **** {
  69              		.loc 1 26 1 is_stmt 1 view -0
  70              		.cfi_startproc
  71              		@ args = 0, pretend = 0, frame = 0
  72              		@ frame_needed = 0, uses_anonymous_args = 0
  27:Bsp/RemoteControl/remote_control.c ****     if (buff == NULL || rc == NULL)
  73              		.loc 1 27 5 view .LVU7
  74              		.loc 1 27 8 is_stmt 0 view .LVU8
  75 0000 0029     		cmp	r1, #0
  76 0002 75D0     		beq	.L9
  26:Bsp/RemoteControl/remote_control.c ****     if (buff == NULL || rc == NULL)
  77              		.loc 1 26 1 view .LVU9
  78 0004 70B5     		push	{r4, r5, r6, lr}
  79              	.LCFI1:
  80              		.cfi_def_cfa_offset 16
  81              		.cfi_offset 4, -16
  82              		.cfi_offset 5, -12
  83              		.cfi_offset 6, -8
  84              		.cfi_offset 14, -4
  85 0006 0446     		mov	r4, r0
  86 0008 0D46     		mov	r5, r1
  87              		.loc 1 27 22 discriminator 1 view .LVU10
  88 000a 0028     		cmp	r0, #0
  89 000c 6FD0     		beq	.L5
ARM GAS  C:\Users\LENOVO\AppData\Local\Temp\ccA7Ewip.s 			page 3


  28:Bsp/RemoteControl/remote_control.c ****     {
  29:Bsp/RemoteControl/remote_control.c ****         return;
  30:Bsp/RemoteControl/remote_control.c ****     }
  31:Bsp/RemoteControl/remote_control.c ****     memcpy(RC_Data_Buffer, buff, 16);
  90              		.loc 1 31 5 is_stmt 1 view .LVU11
  91 000e 394E     		ldr	r6, .L12
  92 0010 0868     		ldr	r0, [r1]	@ unaligned
  93              	.LVL3:
  94              		.loc 1 31 5 is_stmt 0 view .LVU12
  95 0012 4968     		ldr	r1, [r1, #4]	@ unaligned
  96              	.LVL4:
  97              		.loc 1 31 5 view .LVU13
  98 0014 AA68     		ldr	r2, [r5, #8]	@ unaligned
  99 0016 EB68     		ldr	r3, [r5, #12]	@ unaligned
 100 0018 0FC6     		stmia	r6!, {r0, r1, r2, r3}
  32:Bsp/RemoteControl/remote_control.c **** 
  33:Bsp/RemoteControl/remote_control.c ****     RC_dt = DWT_GetDeltaT(&RC_DWT_Count);
 101              		.loc 1 33 5 is_stmt 1 view .LVU14
 102              		.loc 1 33 13 is_stmt 0 view .LVU15
 103 001a 3748     		ldr	r0, .L12+4
 104 001c FFF7FEFF 		bl	DWT_GetDeltaT
 105              	.LVL5:
 106              		.loc 1 33 11 discriminator 1 view .LVU16
 107 0020 364B     		ldr	r3, .L12+8
 108 0022 83ED000A 		vstr.32	s0, [r3]
  34:Bsp/RemoteControl/remote_control.c **** 
  35:Bsp/RemoteControl/remote_control.c ****     rc->ch1 = (buff[0] | buff[1] << 8) & 0x07FF;
 109              		.loc 1 35 5 is_stmt 1 view .LVU17
 110              		.loc 1 35 20 is_stmt 0 view .LVU18
 111 0026 2B78     		ldrb	r3, [r5]	@ zero_extendqisi2
 112              		.loc 1 35 30 view .LVU19
 113 0028 6A78     		ldrb	r2, [r5, #1]	@ zero_extendqisi2
 114              		.loc 1 35 24 view .LVU20
 115 002a 43EA0223 		orr	r3, r3, r2, lsl #8
 116              		.loc 1 35 40 view .LVU21
 117 002e C3F30A03 		ubfx	r3, r3, #0, #11
 118              		.loc 1 35 13 view .LVU22
 119 0032 A380     		strh	r3, [r4, #4]	@ movhi
  36:Bsp/RemoteControl/remote_control.c ****     rc->ch1 -= RC_CH_VALUE_OFFSET;
 120              		.loc 1 36 5 is_stmt 1 view .LVU23
 121              		.loc 1 36 13 is_stmt 0 view .LVU24
 122 0034 A3F58063 		sub	r3, r3, #1024
 123 0038 A380     		strh	r3, [r4, #4]	@ movhi
  37:Bsp/RemoteControl/remote_control.c ****     rc->ch2 = (buff[1] >> 3 | buff[2] << 5) & 0x07FF;
 124              		.loc 1 37 5 is_stmt 1 view .LVU25
 125              		.loc 1 37 20 is_stmt 0 view .LVU26
 126 003a 6A78     		ldrb	r2, [r5, #1]	@ zero_extendqisi2
 127              		.loc 1 37 35 view .LVU27
 128 003c AB78     		ldrb	r3, [r5, #2]	@ zero_extendqisi2
 129              		.loc 1 37 29 view .LVU28
 130 003e 5B01     		lsls	r3, r3, #5
 131 0040 43EAD203 		orr	r3, r3, r2, lsr #3
 132              		.loc 1 37 45 view .LVU29
 133 0044 C3F30A03 		ubfx	r3, r3, #0, #11
 134              		.loc 1 37 13 view .LVU30
 135 0048 E380     		strh	r3, [r4, #6]	@ movhi
  38:Bsp/RemoteControl/remote_control.c ****     rc->ch2 -= RC_CH_VALUE_OFFSET;
ARM GAS  C:\Users\LENOVO\AppData\Local\Temp\ccA7Ewip.s 			page 4


 136              		.loc 1 38 5 is_stmt 1 view .LVU31
 137              		.loc 1 38 13 is_stmt 0 view .LVU32
 138 004a A3F58063 		sub	r3, r3, #1024
 139 004e E380     		strh	r3, [r4, #6]	@ movhi
  39:Bsp/RemoteControl/remote_control.c ****     rc->ch3 = (buff[2] >> 6 | buff[3] << 2 | buff[4] << 10) & 0x07FF;
 140              		.loc 1 39 5 is_stmt 1 view .LVU33
 141              		.loc 1 39 20 is_stmt 0 view .LVU34
 142 0050 AA78     		ldrb	r2, [r5, #2]	@ zero_extendqisi2
 143              		.loc 1 39 35 view .LVU35
 144 0052 EB78     		ldrb	r3, [r5, #3]	@ zero_extendqisi2
 145              		.loc 1 39 29 view .LVU36
 146 0054 9B00     		lsls	r3, r3, #2
 147 0056 43EA9213 		orr	r3, r3, r2, lsr #6
 148              		.loc 1 39 50 view .LVU37
 149 005a 2A79     		ldrb	r2, [r5, #4]	@ zero_extendqisi2
 150              		.loc 1 39 44 view .LVU38
 151 005c 43EA8223 		orr	r3, r3, r2, lsl #10
 152              		.loc 1 39 61 view .LVU39
 153 0060 C3F30A03 		ubfx	r3, r3, #0, #11
 154              		.loc 1 39 13 view .LVU40
 155 0064 2381     		strh	r3, [r4, #8]	@ movhi
  40:Bsp/RemoteControl/remote_control.c ****     rc->ch3 -= RC_CH_VALUE_OFFSET;
 156              		.loc 1 40 5 is_stmt 1 view .LVU41
 157              		.loc 1 40 13 is_stmt 0 view .LVU42
 158 0066 A3F58063 		sub	r3, r3, #1024
 159 006a 2381     		strh	r3, [r4, #8]	@ movhi
  41:Bsp/RemoteControl/remote_control.c ****     rc->ch4 = (buff[4] >> 1 | buff[5] << 7) & 0x07FF;
 160              		.loc 1 41 5 is_stmt 1 view .LVU43
 161              		.loc 1 41 20 is_stmt 0 view .LVU44
 162 006c 2A79     		ldrb	r2, [r5, #4]	@ zero_extendqisi2
 163              		.loc 1 41 35 view .LVU45
 164 006e 6B79     		ldrb	r3, [r5, #5]	@ zero_extendqisi2
 165              		.loc 1 41 29 view .LVU46
 166 0070 DB01     		lsls	r3, r3, #7
 167 0072 43EA5203 		orr	r3, r3, r2, lsr #1
 168              		.loc 1 41 45 view .LVU47
 169 0076 C3F30A03 		ubfx	r3, r3, #0, #11
 170              		.loc 1 41 13 view .LVU48
 171 007a 6381     		strh	r3, [r4, #10]	@ movhi
  42:Bsp/RemoteControl/remote_control.c ****     rc->ch4 -= RC_CH_VALUE_OFFSET;
 172              		.loc 1 42 5 is_stmt 1 view .LVU49
 173              		.loc 1 42 13 is_stmt 0 view .LVU50
 174 007c A3F58063 		sub	r3, r3, #1024
 175 0080 6381     		strh	r3, [r4, #10]	@ movhi
  43:Bsp/RemoteControl/remote_control.c **** 
  44:Bsp/RemoteControl/remote_control.c ****     rc->switch_left = ((buff[5] >> 4) & 0x000C) >> 2;
 176              		.loc 1 44 5 is_stmt 1 view .LVU51
 177              		.loc 1 44 29 is_stmt 0 view .LVU52
 178 0082 6B79     		ldrb	r3, [r5, #5]	@ zero_extendqisi2
 179              		.loc 1 44 49 view .LVU53
 180 0084 9B09     		lsrs	r3, r3, #6
 181              		.loc 1 44 21 view .LVU54
 182 0086 2373     		strb	r3, [r4, #12]
  45:Bsp/RemoteControl/remote_control.c ****     rc->switch_right = (buff[5] >> 4) & 0x0003;
 183              		.loc 1 45 5 is_stmt 1 view .LVU55
 184              		.loc 1 45 29 is_stmt 0 view .LVU56
 185 0088 6A79     		ldrb	r2, [r5, #5]	@ zero_extendqisi2
ARM GAS  C:\Users\LENOVO\AppData\Local\Temp\ccA7Ewip.s 			page 5


 186              		.loc 1 45 39 view .LVU57
 187 008a C2F30112 		ubfx	r2, r2, #4, #2
 188              		.loc 1 45 22 view .LVU58
 189 008e 6273     		strb	r2, [r4, #13]
  46:Bsp/RemoteControl/remote_control.c **** 
  47:Bsp/RemoteControl/remote_control.c ****     rc->mouse.x = buff[6] | (buff[7] << 8); // x axis
 190              		.loc 1 47 5 is_stmt 1 view .LVU59
 191              		.loc 1 47 23 is_stmt 0 view .LVU60
 192 0090 AA79     		ldrb	r2, [r5, #6]	@ zero_extendqisi2
 193              		.loc 1 47 34 view .LVU61
 194 0092 E979     		ldrb	r1, [r5, #7]	@ zero_extendqisi2
 195              		.loc 1 47 27 view .LVU62
 196 0094 42EA0122 		orr	r2, r2, r1, lsl #8
 197              		.loc 1 47 17 view .LVU63
 198 0098 E281     		strh	r2, [r4, #14]	@ movhi
  48:Bsp/RemoteControl/remote_control.c ****     rc->mouse.y = buff[8] | (buff[9] << 8);
 199              		.loc 1 48 5 is_stmt 1 view .LVU64
 200              		.loc 1 48 23 is_stmt 0 view .LVU65
 201 009a 2A7A     		ldrb	r2, [r5, #8]	@ zero_extendqisi2
 202              		.loc 1 48 34 view .LVU66
 203 009c 697A     		ldrb	r1, [r5, #9]	@ zero_extendqisi2
 204              		.loc 1 48 27 view .LVU67
 205 009e 42EA0122 		orr	r2, r2, r1, lsl #8
 206              		.loc 1 48 17 view .LVU68
 207 00a2 2282     		strh	r2, [r4, #16]	@ movhi
  49:Bsp/RemoteControl/remote_control.c ****     rc->mouse.z = buff[10] | (buff[11] << 8);
 208              		.loc 1 49 5 is_stmt 1 view .LVU69
 209              		.loc 1 49 23 is_stmt 0 view .LVU70
 210 00a4 AA7A     		ldrb	r2, [r5, #10]	@ zero_extendqisi2
 211              		.loc 1 49 35 view .LVU71
 212 00a6 E97A     		ldrb	r1, [r5, #11]	@ zero_extendqisi2
 213              		.loc 1 49 28 view .LVU72
 214 00a8 42EA0122 		orr	r2, r2, r1, lsl #8
 215              		.loc 1 49 17 view .LVU73
 216 00ac 6282     		strh	r2, [r4, #18]	@ movhi
  50:Bsp/RemoteControl/remote_control.c **** 
  51:Bsp/RemoteControl/remote_control.c ****     rc->mouse.press_left = buff[12]; // is pressed?
 217              		.loc 1 51 5 is_stmt 1 view .LVU74
 218              		.loc 1 51 26 is_stmt 0 view .LVU75
 219 00ae 2A7B     		ldrb	r2, [r5, #12]	@ zero_extendqisi2
 220 00b0 2275     		strb	r2, [r4, #20]
  52:Bsp/RemoteControl/remote_control.c ****     rc->mouse.press_right = buff[13];
 221              		.loc 1 52 5 is_stmt 1 view .LVU76
 222              		.loc 1 52 27 is_stmt 0 view .LVU77
 223 00b2 6A7B     		ldrb	r2, [r5, #13]	@ zero_extendqisi2
 224 00b4 6275     		strb	r2, [r4, #21]
  53:Bsp/RemoteControl/remote_control.c **** 
  54:Bsp/RemoteControl/remote_control.c ****     rc->key_code = buff[14] | buff[15] << 8; // key borad code
 225              		.loc 1 54 5 is_stmt 1 view .LVU78
 226              		.loc 1 54 24 is_stmt 0 view .LVU79
 227 00b6 AA7B     		ldrb	r2, [r5, #14]	@ zero_extendqisi2
 228              		.loc 1 54 35 view .LVU80
 229 00b8 E97B     		ldrb	r1, [r5, #15]	@ zero_extendqisi2
 230              		.loc 1 54 29 view .LVU81
 231 00ba 42EA0122 		orr	r2, r2, r1, lsl #8
 232              		.loc 1 54 18 view .LVU82
 233 00be E282     		strh	r2, [r4, #22]	@ movhi
ARM GAS  C:\Users\LENOVO\AppData\Local\Temp\ccA7Ewip.s 			page 6


  55:Bsp/RemoteControl/remote_control.c **** 
  56:Bsp/RemoteControl/remote_control.c ****     if (rc->switch_left != 1 && rc->switch_left != 2 && rc->switch_left != 3)
 234              		.loc 1 56 5 is_stmt 1 view .LVU83
 235              		.loc 1 56 54 is_stmt 0 view .LVU84
 236 00c0 013B     		subs	r3, r3, #1
 237 00c2 DBB2     		uxtb	r3, r3
 238              		.loc 1 56 8 view .LVU85
 239 00c4 022B     		cmp	r3, #2
 240 00c6 0CD9     		bls	.L7
  57:Bsp/RemoteControl/remote_control.c ****     {
  58:Bsp/RemoteControl/remote_control.c ****         rc->ch1 = 0;
 241              		.loc 1 58 9 is_stmt 1 view .LVU86
 242              		.loc 1 58 17 is_stmt 0 view .LVU87
 243 00c8 0023     		movs	r3, #0
 244 00ca A380     		strh	r3, [r4, #4]	@ movhi
  59:Bsp/RemoteControl/remote_control.c ****         rc->ch2 = 0;
 245              		.loc 1 59 9 is_stmt 1 view .LVU88
 246              		.loc 1 59 17 is_stmt 0 view .LVU89
 247 00cc E380     		strh	r3, [r4, #6]	@ movhi
  60:Bsp/RemoteControl/remote_control.c ****         rc->ch3 = 0;
 248              		.loc 1 60 9 is_stmt 1 view .LVU90
 249              		.loc 1 60 17 is_stmt 0 view .LVU91
 250 00ce 2381     		strh	r3, [r4, #8]	@ movhi
  61:Bsp/RemoteControl/remote_control.c ****         rc->ch4 = 0;
 251              		.loc 1 61 9 is_stmt 1 view .LVU92
 252              		.loc 1 61 17 is_stmt 0 view .LVU93
 253 00d0 6381     		strh	r3, [r4, #10]	@ movhi
  62:Bsp/RemoteControl/remote_control.c ****         rc->switch_left = 0;
 254              		.loc 1 62 9 is_stmt 1 view .LVU94
 255              		.loc 1 62 25 is_stmt 0 view .LVU95
 256 00d2 2373     		strb	r3, [r4, #12]
  63:Bsp/RemoteControl/remote_control.c ****         rc->switch_right = 0;
 257              		.loc 1 63 9 is_stmt 1 view .LVU96
 258              		.loc 1 63 26 is_stmt 0 view .LVU97
 259 00d4 6373     		strb	r3, [r4, #13]
  64:Bsp/RemoteControl/remote_control.c **** 
  65:Bsp/RemoteControl/remote_control.c ****         rc->mouse.x = 0; // x axis
 260              		.loc 1 65 9 is_stmt 1 view .LVU98
 261              		.loc 1 65 21 is_stmt 0 view .LVU99
 262 00d6 E381     		strh	r3, [r4, #14]	@ movhi
  66:Bsp/RemoteControl/remote_control.c ****         rc->mouse.y = 0;
 263              		.loc 1 66 9 is_stmt 1 view .LVU100
 264              		.loc 1 66 21 is_stmt 0 view .LVU101
 265 00d8 2382     		strh	r3, [r4, #16]	@ movhi
  67:Bsp/RemoteControl/remote_control.c ****         rc->mouse.z = 0;
 266              		.loc 1 67 9 is_stmt 1 view .LVU102
 267              		.loc 1 67 21 is_stmt 0 view .LVU103
 268 00da 6382     		strh	r3, [r4, #18]	@ movhi
  68:Bsp/RemoteControl/remote_control.c **** 
  69:Bsp/RemoteControl/remote_control.c ****         rc->mouse.press_left = 0; // is pressed?
 269              		.loc 1 69 9 is_stmt 1 view .LVU104
 270              		.loc 1 69 30 is_stmt 0 view .LVU105
 271 00dc 2375     		strb	r3, [r4, #20]
  70:Bsp/RemoteControl/remote_control.c ****         rc->mouse.press_right = 0;
 272              		.loc 1 70 9 is_stmt 1 view .LVU106
 273              		.loc 1 70 31 is_stmt 0 view .LVU107
 274 00de 6375     		strb	r3, [r4, #21]
ARM GAS  C:\Users\LENOVO\AppData\Local\Temp\ccA7Ewip.s 			page 7


  71:Bsp/RemoteControl/remote_control.c **** 
  72:Bsp/RemoteControl/remote_control.c ****         rc->key_code = 0; // key borad codes
 275              		.loc 1 72 9 is_stmt 1 view .LVU108
 276              		.loc 1 72 22 is_stmt 0 view .LVU109
 277 00e0 E382     		strh	r3, [r4, #22]	@ movhi
 278              	.L7:
  73:Bsp/RemoteControl/remote_control.c ****     }
  74:Bsp/RemoteControl/remote_control.c **** 
  75:Bsp/RemoteControl/remote_control.c ****     // if (resetCount < 2000)
  76:Bsp/RemoteControl/remote_control.c ****     //     Send_RC_Data(&hcan1, buff);
  77:Bsp/RemoteControl/remote_control.c ****     RC_Update = 1;
 279              		.loc 1 77 5 is_stmt 1 view .LVU110
 280              		.loc 1 77 15 is_stmt 0 view .LVU111
 281 00e2 074B     		ldr	r3, .L12+12
 282 00e4 0122     		movs	r2, #1
 283 00e6 1A70     		strb	r2, [r3]
  78:Bsp/RemoteControl/remote_control.c **** 
  79:Bsp/RemoteControl/remote_control.c ****     Detect_Hook(RC_TOE);
 284              		.loc 1 79 5 is_stmt 1 view .LVU112
 285 00e8 0420     		movs	r0, #4
 286 00ea FFF7FEFF 		bl	Detect_Hook
 287              	.LVL6:
 288              	.L5:
  80:Bsp/RemoteControl/remote_control.c **** }
 289              		.loc 1 80 1 is_stmt 0 view .LVU113
 290 00ee 70BD     		pop	{r4, r5, r6, pc}
 291              	.LVL7:
 292              	.L9:
 293              	.LCFI2:
 294              		.cfi_def_cfa_offset 0
 295              		.cfi_restore 4
 296              		.cfi_restore 5
 297              		.cfi_restore 6
 298              		.cfi_restore 14
 299              		.loc 1 80 1 view .LVU114
 300 00f0 7047     		bx	lr
 301              	.L13:
 302 00f2 00BF     		.align	2
 303              	.L12:
 304 00f4 00000000 		.word	RC_Data_Buffer
 305 00f8 00000000 		.word	RC_DWT_Count
 306 00fc 00000000 		.word	RC_dt
 307 0100 00000000 		.word	RC_Update
 308              		.cfi_endproc
 309              	.LFE136:
 311              		.section	.text.Solve_RC_Lost,"ax",%progbits
 312              		.align	1
 313              		.global	Solve_RC_Lost
 314              		.syntax unified
 315              		.thumb
 316              		.thumb_func
 318              	Solve_RC_Lost:
 319              	.LFB137:
  81:Bsp/RemoteControl/remote_control.c **** 
  82:Bsp/RemoteControl/remote_control.c **** void Solve_RC_Lost(void)
  83:Bsp/RemoteControl/remote_control.c **** {
 320              		.loc 1 83 1 is_stmt 1 view -0
ARM GAS  C:\Users\LENOVO\AppData\Local\Temp\ccA7Ewip.s 			page 8


 321              		.cfi_startproc
 322              		@ args = 0, pretend = 0, frame = 0
 323              		@ frame_needed = 0, uses_anonymous_args = 0
 324 0000 08B5     		push	{r3, lr}
 325              	.LCFI3:
 326              		.cfi_def_cfa_offset 8
 327              		.cfi_offset 3, -8
 328              		.cfi_offset 14, -4
  84:Bsp/RemoteControl/remote_control.c ****     USART_IDLE_Init(remote_control.RC_USART, sbus_rx_buf, SBUS_RX_BUF_NUM);
 329              		.loc 1 84 5 view .LVU116
 330 0002 2422     		movs	r2, #36
 331 0004 0249     		ldr	r1, .L16
 332 0006 034B     		ldr	r3, .L16+4
 333 0008 1868     		ldr	r0, [r3]
 334 000a FFF7FEFF 		bl	USART_IDLE_Init
 335              	.LVL8:
  85:Bsp/RemoteControl/remote_control.c **** }
 336              		.loc 1 85 1 is_stmt 0 view .LVU117
 337 000e 08BD     		pop	{r3, pc}
 338              	.L17:
 339              		.align	2
 340              	.L16:
 341 0010 00000000 		.word	sbus_rx_buf
 342 0014 00000000 		.word	remote_control
 343              		.cfi_endproc
 344              	.LFE137:
 346              		.section	.text.Solve_RC_Data_Error,"ax",%progbits
 347              		.align	1
 348              		.global	Solve_RC_Data_Error
 349              		.syntax unified
 350              		.thumb
 351              		.thumb_func
 353              	Solve_RC_Data_Error:
 354              	.LFB138:
  86:Bsp/RemoteControl/remote_control.c **** 
  87:Bsp/RemoteControl/remote_control.c **** void Solve_RC_Data_Error(void)
  88:Bsp/RemoteControl/remote_control.c **** {
 355              		.loc 1 88 1 is_stmt 1 view -0
 356              		.cfi_startproc
 357              		@ args = 0, pretend = 0, frame = 0
 358              		@ frame_needed = 0, uses_anonymous_args = 0
 359 0000 08B5     		push	{r3, lr}
 360              	.LCFI4:
 361              		.cfi_def_cfa_offset 8
 362              		.cfi_offset 3, -8
 363              		.cfi_offset 14, -4
  89:Bsp/RemoteControl/remote_control.c ****     USART_IDLE_Init(remote_control.RC_USART, sbus_rx_buf, SBUS_RX_BUF_NUM);
 364              		.loc 1 89 5 view .LVU119
 365 0002 2422     		movs	r2, #36
 366 0004 0249     		ldr	r1, .L20
 367 0006 034B     		ldr	r3, .L20+4
 368 0008 1868     		ldr	r0, [r3]
 369 000a FFF7FEFF 		bl	USART_IDLE_Init
 370              	.LVL9:
  90:Bsp/RemoteControl/remote_control.c **** }
 371              		.loc 1 90 1 is_stmt 0 view .LVU120
 372 000e 08BD     		pop	{r3, pc}
ARM GAS  C:\Users\LENOVO\AppData\Local\Temp\ccA7Ewip.s 			page 9


 373              	.L21:
 374              		.align	2
 375              	.L20:
 376 0010 00000000 		.word	sbus_rx_buf
 377 0014 00000000 		.word	remote_control
 378              		.cfi_endproc
 379              	.LFE138:
 381              		.section	.text.RC_Data_is_Error,"ax",%progbits
 382              		.align	1
 383              		.global	RC_Data_is_Error
 384              		.syntax unified
 385              		.thumb
 386              		.thumb_func
 388              	RC_Data_is_Error:
 389              	.LFB139:
  91:Bsp/RemoteControl/remote_control.c **** 
  92:Bsp/RemoteControl/remote_control.c **** uint8_t RC_Data_is_Error(void)
  93:Bsp/RemoteControl/remote_control.c **** {
 390              		.loc 1 93 1 is_stmt 1 view -0
 391              		.cfi_startproc
 392              		@ args = 0, pretend = 0, frame = 0
 393              		@ frame_needed = 0, uses_anonymous_args = 0
 394              		@ link register save eliminated.
  94:Bsp/RemoteControl/remote_control.c ****     
  95:Bsp/RemoteControl/remote_control.c ****     if (abs(remote_control.ch1) > 1000)
 395              		.loc 1 95 5 view .LVU122
 396              		.loc 1 95 27 is_stmt 0 view .LVU123
 397 0000 1F4B     		ldr	r3, .L26
 398 0002 B3F90430 		ldrsh	r3, [r3, #4]
 399              		.loc 1 95 9 view .LVU124
 400 0006 002B     		cmp	r3, #0
 401 0008 B8BF     		it	lt
 402 000a 5B42     		rsblt	r3, r3, #0
 403 000c 9BB2     		uxth	r3, r3
 404              		.loc 1 95 8 view .LVU125
 405 000e B3F57A7F 		cmp	r3, #1000
 406 0012 25D8     		bhi	.L23
  96:Bsp/RemoteControl/remote_control.c ****     {
  97:Bsp/RemoteControl/remote_control.c ****         goto error;
  98:Bsp/RemoteControl/remote_control.c ****     }
  99:Bsp/RemoteControl/remote_control.c ****     if (abs(remote_control.ch2) > 1000)
 407              		.loc 1 99 5 is_stmt 1 view .LVU126
 408              		.loc 1 99 27 is_stmt 0 view .LVU127
 409 0014 1A4B     		ldr	r3, .L26
 410 0016 B3F90630 		ldrsh	r3, [r3, #6]
 411              		.loc 1 99 9 view .LVU128
 412 001a 002B     		cmp	r3, #0
 413 001c B8BF     		it	lt
 414 001e 5B42     		rsblt	r3, r3, #0
 415 0020 9BB2     		uxth	r3, r3
 416              		.loc 1 99 8 view .LVU129
 417 0022 B3F57A7F 		cmp	r3, #1000
 418 0026 1BD8     		bhi	.L23
 100:Bsp/RemoteControl/remote_control.c ****     {
 101:Bsp/RemoteControl/remote_control.c ****         goto error;
 102:Bsp/RemoteControl/remote_control.c ****     }
 103:Bsp/RemoteControl/remote_control.c ****     if (abs(remote_control.ch3) > 1000)
ARM GAS  C:\Users\LENOVO\AppData\Local\Temp\ccA7Ewip.s 			page 10


 419              		.loc 1 103 5 is_stmt 1 view .LVU130
 420              		.loc 1 103 27 is_stmt 0 view .LVU131
 421 0028 154B     		ldr	r3, .L26
 422 002a B3F90830 		ldrsh	r3, [r3, #8]
 423              		.loc 1 103 9 view .LVU132
 424 002e 002B     		cmp	r3, #0
 425 0030 B8BF     		it	lt
 426 0032 5B42     		rsblt	r3, r3, #0
 427 0034 9BB2     		uxth	r3, r3
 428              		.loc 1 103 8 view .LVU133
 429 0036 B3F57A7F 		cmp	r3, #1000
 430 003a 11D8     		bhi	.L23
 104:Bsp/RemoteControl/remote_control.c ****     {
 105:Bsp/RemoteControl/remote_control.c ****         goto error;
 106:Bsp/RemoteControl/remote_control.c ****     }
 107:Bsp/RemoteControl/remote_control.c ****     if (abs(remote_control.ch4) > 1000)
 431              		.loc 1 107 5 is_stmt 1 view .LVU134
 432              		.loc 1 107 27 is_stmt 0 view .LVU135
 433 003c 104B     		ldr	r3, .L26
 434 003e B3F90A30 		ldrsh	r3, [r3, #10]
 435              		.loc 1 107 9 view .LVU136
 436 0042 002B     		cmp	r3, #0
 437 0044 B8BF     		it	lt
 438 0046 5B42     		rsblt	r3, r3, #0
 439 0048 9BB2     		uxth	r3, r3
 440              		.loc 1 107 8 view .LVU137
 441 004a B3F57A7F 		cmp	r3, #1000
 442 004e 07D8     		bhi	.L23
 108:Bsp/RemoteControl/remote_control.c ****     {
 109:Bsp/RemoteControl/remote_control.c ****         goto error;
 110:Bsp/RemoteControl/remote_control.c ****     }
 111:Bsp/RemoteControl/remote_control.c ****     if (remote_control.switch_left == 0)
 443              		.loc 1 111 5 is_stmt 1 view .LVU138
 444              		.loc 1 111 23 is_stmt 0 view .LVU139
 445 0050 0B4B     		ldr	r3, .L26
 446 0052 1B7B     		ldrb	r3, [r3, #12]	@ zero_extendqisi2
 447              		.loc 1 111 8 view .LVU140
 448 0054 23B1     		cbz	r3, .L23
 112:Bsp/RemoteControl/remote_control.c ****     {
 113:Bsp/RemoteControl/remote_control.c ****         goto error;
 114:Bsp/RemoteControl/remote_control.c ****     }
 115:Bsp/RemoteControl/remote_control.c ****     if (remote_control.switch_right == 0)
 449              		.loc 1 115 5 is_stmt 1 view .LVU141
 450              		.loc 1 115 23 is_stmt 0 view .LVU142
 451 0056 0A4B     		ldr	r3, .L26
 452 0058 5B7B     		ldrb	r3, [r3, #13]	@ zero_extendqisi2
 453              		.loc 1 115 8 view .LVU143
 454 005a 0BB1     		cbz	r3, .L23
 116:Bsp/RemoteControl/remote_control.c ****     {
 117:Bsp/RemoteControl/remote_control.c ****         goto error;
 118:Bsp/RemoteControl/remote_control.c ****     }
 119:Bsp/RemoteControl/remote_control.c ****     return 0;
 455              		.loc 1 119 12 view .LVU144
 456 005c 0020     		movs	r0, #0
 120:Bsp/RemoteControl/remote_control.c **** 
 121:Bsp/RemoteControl/remote_control.c **** error:
 122:Bsp/RemoteControl/remote_control.c ****     remote_control.ch1 = 0;
ARM GAS  C:\Users\LENOVO\AppData\Local\Temp\ccA7Ewip.s 			page 11


 123:Bsp/RemoteControl/remote_control.c ****     remote_control.ch2 = 0;
 124:Bsp/RemoteControl/remote_control.c ****     remote_control.ch3 = 0;
 125:Bsp/RemoteControl/remote_control.c ****     remote_control.ch4 = 0;
 126:Bsp/RemoteControl/remote_control.c **** 
 127:Bsp/RemoteControl/remote_control.c ****     remote_control.mouse.x = 0;
 128:Bsp/RemoteControl/remote_control.c ****     remote_control.mouse.y = 0;
 129:Bsp/RemoteControl/remote_control.c ****     remote_control.mouse.z = 0;
 130:Bsp/RemoteControl/remote_control.c ****     remote_control.switch_left = 0;
 131:Bsp/RemoteControl/remote_control.c ****     remote_control.switch_right = 0;
 132:Bsp/RemoteControl/remote_control.c **** 
 133:Bsp/RemoteControl/remote_control.c ****     remote_control.mouse.x = 0; // x axis
 134:Bsp/RemoteControl/remote_control.c ****     remote_control.mouse.y = 0;
 135:Bsp/RemoteControl/remote_control.c ****     remote_control.mouse.z = 0;
 136:Bsp/RemoteControl/remote_control.c **** 
 137:Bsp/RemoteControl/remote_control.c ****     remote_control.mouse.press_left = 0; // is pressed?
 138:Bsp/RemoteControl/remote_control.c ****     remote_control.mouse.press_right = 0;
 139:Bsp/RemoteControl/remote_control.c **** 
 140:Bsp/RemoteControl/remote_control.c ****     remote_control.key_code = 0; // key borad code
 141:Bsp/RemoteControl/remote_control.c ****     return 1;
 142:Bsp/RemoteControl/remote_control.c **** }
 457              		.loc 1 142 1 view .LVU145
 458 005e 7047     		bx	lr
 459              	.L23:
 122:Bsp/RemoteControl/remote_control.c ****     remote_control.ch2 = 0;
 460              		.loc 1 122 5 is_stmt 1 view .LVU146
 122:Bsp/RemoteControl/remote_control.c ****     remote_control.ch2 = 0;
 461              		.loc 1 122 24 is_stmt 0 view .LVU147
 462 0060 074B     		ldr	r3, .L26
 463 0062 0022     		movs	r2, #0
 464 0064 9A80     		strh	r2, [r3, #4]	@ movhi
 123:Bsp/RemoteControl/remote_control.c ****     remote_control.ch3 = 0;
 465              		.loc 1 123 5 is_stmt 1 view .LVU148
 123:Bsp/RemoteControl/remote_control.c ****     remote_control.ch3 = 0;
 466              		.loc 1 123 24 is_stmt 0 view .LVU149
 467 0066 DA80     		strh	r2, [r3, #6]	@ movhi
 124:Bsp/RemoteControl/remote_control.c ****     remote_control.ch4 = 0;
 468              		.loc 1 124 5 is_stmt 1 view .LVU150
 124:Bsp/RemoteControl/remote_control.c ****     remote_control.ch4 = 0;
 469              		.loc 1 124 24 is_stmt 0 view .LVU151
 470 0068 1A81     		strh	r2, [r3, #8]	@ movhi
 125:Bsp/RemoteControl/remote_control.c **** 
 471              		.loc 1 125 5 is_stmt 1 view .LVU152
 125:Bsp/RemoteControl/remote_control.c **** 
 472              		.loc 1 125 24 is_stmt 0 view .LVU153
 473 006a 5A81     		strh	r2, [r3, #10]	@ movhi
 127:Bsp/RemoteControl/remote_control.c ****     remote_control.mouse.y = 0;
 474              		.loc 1 127 5 is_stmt 1 view .LVU154
 127:Bsp/RemoteControl/remote_control.c ****     remote_control.mouse.y = 0;
 475              		.loc 1 127 28 is_stmt 0 view .LVU155
 476 006c DA81     		strh	r2, [r3, #14]	@ movhi
 128:Bsp/RemoteControl/remote_control.c ****     remote_control.mouse.z = 0;
 477              		.loc 1 128 5 is_stmt 1 view .LVU156
 128:Bsp/RemoteControl/remote_control.c ****     remote_control.mouse.z = 0;
 478              		.loc 1 128 28 is_stmt 0 view .LVU157
 479 006e 1A82     		strh	r2, [r3, #16]	@ movhi
 129:Bsp/RemoteControl/remote_control.c ****     remote_control.switch_left = 0;
 480              		.loc 1 129 5 is_stmt 1 view .LVU158
ARM GAS  C:\Users\LENOVO\AppData\Local\Temp\ccA7Ewip.s 			page 12


 129:Bsp/RemoteControl/remote_control.c ****     remote_control.switch_left = 0;
 481              		.loc 1 129 28 is_stmt 0 view .LVU159
 482 0070 5A82     		strh	r2, [r3, #18]	@ movhi
 130:Bsp/RemoteControl/remote_control.c ****     remote_control.switch_right = 0;
 483              		.loc 1 130 5 is_stmt 1 view .LVU160
 130:Bsp/RemoteControl/remote_control.c ****     remote_control.switch_right = 0;
 484              		.loc 1 130 32 is_stmt 0 view .LVU161
 485 0072 1A73     		strb	r2, [r3, #12]
 131:Bsp/RemoteControl/remote_control.c **** 
 486              		.loc 1 131 5 is_stmt 1 view .LVU162
 131:Bsp/RemoteControl/remote_control.c **** 
 487              		.loc 1 131 33 is_stmt 0 view .LVU163
 488 0074 5A73     		strb	r2, [r3, #13]
 133:Bsp/RemoteControl/remote_control.c ****     remote_control.mouse.y = 0;
 489              		.loc 1 133 5 is_stmt 1 view .LVU164
 134:Bsp/RemoteControl/remote_control.c ****     remote_control.mouse.z = 0;
 490              		.loc 1 134 5 view .LVU165
 135:Bsp/RemoteControl/remote_control.c **** 
 491              		.loc 1 135 5 view .LVU166
 137:Bsp/RemoteControl/remote_control.c ****     remote_control.mouse.press_right = 0;
 492              		.loc 1 137 5 view .LVU167
 137:Bsp/RemoteControl/remote_control.c ****     remote_control.mouse.press_right = 0;
 493              		.loc 1 137 37 is_stmt 0 view .LVU168
 494 0076 1A75     		strb	r2, [r3, #20]
 138:Bsp/RemoteControl/remote_control.c **** 
 495              		.loc 1 138 5 is_stmt 1 view .LVU169
 138:Bsp/RemoteControl/remote_control.c **** 
 496              		.loc 1 138 38 is_stmt 0 view .LVU170
 497 0078 5A75     		strb	r2, [r3, #21]
 140:Bsp/RemoteControl/remote_control.c ****     return 1;
 498              		.loc 1 140 5 is_stmt 1 view .LVU171
 140:Bsp/RemoteControl/remote_control.c ****     return 1;
 499              		.loc 1 140 29 is_stmt 0 view .LVU172
 500 007a DA82     		strh	r2, [r3, #22]	@ movhi
 141:Bsp/RemoteControl/remote_control.c **** }
 501              		.loc 1 141 5 is_stmt 1 view .LVU173
 141:Bsp/RemoteControl/remote_control.c **** }
 502              		.loc 1 141 12 is_stmt 0 view .LVU174
 503 007c 0120     		movs	r0, #1
 504 007e 7047     		bx	lr
 505              	.L27:
 506              		.align	2
 507              	.L26:
 508 0080 00000000 		.word	remote_control
 509              		.cfi_endproc
 510              	.LFE139:
 512              		.global	RC_Update
 513              		.section	.bss.RC_Update,"aw",%nobits
 516              	RC_Update:
 517 0000 00       		.space	1
 518              		.global	RC_dt
 519              		.section	.bss.RC_dt,"aw",%nobits
 520              		.align	2
 523              	RC_dt:
 524 0000 00000000 		.space	4
 525              		.global	RC_DWT_Count
 526              		.section	.bss.RC_DWT_Count,"aw",%nobits
ARM GAS  C:\Users\LENOVO\AppData\Local\Temp\ccA7Ewip.s 			page 13


 527              		.align	2
 530              	RC_DWT_Count:
 531 0000 00000000 		.space	4
 532              		.global	RC_Data_Buffer
 533              		.section	.bss.RC_Data_Buffer,"aw",%nobits
 534              		.align	2
 537              	RC_Data_Buffer:
 538 0000 00000000 		.space	16
 538      00000000 
 538      00000000 
 538      00000000 
 539              		.global	sbus_rx_buf
 540              		.section	.bss.sbus_rx_buf,"aw",%nobits
 541              		.align	2
 544              	sbus_rx_buf:
 545 0000 00000000 		.space	36
 545      00000000 
 545      00000000 
 545      00000000 
 545      00000000 
 546              		.global	remote_control
 547              		.section	.bss.remote_control,"aw",%nobits
 548              		.align	2
 551              	remote_control:
 552 0000 00000000 		.space	28
 552      00000000 
 552      00000000 
 552      00000000 
 552      00000000 
 553              		.text
 554              	.Letext0:
 555              		.file 2 "C:/msys64/mingw64/arm-none-eabi/include/machine/_default_types.h"
 556              		.file 3 "C:/msys64/mingw64/arm-none-eabi/include/sys/_stdint.h"
 557              		.file 4 "Drivers/CMSIS/Device/ST/STM32F4xx/Include/stm32f407xx.h"
 558              		.file 5 "Drivers/STM32F4xx_HAL_Driver/Inc/stm32f4xx_hal_def.h"
 559              		.file 6 "Drivers/STM32F4xx_HAL_Driver/Inc/stm32f4xx_hal_dma.h"
 560              		.file 7 "Drivers/STM32F4xx_HAL_Driver/Inc/stm32f4xx_hal_uart.h"
 561              		.file 8 "Bsp/RemoteControl/remote_control.h"
 562              		.file 9 "Application/DetectTask/detect_task.h"
 563              		.file 10 "Core/Inc/bsp_usart_idle.h"
 564              		.file 11 "Core/Inc/bsp_dwt.h"
ARM GAS  C:\Users\LENOVO\AppData\Local\Temp\ccA7Ewip.s 			page 14

