ARM GAS  C:\Users\LENOVO\AppData\Local\Temp\ccLbhjnu.s 			page 1


   1              		.cpu cortex-m4
   2              		.arch armv7e-m
   3              		.fpu fpv4-sp-d16
   4              		.eabi_attribute 27, 1
   5              		.eabi_attribute 28, 1
   6              		.eabi_attribute 20, 1
   7              		.eabi_attribute 21, 1
   8              		.eabi_attribute 23, 3
   9              		.eabi_attribute 24, 1
  10              		.eabi_attribute 25, 1
  11              		.eabi_attribute 26, 1
  12              		.eabi_attribute 30, 1
  13              		.eabi_attribute 34, 1
  14              		.eabi_attribute 18, 4
  15              		.file	"stm32f4xx_hal_adc_ex.c"
  16              		.text
  17              	.Ltext0:
  18              		.cfi_sections	.debug_frame
  19              		.file 1 "Drivers/STM32F4xx_HAL_Driver/Src/stm32f4xx_hal_adc_ex.c"
  20              		.section	.text.ADC_MultiModeDMAError,"ax",%progbits
  21              		.align	1
  22              		.syntax unified
  23              		.thumb
  24              		.thumb_func
  26              	ADC_MultiModeDMAError:
  27              	.LVL0:
  28              	.LFB144:
   1:Drivers/STM32F4xx_HAL_Driver/Src/stm32f4xx_hal_adc_ex.c **** /**
   2:Drivers/STM32F4xx_HAL_Driver/Src/stm32f4xx_hal_adc_ex.c ****   ******************************************************************************
   3:Drivers/STM32F4xx_HAL_Driver/Src/stm32f4xx_hal_adc_ex.c ****   * @file    stm32f4xx_hal_adc_ex.c
   4:Drivers/STM32F4xx_HAL_Driver/Src/stm32f4xx_hal_adc_ex.c ****   * @author  MCD Application Team
   5:Drivers/STM32F4xx_HAL_Driver/Src/stm32f4xx_hal_adc_ex.c ****   * @brief   This file provides firmware functions to manage the following
   6:Drivers/STM32F4xx_HAL_Driver/Src/stm32f4xx_hal_adc_ex.c ****   *          functionalities of the ADC extension peripheral:
   7:Drivers/STM32F4xx_HAL_Driver/Src/stm32f4xx_hal_adc_ex.c ****   *           + Extended features functions
   8:Drivers/STM32F4xx_HAL_Driver/Src/stm32f4xx_hal_adc_ex.c ****   *
   9:Drivers/STM32F4xx_HAL_Driver/Src/stm32f4xx_hal_adc_ex.c ****   @verbatim
  10:Drivers/STM32F4xx_HAL_Driver/Src/stm32f4xx_hal_adc_ex.c ****   ==============================================================================
  11:Drivers/STM32F4xx_HAL_Driver/Src/stm32f4xx_hal_adc_ex.c ****                     ##### How to use this driver #####
  12:Drivers/STM32F4xx_HAL_Driver/Src/stm32f4xx_hal_adc_ex.c ****   ==============================================================================
  13:Drivers/STM32F4xx_HAL_Driver/Src/stm32f4xx_hal_adc_ex.c ****     [..]
  14:Drivers/STM32F4xx_HAL_Driver/Src/stm32f4xx_hal_adc_ex.c ****     (#)Initialize the ADC low level resources by implementing the HAL_ADC_MspInit():
  15:Drivers/STM32F4xx_HAL_Driver/Src/stm32f4xx_hal_adc_ex.c ****        (##) Enable the ADC interface clock using __HAL_RCC_ADC_CLK_ENABLE()
  16:Drivers/STM32F4xx_HAL_Driver/Src/stm32f4xx_hal_adc_ex.c ****        (##) ADC pins configuration
  17:Drivers/STM32F4xx_HAL_Driver/Src/stm32f4xx_hal_adc_ex.c ****              (+++) Enable the clock for the ADC GPIOs using the following function:
  18:Drivers/STM32F4xx_HAL_Driver/Src/stm32f4xx_hal_adc_ex.c ****                    __HAL_RCC_GPIOx_CLK_ENABLE()
  19:Drivers/STM32F4xx_HAL_Driver/Src/stm32f4xx_hal_adc_ex.c ****              (+++) Configure these ADC pins in analog mode using HAL_GPIO_Init()
  20:Drivers/STM32F4xx_HAL_Driver/Src/stm32f4xx_hal_adc_ex.c ****        (##) In case of using interrupts (e.g. HAL_ADC_Start_IT())
  21:Drivers/STM32F4xx_HAL_Driver/Src/stm32f4xx_hal_adc_ex.c ****              (+++) Configure the ADC interrupt priority using HAL_NVIC_SetPriority()
  22:Drivers/STM32F4xx_HAL_Driver/Src/stm32f4xx_hal_adc_ex.c ****              (+++) Enable the ADC IRQ handler using HAL_NVIC_EnableIRQ()
  23:Drivers/STM32F4xx_HAL_Driver/Src/stm32f4xx_hal_adc_ex.c ****              (+++) In ADC IRQ handler, call HAL_ADC_IRQHandler()
  24:Drivers/STM32F4xx_HAL_Driver/Src/stm32f4xx_hal_adc_ex.c ****       (##) In case of using DMA to control data transfer (e.g. HAL_ADC_Start_DMA())
  25:Drivers/STM32F4xx_HAL_Driver/Src/stm32f4xx_hal_adc_ex.c ****              (+++) Enable the DMAx interface clock using __HAL_RCC_DMAx_CLK_ENABLE()
  26:Drivers/STM32F4xx_HAL_Driver/Src/stm32f4xx_hal_adc_ex.c ****              (+++) Configure and enable two DMA streams stream for managing data
  27:Drivers/STM32F4xx_HAL_Driver/Src/stm32f4xx_hal_adc_ex.c ****                  transfer from peripheral to memory (output stream)
  28:Drivers/STM32F4xx_HAL_Driver/Src/stm32f4xx_hal_adc_ex.c ****              (+++) Associate the initialized DMA handle to the ADC DMA handle
  29:Drivers/STM32F4xx_HAL_Driver/Src/stm32f4xx_hal_adc_ex.c ****                  using  __HAL_LINKDMA()
  30:Drivers/STM32F4xx_HAL_Driver/Src/stm32f4xx_hal_adc_ex.c ****              (+++) Configure the priority and enable the NVIC for the transfer complete
ARM GAS  C:\Users\LENOVO\AppData\Local\Temp\ccLbhjnu.s 			page 2


  31:Drivers/STM32F4xx_HAL_Driver/Src/stm32f4xx_hal_adc_ex.c ****                  interrupt on the two DMA Streams. The output stream should have higher
  32:Drivers/STM32F4xx_HAL_Driver/Src/stm32f4xx_hal_adc_ex.c ****                  priority than the input stream.
  33:Drivers/STM32F4xx_HAL_Driver/Src/stm32f4xx_hal_adc_ex.c ****      (#) Configure the ADC Prescaler, conversion resolution and data alignment
  34:Drivers/STM32F4xx_HAL_Driver/Src/stm32f4xx_hal_adc_ex.c ****          using the HAL_ADC_Init() function.
  35:Drivers/STM32F4xx_HAL_Driver/Src/stm32f4xx_hal_adc_ex.c **** 
  36:Drivers/STM32F4xx_HAL_Driver/Src/stm32f4xx_hal_adc_ex.c ****      (#) Configure the ADC Injected channels group features, use HAL_ADC_Init()
  37:Drivers/STM32F4xx_HAL_Driver/Src/stm32f4xx_hal_adc_ex.c ****          and HAL_ADC_ConfigChannel() functions.
  38:Drivers/STM32F4xx_HAL_Driver/Src/stm32f4xx_hal_adc_ex.c **** 
  39:Drivers/STM32F4xx_HAL_Driver/Src/stm32f4xx_hal_adc_ex.c ****      (#) Three operation modes are available within this driver:
  40:Drivers/STM32F4xx_HAL_Driver/Src/stm32f4xx_hal_adc_ex.c **** 
  41:Drivers/STM32F4xx_HAL_Driver/Src/stm32f4xx_hal_adc_ex.c ****      *** Polling mode IO operation ***
  42:Drivers/STM32F4xx_HAL_Driver/Src/stm32f4xx_hal_adc_ex.c ****      =================================
  43:Drivers/STM32F4xx_HAL_Driver/Src/stm32f4xx_hal_adc_ex.c ****      [..]
  44:Drivers/STM32F4xx_HAL_Driver/Src/stm32f4xx_hal_adc_ex.c ****        (+) Start the ADC peripheral using HAL_ADCEx_InjectedStart()
  45:Drivers/STM32F4xx_HAL_Driver/Src/stm32f4xx_hal_adc_ex.c ****        (+) Wait for end of conversion using HAL_ADC_PollForConversion(), at this stage
  46:Drivers/STM32F4xx_HAL_Driver/Src/stm32f4xx_hal_adc_ex.c ****            user can specify the value of timeout according to his end application
  47:Drivers/STM32F4xx_HAL_Driver/Src/stm32f4xx_hal_adc_ex.c ****        (+) To read the ADC converted values, use the HAL_ADCEx_InjectedGetValue() function.
  48:Drivers/STM32F4xx_HAL_Driver/Src/stm32f4xx_hal_adc_ex.c ****        (+) Stop the ADC peripheral using HAL_ADCEx_InjectedStop()
  49:Drivers/STM32F4xx_HAL_Driver/Src/stm32f4xx_hal_adc_ex.c **** 
  50:Drivers/STM32F4xx_HAL_Driver/Src/stm32f4xx_hal_adc_ex.c ****      *** Interrupt mode IO operation ***
  51:Drivers/STM32F4xx_HAL_Driver/Src/stm32f4xx_hal_adc_ex.c ****      ===================================
  52:Drivers/STM32F4xx_HAL_Driver/Src/stm32f4xx_hal_adc_ex.c ****      [..]
  53:Drivers/STM32F4xx_HAL_Driver/Src/stm32f4xx_hal_adc_ex.c ****        (+) Start the ADC peripheral using HAL_ADCEx_InjectedStart_IT()
  54:Drivers/STM32F4xx_HAL_Driver/Src/stm32f4xx_hal_adc_ex.c ****        (+) Use HAL_ADC_IRQHandler() called under ADC_IRQHandler() Interrupt subroutine
  55:Drivers/STM32F4xx_HAL_Driver/Src/stm32f4xx_hal_adc_ex.c ****        (+) At ADC end of conversion HAL_ADCEx_InjectedConvCpltCallback() function is executed and u
  56:Drivers/STM32F4xx_HAL_Driver/Src/stm32f4xx_hal_adc_ex.c ****             add his own code by customization of function pointer HAL_ADCEx_InjectedConvCpltCallbac
  57:Drivers/STM32F4xx_HAL_Driver/Src/stm32f4xx_hal_adc_ex.c ****        (+) In case of ADC Error, HAL_ADCEx_InjectedErrorCallback() function is executed and user ca
  58:Drivers/STM32F4xx_HAL_Driver/Src/stm32f4xx_hal_adc_ex.c ****             add his own code by customization of function pointer HAL_ADCEx_InjectedErrorCallback
  59:Drivers/STM32F4xx_HAL_Driver/Src/stm32f4xx_hal_adc_ex.c ****        (+) Stop the ADC peripheral using HAL_ADCEx_InjectedStop_IT()
  60:Drivers/STM32F4xx_HAL_Driver/Src/stm32f4xx_hal_adc_ex.c **** 
  61:Drivers/STM32F4xx_HAL_Driver/Src/stm32f4xx_hal_adc_ex.c ****      *** Multi mode ADCs Regular channels configuration ***
  62:Drivers/STM32F4xx_HAL_Driver/Src/stm32f4xx_hal_adc_ex.c ****      ======================================================
  63:Drivers/STM32F4xx_HAL_Driver/Src/stm32f4xx_hal_adc_ex.c ****      [..]
  64:Drivers/STM32F4xx_HAL_Driver/Src/stm32f4xx_hal_adc_ex.c ****        (+) Select the Multi mode ADC regular channels features (dual or triple mode)
  65:Drivers/STM32F4xx_HAL_Driver/Src/stm32f4xx_hal_adc_ex.c ****           and configure the DMA mode using HAL_ADCEx_MultiModeConfigChannel() functions.
  66:Drivers/STM32F4xx_HAL_Driver/Src/stm32f4xx_hal_adc_ex.c ****        (+) Start the ADC peripheral using HAL_ADCEx_MultiModeStart_DMA(), at this stage the user sp
  67:Drivers/STM32F4xx_HAL_Driver/Src/stm32f4xx_hal_adc_ex.c ****            of data to be transferred at each end of conversion
  68:Drivers/STM32F4xx_HAL_Driver/Src/stm32f4xx_hal_adc_ex.c ****        (+) Read the ADCs converted values using the HAL_ADCEx_MultiModeGetValue() function.
  69:Drivers/STM32F4xx_HAL_Driver/Src/stm32f4xx_hal_adc_ex.c **** 
  70:Drivers/STM32F4xx_HAL_Driver/Src/stm32f4xx_hal_adc_ex.c **** 
  71:Drivers/STM32F4xx_HAL_Driver/Src/stm32f4xx_hal_adc_ex.c ****     @endverbatim
  72:Drivers/STM32F4xx_HAL_Driver/Src/stm32f4xx_hal_adc_ex.c ****   ******************************************************************************
  73:Drivers/STM32F4xx_HAL_Driver/Src/stm32f4xx_hal_adc_ex.c ****   * @attention
  74:Drivers/STM32F4xx_HAL_Driver/Src/stm32f4xx_hal_adc_ex.c ****   *
  75:Drivers/STM32F4xx_HAL_Driver/Src/stm32f4xx_hal_adc_ex.c ****   * <h2><center>&copy; Copyright (c) 2017 STMicroelectronics.
  76:Drivers/STM32F4xx_HAL_Driver/Src/stm32f4xx_hal_adc_ex.c ****   * All rights reserved.</center></h2>
  77:Drivers/STM32F4xx_HAL_Driver/Src/stm32f4xx_hal_adc_ex.c ****   *
  78:Drivers/STM32F4xx_HAL_Driver/Src/stm32f4xx_hal_adc_ex.c ****   * This software component is licensed by ST under BSD 3-Clause license,
  79:Drivers/STM32F4xx_HAL_Driver/Src/stm32f4xx_hal_adc_ex.c ****   * the "License"; You may not use this file except in compliance with the
  80:Drivers/STM32F4xx_HAL_Driver/Src/stm32f4xx_hal_adc_ex.c ****   * License. You may obtain a copy of the License at:
  81:Drivers/STM32F4xx_HAL_Driver/Src/stm32f4xx_hal_adc_ex.c ****   *                        opensource.org/licenses/BSD-3-Clause
  82:Drivers/STM32F4xx_HAL_Driver/Src/stm32f4xx_hal_adc_ex.c ****   *
  83:Drivers/STM32F4xx_HAL_Driver/Src/stm32f4xx_hal_adc_ex.c ****   ******************************************************************************
  84:Drivers/STM32F4xx_HAL_Driver/Src/stm32f4xx_hal_adc_ex.c ****   */
  85:Drivers/STM32F4xx_HAL_Driver/Src/stm32f4xx_hal_adc_ex.c **** 
  86:Drivers/STM32F4xx_HAL_Driver/Src/stm32f4xx_hal_adc_ex.c **** /* Includes ------------------------------------------------------------------*/
  87:Drivers/STM32F4xx_HAL_Driver/Src/stm32f4xx_hal_adc_ex.c **** #include "stm32f4xx_hal.h"
ARM GAS  C:\Users\LENOVO\AppData\Local\Temp\ccLbhjnu.s 			page 3


  88:Drivers/STM32F4xx_HAL_Driver/Src/stm32f4xx_hal_adc_ex.c **** 
  89:Drivers/STM32F4xx_HAL_Driver/Src/stm32f4xx_hal_adc_ex.c **** /** @addtogroup STM32F4xx_HAL_Driver
  90:Drivers/STM32F4xx_HAL_Driver/Src/stm32f4xx_hal_adc_ex.c ****   * @{
  91:Drivers/STM32F4xx_HAL_Driver/Src/stm32f4xx_hal_adc_ex.c ****   */
  92:Drivers/STM32F4xx_HAL_Driver/Src/stm32f4xx_hal_adc_ex.c **** 
  93:Drivers/STM32F4xx_HAL_Driver/Src/stm32f4xx_hal_adc_ex.c **** /** @defgroup ADCEx ADCEx
  94:Drivers/STM32F4xx_HAL_Driver/Src/stm32f4xx_hal_adc_ex.c ****   * @brief ADC Extended driver modules
  95:Drivers/STM32F4xx_HAL_Driver/Src/stm32f4xx_hal_adc_ex.c ****   * @{
  96:Drivers/STM32F4xx_HAL_Driver/Src/stm32f4xx_hal_adc_ex.c ****   */ 
  97:Drivers/STM32F4xx_HAL_Driver/Src/stm32f4xx_hal_adc_ex.c **** 
  98:Drivers/STM32F4xx_HAL_Driver/Src/stm32f4xx_hal_adc_ex.c **** #ifdef HAL_ADC_MODULE_ENABLED
  99:Drivers/STM32F4xx_HAL_Driver/Src/stm32f4xx_hal_adc_ex.c ****     
 100:Drivers/STM32F4xx_HAL_Driver/Src/stm32f4xx_hal_adc_ex.c **** /* Private typedef -----------------------------------------------------------*/
 101:Drivers/STM32F4xx_HAL_Driver/Src/stm32f4xx_hal_adc_ex.c **** /* Private define ------------------------------------------------------------*/ 
 102:Drivers/STM32F4xx_HAL_Driver/Src/stm32f4xx_hal_adc_ex.c **** /* Private macro -------------------------------------------------------------*/
 103:Drivers/STM32F4xx_HAL_Driver/Src/stm32f4xx_hal_adc_ex.c **** /* Private variables ---------------------------------------------------------*/
 104:Drivers/STM32F4xx_HAL_Driver/Src/stm32f4xx_hal_adc_ex.c **** /** @addtogroup ADCEx_Private_Functions
 105:Drivers/STM32F4xx_HAL_Driver/Src/stm32f4xx_hal_adc_ex.c ****   * @{
 106:Drivers/STM32F4xx_HAL_Driver/Src/stm32f4xx_hal_adc_ex.c ****   */
 107:Drivers/STM32F4xx_HAL_Driver/Src/stm32f4xx_hal_adc_ex.c **** /* Private function prototypes -----------------------------------------------*/
 108:Drivers/STM32F4xx_HAL_Driver/Src/stm32f4xx_hal_adc_ex.c **** static void ADC_MultiModeDMAConvCplt(DMA_HandleTypeDef *hdma);
 109:Drivers/STM32F4xx_HAL_Driver/Src/stm32f4xx_hal_adc_ex.c **** static void ADC_MultiModeDMAError(DMA_HandleTypeDef *hdma);
 110:Drivers/STM32F4xx_HAL_Driver/Src/stm32f4xx_hal_adc_ex.c **** static void ADC_MultiModeDMAHalfConvCplt(DMA_HandleTypeDef *hdma); 
 111:Drivers/STM32F4xx_HAL_Driver/Src/stm32f4xx_hal_adc_ex.c **** /**
 112:Drivers/STM32F4xx_HAL_Driver/Src/stm32f4xx_hal_adc_ex.c ****   * @}
 113:Drivers/STM32F4xx_HAL_Driver/Src/stm32f4xx_hal_adc_ex.c ****   */
 114:Drivers/STM32F4xx_HAL_Driver/Src/stm32f4xx_hal_adc_ex.c **** 
 115:Drivers/STM32F4xx_HAL_Driver/Src/stm32f4xx_hal_adc_ex.c **** /* Exported functions --------------------------------------------------------*/
 116:Drivers/STM32F4xx_HAL_Driver/Src/stm32f4xx_hal_adc_ex.c **** /** @defgroup ADCEx_Exported_Functions ADC Exported Functions
 117:Drivers/STM32F4xx_HAL_Driver/Src/stm32f4xx_hal_adc_ex.c ****   * @{
 118:Drivers/STM32F4xx_HAL_Driver/Src/stm32f4xx_hal_adc_ex.c ****   */
 119:Drivers/STM32F4xx_HAL_Driver/Src/stm32f4xx_hal_adc_ex.c **** 
 120:Drivers/STM32F4xx_HAL_Driver/Src/stm32f4xx_hal_adc_ex.c **** /** @defgroup ADCEx_Exported_Functions_Group1  Extended features functions 
 121:Drivers/STM32F4xx_HAL_Driver/Src/stm32f4xx_hal_adc_ex.c ****   *  @brief    Extended features functions  
 122:Drivers/STM32F4xx_HAL_Driver/Src/stm32f4xx_hal_adc_ex.c ****   *
 123:Drivers/STM32F4xx_HAL_Driver/Src/stm32f4xx_hal_adc_ex.c **** @verbatim   
 124:Drivers/STM32F4xx_HAL_Driver/Src/stm32f4xx_hal_adc_ex.c ****  ===============================================================================
 125:Drivers/STM32F4xx_HAL_Driver/Src/stm32f4xx_hal_adc_ex.c ****                  ##### Extended features functions #####
 126:Drivers/STM32F4xx_HAL_Driver/Src/stm32f4xx_hal_adc_ex.c ****  ===============================================================================  
 127:Drivers/STM32F4xx_HAL_Driver/Src/stm32f4xx_hal_adc_ex.c ****     [..]  This section provides functions allowing to:
 128:Drivers/STM32F4xx_HAL_Driver/Src/stm32f4xx_hal_adc_ex.c ****       (+) Start conversion of injected channel.
 129:Drivers/STM32F4xx_HAL_Driver/Src/stm32f4xx_hal_adc_ex.c ****       (+) Stop conversion of injected channel.
 130:Drivers/STM32F4xx_HAL_Driver/Src/stm32f4xx_hal_adc_ex.c ****       (+) Start multimode and enable DMA transfer.
 131:Drivers/STM32F4xx_HAL_Driver/Src/stm32f4xx_hal_adc_ex.c ****       (+) Stop multimode and disable DMA transfer.
 132:Drivers/STM32F4xx_HAL_Driver/Src/stm32f4xx_hal_adc_ex.c ****       (+) Get result of injected channel conversion.
 133:Drivers/STM32F4xx_HAL_Driver/Src/stm32f4xx_hal_adc_ex.c ****       (+) Get result of multimode conversion.
 134:Drivers/STM32F4xx_HAL_Driver/Src/stm32f4xx_hal_adc_ex.c ****       (+) Configure injected channels.
 135:Drivers/STM32F4xx_HAL_Driver/Src/stm32f4xx_hal_adc_ex.c ****       (+) Configure multimode.
 136:Drivers/STM32F4xx_HAL_Driver/Src/stm32f4xx_hal_adc_ex.c ****                
 137:Drivers/STM32F4xx_HAL_Driver/Src/stm32f4xx_hal_adc_ex.c **** @endverbatim
 138:Drivers/STM32F4xx_HAL_Driver/Src/stm32f4xx_hal_adc_ex.c ****   * @{
 139:Drivers/STM32F4xx_HAL_Driver/Src/stm32f4xx_hal_adc_ex.c ****   */
 140:Drivers/STM32F4xx_HAL_Driver/Src/stm32f4xx_hal_adc_ex.c **** 
 141:Drivers/STM32F4xx_HAL_Driver/Src/stm32f4xx_hal_adc_ex.c **** /**
 142:Drivers/STM32F4xx_HAL_Driver/Src/stm32f4xx_hal_adc_ex.c ****   * @brief  Enables the selected ADC software start conversion of the injected channels.
 143:Drivers/STM32F4xx_HAL_Driver/Src/stm32f4xx_hal_adc_ex.c ****   * @param  hadc pointer to a ADC_HandleTypeDef structure that contains
 144:Drivers/STM32F4xx_HAL_Driver/Src/stm32f4xx_hal_adc_ex.c ****   *         the configuration information for the specified ADC.
ARM GAS  C:\Users\LENOVO\AppData\Local\Temp\ccLbhjnu.s 			page 4


 145:Drivers/STM32F4xx_HAL_Driver/Src/stm32f4xx_hal_adc_ex.c ****   * @retval HAL status
 146:Drivers/STM32F4xx_HAL_Driver/Src/stm32f4xx_hal_adc_ex.c ****   */
 147:Drivers/STM32F4xx_HAL_Driver/Src/stm32f4xx_hal_adc_ex.c **** HAL_StatusTypeDef HAL_ADCEx_InjectedStart(ADC_HandleTypeDef* hadc)
 148:Drivers/STM32F4xx_HAL_Driver/Src/stm32f4xx_hal_adc_ex.c **** {
 149:Drivers/STM32F4xx_HAL_Driver/Src/stm32f4xx_hal_adc_ex.c ****   __IO uint32_t counter = 0U;
 150:Drivers/STM32F4xx_HAL_Driver/Src/stm32f4xx_hal_adc_ex.c ****   uint32_t tmp1 = 0U, tmp2 = 0U;
 151:Drivers/STM32F4xx_HAL_Driver/Src/stm32f4xx_hal_adc_ex.c ****   ADC_Common_TypeDef *tmpADC_Common;
 152:Drivers/STM32F4xx_HAL_Driver/Src/stm32f4xx_hal_adc_ex.c ****   
 153:Drivers/STM32F4xx_HAL_Driver/Src/stm32f4xx_hal_adc_ex.c ****   /* Process locked */
 154:Drivers/STM32F4xx_HAL_Driver/Src/stm32f4xx_hal_adc_ex.c ****   __HAL_LOCK(hadc);
 155:Drivers/STM32F4xx_HAL_Driver/Src/stm32f4xx_hal_adc_ex.c ****   
 156:Drivers/STM32F4xx_HAL_Driver/Src/stm32f4xx_hal_adc_ex.c ****   /* Enable the ADC peripheral */
 157:Drivers/STM32F4xx_HAL_Driver/Src/stm32f4xx_hal_adc_ex.c ****   
 158:Drivers/STM32F4xx_HAL_Driver/Src/stm32f4xx_hal_adc_ex.c ****   /* Check if ADC peripheral is disabled in order to enable it and wait during 
 159:Drivers/STM32F4xx_HAL_Driver/Src/stm32f4xx_hal_adc_ex.c ****      Tstab time the ADC's stabilization */
 160:Drivers/STM32F4xx_HAL_Driver/Src/stm32f4xx_hal_adc_ex.c ****   if((hadc->Instance->CR2 & ADC_CR2_ADON) != ADC_CR2_ADON)
 161:Drivers/STM32F4xx_HAL_Driver/Src/stm32f4xx_hal_adc_ex.c ****   {  
 162:Drivers/STM32F4xx_HAL_Driver/Src/stm32f4xx_hal_adc_ex.c ****     /* Enable the Peripheral */
 163:Drivers/STM32F4xx_HAL_Driver/Src/stm32f4xx_hal_adc_ex.c ****     __HAL_ADC_ENABLE(hadc);
 164:Drivers/STM32F4xx_HAL_Driver/Src/stm32f4xx_hal_adc_ex.c ****     
 165:Drivers/STM32F4xx_HAL_Driver/Src/stm32f4xx_hal_adc_ex.c ****     /* Delay for ADC stabilization time */
 166:Drivers/STM32F4xx_HAL_Driver/Src/stm32f4xx_hal_adc_ex.c ****     /* Compute number of CPU cycles to wait for */
 167:Drivers/STM32F4xx_HAL_Driver/Src/stm32f4xx_hal_adc_ex.c ****     counter = (ADC_STAB_DELAY_US * (SystemCoreClock / 1000000U));
 168:Drivers/STM32F4xx_HAL_Driver/Src/stm32f4xx_hal_adc_ex.c ****     while(counter != 0U)
 169:Drivers/STM32F4xx_HAL_Driver/Src/stm32f4xx_hal_adc_ex.c ****     {
 170:Drivers/STM32F4xx_HAL_Driver/Src/stm32f4xx_hal_adc_ex.c ****       counter--;
 171:Drivers/STM32F4xx_HAL_Driver/Src/stm32f4xx_hal_adc_ex.c ****     }
 172:Drivers/STM32F4xx_HAL_Driver/Src/stm32f4xx_hal_adc_ex.c ****   }
 173:Drivers/STM32F4xx_HAL_Driver/Src/stm32f4xx_hal_adc_ex.c ****   
 174:Drivers/STM32F4xx_HAL_Driver/Src/stm32f4xx_hal_adc_ex.c ****   /* Start conversion if ADC is effectively enabled */
 175:Drivers/STM32F4xx_HAL_Driver/Src/stm32f4xx_hal_adc_ex.c ****   if(HAL_IS_BIT_SET(hadc->Instance->CR2, ADC_CR2_ADON))
 176:Drivers/STM32F4xx_HAL_Driver/Src/stm32f4xx_hal_adc_ex.c ****   {
 177:Drivers/STM32F4xx_HAL_Driver/Src/stm32f4xx_hal_adc_ex.c ****     /* Set ADC state                                                          */
 178:Drivers/STM32F4xx_HAL_Driver/Src/stm32f4xx_hal_adc_ex.c ****     /* - Clear state bitfield related to injected group conversion results    */
 179:Drivers/STM32F4xx_HAL_Driver/Src/stm32f4xx_hal_adc_ex.c ****     /* - Set state bitfield related to injected operation                     */
 180:Drivers/STM32F4xx_HAL_Driver/Src/stm32f4xx_hal_adc_ex.c ****     ADC_STATE_CLR_SET(hadc->State,
 181:Drivers/STM32F4xx_HAL_Driver/Src/stm32f4xx_hal_adc_ex.c ****                       HAL_ADC_STATE_READY | HAL_ADC_STATE_INJ_EOC,
 182:Drivers/STM32F4xx_HAL_Driver/Src/stm32f4xx_hal_adc_ex.c ****                       HAL_ADC_STATE_INJ_BUSY);
 183:Drivers/STM32F4xx_HAL_Driver/Src/stm32f4xx_hal_adc_ex.c ****     
 184:Drivers/STM32F4xx_HAL_Driver/Src/stm32f4xx_hal_adc_ex.c ****     /* Check if a regular conversion is ongoing */
 185:Drivers/STM32F4xx_HAL_Driver/Src/stm32f4xx_hal_adc_ex.c ****     /* Note: On this device, there is no ADC error code fields related to     */
 186:Drivers/STM32F4xx_HAL_Driver/Src/stm32f4xx_hal_adc_ex.c ****     /*       conversions on group injected only. In case of conversion on     */
 187:Drivers/STM32F4xx_HAL_Driver/Src/stm32f4xx_hal_adc_ex.c ****     /*       going on group regular, no error code is reset.                  */
 188:Drivers/STM32F4xx_HAL_Driver/Src/stm32f4xx_hal_adc_ex.c ****     if (HAL_IS_BIT_CLR(hadc->State, HAL_ADC_STATE_REG_BUSY))
 189:Drivers/STM32F4xx_HAL_Driver/Src/stm32f4xx_hal_adc_ex.c ****     {
 190:Drivers/STM32F4xx_HAL_Driver/Src/stm32f4xx_hal_adc_ex.c ****       /* Reset ADC all error code fields */
 191:Drivers/STM32F4xx_HAL_Driver/Src/stm32f4xx_hal_adc_ex.c ****       ADC_CLEAR_ERRORCODE(hadc);
 192:Drivers/STM32F4xx_HAL_Driver/Src/stm32f4xx_hal_adc_ex.c ****     }
 193:Drivers/STM32F4xx_HAL_Driver/Src/stm32f4xx_hal_adc_ex.c ****     
 194:Drivers/STM32F4xx_HAL_Driver/Src/stm32f4xx_hal_adc_ex.c ****     /* Process unlocked */
 195:Drivers/STM32F4xx_HAL_Driver/Src/stm32f4xx_hal_adc_ex.c ****     /* Unlock before starting ADC conversions: in case of potential           */
 196:Drivers/STM32F4xx_HAL_Driver/Src/stm32f4xx_hal_adc_ex.c ****     /* interruption, to let the process to ADC IRQ Handler.                   */
 197:Drivers/STM32F4xx_HAL_Driver/Src/stm32f4xx_hal_adc_ex.c ****     __HAL_UNLOCK(hadc);
 198:Drivers/STM32F4xx_HAL_Driver/Src/stm32f4xx_hal_adc_ex.c ****     
 199:Drivers/STM32F4xx_HAL_Driver/Src/stm32f4xx_hal_adc_ex.c ****     /* Clear injected group conversion flag */
 200:Drivers/STM32F4xx_HAL_Driver/Src/stm32f4xx_hal_adc_ex.c ****     /* (To ensure of no unknown state from potential previous ADC operations) */
 201:Drivers/STM32F4xx_HAL_Driver/Src/stm32f4xx_hal_adc_ex.c ****     __HAL_ADC_CLEAR_FLAG(hadc, ADC_FLAG_JEOC);
ARM GAS  C:\Users\LENOVO\AppData\Local\Temp\ccLbhjnu.s 			page 5


 202:Drivers/STM32F4xx_HAL_Driver/Src/stm32f4xx_hal_adc_ex.c **** 
 203:Drivers/STM32F4xx_HAL_Driver/Src/stm32f4xx_hal_adc_ex.c ****     /* Pointer to the common control register to which is belonging hadc    */
 204:Drivers/STM32F4xx_HAL_Driver/Src/stm32f4xx_hal_adc_ex.c ****     /* (Depending on STM32F4 product, there may be up to 3 ADC and 1 common */
 205:Drivers/STM32F4xx_HAL_Driver/Src/stm32f4xx_hal_adc_ex.c ****     /* control register)                                                    */
 206:Drivers/STM32F4xx_HAL_Driver/Src/stm32f4xx_hal_adc_ex.c ****     tmpADC_Common = ADC_COMMON_REGISTER(hadc);
 207:Drivers/STM32F4xx_HAL_Driver/Src/stm32f4xx_hal_adc_ex.c **** 
 208:Drivers/STM32F4xx_HAL_Driver/Src/stm32f4xx_hal_adc_ex.c ****     /* Check if Multimode enabled */
 209:Drivers/STM32F4xx_HAL_Driver/Src/stm32f4xx_hal_adc_ex.c ****     if(HAL_IS_BIT_CLR(tmpADC_Common->CCR, ADC_CCR_MULTI))
 210:Drivers/STM32F4xx_HAL_Driver/Src/stm32f4xx_hal_adc_ex.c ****     {
 211:Drivers/STM32F4xx_HAL_Driver/Src/stm32f4xx_hal_adc_ex.c ****       tmp1 = HAL_IS_BIT_CLR(hadc->Instance->CR2, ADC_CR2_JEXTEN);
 212:Drivers/STM32F4xx_HAL_Driver/Src/stm32f4xx_hal_adc_ex.c ****       tmp2 = HAL_IS_BIT_CLR(hadc->Instance->CR1, ADC_CR1_JAUTO);
 213:Drivers/STM32F4xx_HAL_Driver/Src/stm32f4xx_hal_adc_ex.c ****       if(tmp1 && tmp2)
 214:Drivers/STM32F4xx_HAL_Driver/Src/stm32f4xx_hal_adc_ex.c ****       {
 215:Drivers/STM32F4xx_HAL_Driver/Src/stm32f4xx_hal_adc_ex.c ****         /* Enable the selected ADC software conversion for injected group */
 216:Drivers/STM32F4xx_HAL_Driver/Src/stm32f4xx_hal_adc_ex.c ****         hadc->Instance->CR2 |= ADC_CR2_JSWSTART;
 217:Drivers/STM32F4xx_HAL_Driver/Src/stm32f4xx_hal_adc_ex.c ****       }
 218:Drivers/STM32F4xx_HAL_Driver/Src/stm32f4xx_hal_adc_ex.c ****     }
 219:Drivers/STM32F4xx_HAL_Driver/Src/stm32f4xx_hal_adc_ex.c ****     else
 220:Drivers/STM32F4xx_HAL_Driver/Src/stm32f4xx_hal_adc_ex.c ****     {
 221:Drivers/STM32F4xx_HAL_Driver/Src/stm32f4xx_hal_adc_ex.c ****       tmp1 = HAL_IS_BIT_CLR(hadc->Instance->CR2, ADC_CR2_JEXTEN);
 222:Drivers/STM32F4xx_HAL_Driver/Src/stm32f4xx_hal_adc_ex.c ****       tmp2 = HAL_IS_BIT_CLR(hadc->Instance->CR1, ADC_CR1_JAUTO);
 223:Drivers/STM32F4xx_HAL_Driver/Src/stm32f4xx_hal_adc_ex.c ****       if((hadc->Instance == ADC1) && tmp1 && tmp2)  
 224:Drivers/STM32F4xx_HAL_Driver/Src/stm32f4xx_hal_adc_ex.c ****       {
 225:Drivers/STM32F4xx_HAL_Driver/Src/stm32f4xx_hal_adc_ex.c ****         /* Enable the selected ADC software conversion for injected group */
 226:Drivers/STM32F4xx_HAL_Driver/Src/stm32f4xx_hal_adc_ex.c ****         hadc->Instance->CR2 |= ADC_CR2_JSWSTART;
 227:Drivers/STM32F4xx_HAL_Driver/Src/stm32f4xx_hal_adc_ex.c ****       }
 228:Drivers/STM32F4xx_HAL_Driver/Src/stm32f4xx_hal_adc_ex.c ****     }
 229:Drivers/STM32F4xx_HAL_Driver/Src/stm32f4xx_hal_adc_ex.c ****   }
 230:Drivers/STM32F4xx_HAL_Driver/Src/stm32f4xx_hal_adc_ex.c ****   
 231:Drivers/STM32F4xx_HAL_Driver/Src/stm32f4xx_hal_adc_ex.c ****   /* Return function status */
 232:Drivers/STM32F4xx_HAL_Driver/Src/stm32f4xx_hal_adc_ex.c ****   return HAL_OK;
 233:Drivers/STM32F4xx_HAL_Driver/Src/stm32f4xx_hal_adc_ex.c **** }
 234:Drivers/STM32F4xx_HAL_Driver/Src/stm32f4xx_hal_adc_ex.c **** 
 235:Drivers/STM32F4xx_HAL_Driver/Src/stm32f4xx_hal_adc_ex.c **** /**
 236:Drivers/STM32F4xx_HAL_Driver/Src/stm32f4xx_hal_adc_ex.c ****   * @brief  Enables the interrupt and starts ADC conversion of injected channels.
 237:Drivers/STM32F4xx_HAL_Driver/Src/stm32f4xx_hal_adc_ex.c ****   * @param  hadc pointer to a ADC_HandleTypeDef structure that contains
 238:Drivers/STM32F4xx_HAL_Driver/Src/stm32f4xx_hal_adc_ex.c ****   *         the configuration information for the specified ADC.
 239:Drivers/STM32F4xx_HAL_Driver/Src/stm32f4xx_hal_adc_ex.c ****   *
 240:Drivers/STM32F4xx_HAL_Driver/Src/stm32f4xx_hal_adc_ex.c ****   * @retval HAL status.
 241:Drivers/STM32F4xx_HAL_Driver/Src/stm32f4xx_hal_adc_ex.c ****   */
 242:Drivers/STM32F4xx_HAL_Driver/Src/stm32f4xx_hal_adc_ex.c **** HAL_StatusTypeDef HAL_ADCEx_InjectedStart_IT(ADC_HandleTypeDef* hadc)
 243:Drivers/STM32F4xx_HAL_Driver/Src/stm32f4xx_hal_adc_ex.c **** {
 244:Drivers/STM32F4xx_HAL_Driver/Src/stm32f4xx_hal_adc_ex.c ****   __IO uint32_t counter = 0U;
 245:Drivers/STM32F4xx_HAL_Driver/Src/stm32f4xx_hal_adc_ex.c ****   uint32_t tmp1 = 0U, tmp2 = 0U;
 246:Drivers/STM32F4xx_HAL_Driver/Src/stm32f4xx_hal_adc_ex.c ****   ADC_Common_TypeDef *tmpADC_Common;
 247:Drivers/STM32F4xx_HAL_Driver/Src/stm32f4xx_hal_adc_ex.c ****   
 248:Drivers/STM32F4xx_HAL_Driver/Src/stm32f4xx_hal_adc_ex.c ****   /* Process locked */
 249:Drivers/STM32F4xx_HAL_Driver/Src/stm32f4xx_hal_adc_ex.c ****   __HAL_LOCK(hadc);
 250:Drivers/STM32F4xx_HAL_Driver/Src/stm32f4xx_hal_adc_ex.c ****   
 251:Drivers/STM32F4xx_HAL_Driver/Src/stm32f4xx_hal_adc_ex.c ****   /* Enable the ADC peripheral */
 252:Drivers/STM32F4xx_HAL_Driver/Src/stm32f4xx_hal_adc_ex.c ****   
 253:Drivers/STM32F4xx_HAL_Driver/Src/stm32f4xx_hal_adc_ex.c ****   /* Check if ADC peripheral is disabled in order to enable it and wait during 
 254:Drivers/STM32F4xx_HAL_Driver/Src/stm32f4xx_hal_adc_ex.c ****      Tstab time the ADC's stabilization */
 255:Drivers/STM32F4xx_HAL_Driver/Src/stm32f4xx_hal_adc_ex.c ****   if((hadc->Instance->CR2 & ADC_CR2_ADON) != ADC_CR2_ADON)
 256:Drivers/STM32F4xx_HAL_Driver/Src/stm32f4xx_hal_adc_ex.c ****   {  
 257:Drivers/STM32F4xx_HAL_Driver/Src/stm32f4xx_hal_adc_ex.c ****     /* Enable the Peripheral */
 258:Drivers/STM32F4xx_HAL_Driver/Src/stm32f4xx_hal_adc_ex.c ****     __HAL_ADC_ENABLE(hadc);
ARM GAS  C:\Users\LENOVO\AppData\Local\Temp\ccLbhjnu.s 			page 6


 259:Drivers/STM32F4xx_HAL_Driver/Src/stm32f4xx_hal_adc_ex.c ****     
 260:Drivers/STM32F4xx_HAL_Driver/Src/stm32f4xx_hal_adc_ex.c ****     /* Delay for ADC stabilization time */
 261:Drivers/STM32F4xx_HAL_Driver/Src/stm32f4xx_hal_adc_ex.c ****     /* Compute number of CPU cycles to wait for */
 262:Drivers/STM32F4xx_HAL_Driver/Src/stm32f4xx_hal_adc_ex.c ****     counter = (ADC_STAB_DELAY_US * (SystemCoreClock / 1000000U));
 263:Drivers/STM32F4xx_HAL_Driver/Src/stm32f4xx_hal_adc_ex.c ****     while(counter != 0U)
 264:Drivers/STM32F4xx_HAL_Driver/Src/stm32f4xx_hal_adc_ex.c ****     {
 265:Drivers/STM32F4xx_HAL_Driver/Src/stm32f4xx_hal_adc_ex.c ****       counter--;
 266:Drivers/STM32F4xx_HAL_Driver/Src/stm32f4xx_hal_adc_ex.c ****     }
 267:Drivers/STM32F4xx_HAL_Driver/Src/stm32f4xx_hal_adc_ex.c ****   }
 268:Drivers/STM32F4xx_HAL_Driver/Src/stm32f4xx_hal_adc_ex.c ****   
 269:Drivers/STM32F4xx_HAL_Driver/Src/stm32f4xx_hal_adc_ex.c ****   /* Start conversion if ADC is effectively enabled */
 270:Drivers/STM32F4xx_HAL_Driver/Src/stm32f4xx_hal_adc_ex.c ****   if(HAL_IS_BIT_SET(hadc->Instance->CR2, ADC_CR2_ADON))
 271:Drivers/STM32F4xx_HAL_Driver/Src/stm32f4xx_hal_adc_ex.c ****   {
 272:Drivers/STM32F4xx_HAL_Driver/Src/stm32f4xx_hal_adc_ex.c ****     /* Set ADC state                                                          */
 273:Drivers/STM32F4xx_HAL_Driver/Src/stm32f4xx_hal_adc_ex.c ****     /* - Clear state bitfield related to injected group conversion results    */
 274:Drivers/STM32F4xx_HAL_Driver/Src/stm32f4xx_hal_adc_ex.c ****     /* - Set state bitfield related to injected operation                     */
 275:Drivers/STM32F4xx_HAL_Driver/Src/stm32f4xx_hal_adc_ex.c ****     ADC_STATE_CLR_SET(hadc->State,
 276:Drivers/STM32F4xx_HAL_Driver/Src/stm32f4xx_hal_adc_ex.c ****                       HAL_ADC_STATE_READY | HAL_ADC_STATE_INJ_EOC,
 277:Drivers/STM32F4xx_HAL_Driver/Src/stm32f4xx_hal_adc_ex.c ****                       HAL_ADC_STATE_INJ_BUSY);
 278:Drivers/STM32F4xx_HAL_Driver/Src/stm32f4xx_hal_adc_ex.c ****     
 279:Drivers/STM32F4xx_HAL_Driver/Src/stm32f4xx_hal_adc_ex.c ****     /* Check if a regular conversion is ongoing */
 280:Drivers/STM32F4xx_HAL_Driver/Src/stm32f4xx_hal_adc_ex.c ****     /* Note: On this device, there is no ADC error code fields related to     */
 281:Drivers/STM32F4xx_HAL_Driver/Src/stm32f4xx_hal_adc_ex.c ****     /*       conversions on group injected only. In case of conversion on     */
 282:Drivers/STM32F4xx_HAL_Driver/Src/stm32f4xx_hal_adc_ex.c ****     /*       going on group regular, no error code is reset.                  */
 283:Drivers/STM32F4xx_HAL_Driver/Src/stm32f4xx_hal_adc_ex.c ****     if (HAL_IS_BIT_CLR(hadc->State, HAL_ADC_STATE_REG_BUSY))
 284:Drivers/STM32F4xx_HAL_Driver/Src/stm32f4xx_hal_adc_ex.c ****     {
 285:Drivers/STM32F4xx_HAL_Driver/Src/stm32f4xx_hal_adc_ex.c ****       /* Reset ADC all error code fields */
 286:Drivers/STM32F4xx_HAL_Driver/Src/stm32f4xx_hal_adc_ex.c ****       ADC_CLEAR_ERRORCODE(hadc);
 287:Drivers/STM32F4xx_HAL_Driver/Src/stm32f4xx_hal_adc_ex.c ****     }
 288:Drivers/STM32F4xx_HAL_Driver/Src/stm32f4xx_hal_adc_ex.c ****     
 289:Drivers/STM32F4xx_HAL_Driver/Src/stm32f4xx_hal_adc_ex.c ****     /* Process unlocked */
 290:Drivers/STM32F4xx_HAL_Driver/Src/stm32f4xx_hal_adc_ex.c ****     /* Unlock before starting ADC conversions: in case of potential           */
 291:Drivers/STM32F4xx_HAL_Driver/Src/stm32f4xx_hal_adc_ex.c ****     /* interruption, to let the process to ADC IRQ Handler.                   */
 292:Drivers/STM32F4xx_HAL_Driver/Src/stm32f4xx_hal_adc_ex.c ****     __HAL_UNLOCK(hadc);
 293:Drivers/STM32F4xx_HAL_Driver/Src/stm32f4xx_hal_adc_ex.c ****     
 294:Drivers/STM32F4xx_HAL_Driver/Src/stm32f4xx_hal_adc_ex.c ****     /* Clear injected group conversion flag */
 295:Drivers/STM32F4xx_HAL_Driver/Src/stm32f4xx_hal_adc_ex.c ****     /* (To ensure of no unknown state from potential previous ADC operations) */
 296:Drivers/STM32F4xx_HAL_Driver/Src/stm32f4xx_hal_adc_ex.c ****     __HAL_ADC_CLEAR_FLAG(hadc, ADC_FLAG_JEOC);
 297:Drivers/STM32F4xx_HAL_Driver/Src/stm32f4xx_hal_adc_ex.c ****     
 298:Drivers/STM32F4xx_HAL_Driver/Src/stm32f4xx_hal_adc_ex.c ****     /* Enable end of conversion interrupt for injected channels */
 299:Drivers/STM32F4xx_HAL_Driver/Src/stm32f4xx_hal_adc_ex.c ****     __HAL_ADC_ENABLE_IT(hadc, ADC_IT_JEOC);
 300:Drivers/STM32F4xx_HAL_Driver/Src/stm32f4xx_hal_adc_ex.c **** 
 301:Drivers/STM32F4xx_HAL_Driver/Src/stm32f4xx_hal_adc_ex.c ****     /* Pointer to the common control register to which is belonging hadc    */
 302:Drivers/STM32F4xx_HAL_Driver/Src/stm32f4xx_hal_adc_ex.c ****     /* (Depending on STM32F4 product, there may be up to 3 ADC and 1 common */
 303:Drivers/STM32F4xx_HAL_Driver/Src/stm32f4xx_hal_adc_ex.c ****     /* control register)                                                    */
 304:Drivers/STM32F4xx_HAL_Driver/Src/stm32f4xx_hal_adc_ex.c ****     tmpADC_Common = ADC_COMMON_REGISTER(hadc);
 305:Drivers/STM32F4xx_HAL_Driver/Src/stm32f4xx_hal_adc_ex.c ****     
 306:Drivers/STM32F4xx_HAL_Driver/Src/stm32f4xx_hal_adc_ex.c ****     /* Check if Multimode enabled */
 307:Drivers/STM32F4xx_HAL_Driver/Src/stm32f4xx_hal_adc_ex.c ****     if(HAL_IS_BIT_CLR(tmpADC_Common->CCR, ADC_CCR_MULTI))
 308:Drivers/STM32F4xx_HAL_Driver/Src/stm32f4xx_hal_adc_ex.c ****     {
 309:Drivers/STM32F4xx_HAL_Driver/Src/stm32f4xx_hal_adc_ex.c ****       tmp1 = HAL_IS_BIT_CLR(hadc->Instance->CR2, ADC_CR2_JEXTEN);
 310:Drivers/STM32F4xx_HAL_Driver/Src/stm32f4xx_hal_adc_ex.c ****       tmp2 = HAL_IS_BIT_CLR(hadc->Instance->CR1, ADC_CR1_JAUTO);
 311:Drivers/STM32F4xx_HAL_Driver/Src/stm32f4xx_hal_adc_ex.c ****       if(tmp1 && tmp2)
 312:Drivers/STM32F4xx_HAL_Driver/Src/stm32f4xx_hal_adc_ex.c ****       {
 313:Drivers/STM32F4xx_HAL_Driver/Src/stm32f4xx_hal_adc_ex.c ****         /* Enable the selected ADC software conversion for injected group */
 314:Drivers/STM32F4xx_HAL_Driver/Src/stm32f4xx_hal_adc_ex.c ****         hadc->Instance->CR2 |= ADC_CR2_JSWSTART;
 315:Drivers/STM32F4xx_HAL_Driver/Src/stm32f4xx_hal_adc_ex.c ****       }
ARM GAS  C:\Users\LENOVO\AppData\Local\Temp\ccLbhjnu.s 			page 7


 316:Drivers/STM32F4xx_HAL_Driver/Src/stm32f4xx_hal_adc_ex.c ****     }
 317:Drivers/STM32F4xx_HAL_Driver/Src/stm32f4xx_hal_adc_ex.c ****     else
 318:Drivers/STM32F4xx_HAL_Driver/Src/stm32f4xx_hal_adc_ex.c ****     {
 319:Drivers/STM32F4xx_HAL_Driver/Src/stm32f4xx_hal_adc_ex.c ****       tmp1 = HAL_IS_BIT_CLR(hadc->Instance->CR2, ADC_CR2_JEXTEN);
 320:Drivers/STM32F4xx_HAL_Driver/Src/stm32f4xx_hal_adc_ex.c ****       tmp2 = HAL_IS_BIT_CLR(hadc->Instance->CR1, ADC_CR1_JAUTO);
 321:Drivers/STM32F4xx_HAL_Driver/Src/stm32f4xx_hal_adc_ex.c ****       if((hadc->Instance == ADC1) && tmp1 && tmp2)  
 322:Drivers/STM32F4xx_HAL_Driver/Src/stm32f4xx_hal_adc_ex.c ****       {
 323:Drivers/STM32F4xx_HAL_Driver/Src/stm32f4xx_hal_adc_ex.c ****         /* Enable the selected ADC software conversion for injected group */
 324:Drivers/STM32F4xx_HAL_Driver/Src/stm32f4xx_hal_adc_ex.c ****         hadc->Instance->CR2 |= ADC_CR2_JSWSTART;
 325:Drivers/STM32F4xx_HAL_Driver/Src/stm32f4xx_hal_adc_ex.c ****       }
 326:Drivers/STM32F4xx_HAL_Driver/Src/stm32f4xx_hal_adc_ex.c ****     }
 327:Drivers/STM32F4xx_HAL_Driver/Src/stm32f4xx_hal_adc_ex.c ****   }
 328:Drivers/STM32F4xx_HAL_Driver/Src/stm32f4xx_hal_adc_ex.c ****   
 329:Drivers/STM32F4xx_HAL_Driver/Src/stm32f4xx_hal_adc_ex.c ****   /* Return function status */
 330:Drivers/STM32F4xx_HAL_Driver/Src/stm32f4xx_hal_adc_ex.c ****   return HAL_OK;
 331:Drivers/STM32F4xx_HAL_Driver/Src/stm32f4xx_hal_adc_ex.c **** }
 332:Drivers/STM32F4xx_HAL_Driver/Src/stm32f4xx_hal_adc_ex.c **** 
 333:Drivers/STM32F4xx_HAL_Driver/Src/stm32f4xx_hal_adc_ex.c **** /**
 334:Drivers/STM32F4xx_HAL_Driver/Src/stm32f4xx_hal_adc_ex.c ****   * @brief  Stop conversion of injected channels. Disable ADC peripheral if
 335:Drivers/STM32F4xx_HAL_Driver/Src/stm32f4xx_hal_adc_ex.c ****   *         no regular conversion is on going.
 336:Drivers/STM32F4xx_HAL_Driver/Src/stm32f4xx_hal_adc_ex.c ****   * @note   If ADC must be disabled and if conversion is on going on 
 337:Drivers/STM32F4xx_HAL_Driver/Src/stm32f4xx_hal_adc_ex.c ****   *         regular group, function HAL_ADC_Stop must be used to stop both
 338:Drivers/STM32F4xx_HAL_Driver/Src/stm32f4xx_hal_adc_ex.c ****   *         injected and regular groups, and disable the ADC.
 339:Drivers/STM32F4xx_HAL_Driver/Src/stm32f4xx_hal_adc_ex.c ****   * @note   If injected group mode auto-injection is enabled,
 340:Drivers/STM32F4xx_HAL_Driver/Src/stm32f4xx_hal_adc_ex.c ****   *         function HAL_ADC_Stop must be used.
 341:Drivers/STM32F4xx_HAL_Driver/Src/stm32f4xx_hal_adc_ex.c ****   * @note   In case of auto-injection mode, HAL_ADC_Stop must be used.
 342:Drivers/STM32F4xx_HAL_Driver/Src/stm32f4xx_hal_adc_ex.c ****   * @param  hadc ADC handle
 343:Drivers/STM32F4xx_HAL_Driver/Src/stm32f4xx_hal_adc_ex.c ****   * @retval None
 344:Drivers/STM32F4xx_HAL_Driver/Src/stm32f4xx_hal_adc_ex.c ****   */
 345:Drivers/STM32F4xx_HAL_Driver/Src/stm32f4xx_hal_adc_ex.c **** HAL_StatusTypeDef HAL_ADCEx_InjectedStop(ADC_HandleTypeDef* hadc)
 346:Drivers/STM32F4xx_HAL_Driver/Src/stm32f4xx_hal_adc_ex.c **** {
 347:Drivers/STM32F4xx_HAL_Driver/Src/stm32f4xx_hal_adc_ex.c ****   HAL_StatusTypeDef tmp_hal_status = HAL_OK;
 348:Drivers/STM32F4xx_HAL_Driver/Src/stm32f4xx_hal_adc_ex.c ****   
 349:Drivers/STM32F4xx_HAL_Driver/Src/stm32f4xx_hal_adc_ex.c ****   /* Check the parameters */
 350:Drivers/STM32F4xx_HAL_Driver/Src/stm32f4xx_hal_adc_ex.c ****   assert_param(IS_ADC_ALL_INSTANCE(hadc->Instance));
 351:Drivers/STM32F4xx_HAL_Driver/Src/stm32f4xx_hal_adc_ex.c **** 
 352:Drivers/STM32F4xx_HAL_Driver/Src/stm32f4xx_hal_adc_ex.c ****   /* Process locked */
 353:Drivers/STM32F4xx_HAL_Driver/Src/stm32f4xx_hal_adc_ex.c ****   __HAL_LOCK(hadc);
 354:Drivers/STM32F4xx_HAL_Driver/Src/stm32f4xx_hal_adc_ex.c ****     
 355:Drivers/STM32F4xx_HAL_Driver/Src/stm32f4xx_hal_adc_ex.c ****   /* Stop potential conversion and disable ADC peripheral                     */
 356:Drivers/STM32F4xx_HAL_Driver/Src/stm32f4xx_hal_adc_ex.c ****   /* Conditioned to:                                                          */
 357:Drivers/STM32F4xx_HAL_Driver/Src/stm32f4xx_hal_adc_ex.c ****   /* - No conversion on the other group (regular group) is intended to        */
 358:Drivers/STM32F4xx_HAL_Driver/Src/stm32f4xx_hal_adc_ex.c ****   /*   continue (injected and regular groups stop conversion and ADC disable  */
 359:Drivers/STM32F4xx_HAL_Driver/Src/stm32f4xx_hal_adc_ex.c ****   /*   are common)                                                            */
 360:Drivers/STM32F4xx_HAL_Driver/Src/stm32f4xx_hal_adc_ex.c ****   /* - In case of auto-injection mode, HAL_ADC_Stop must be used.             */
 361:Drivers/STM32F4xx_HAL_Driver/Src/stm32f4xx_hal_adc_ex.c ****   if(((hadc->State & HAL_ADC_STATE_REG_BUSY) == RESET)  &&
 362:Drivers/STM32F4xx_HAL_Driver/Src/stm32f4xx_hal_adc_ex.c ****      HAL_IS_BIT_CLR(hadc->Instance->CR1, ADC_CR1_JAUTO)   )
 363:Drivers/STM32F4xx_HAL_Driver/Src/stm32f4xx_hal_adc_ex.c ****   {
 364:Drivers/STM32F4xx_HAL_Driver/Src/stm32f4xx_hal_adc_ex.c ****     /* Stop potential conversion on going, on regular and injected groups */
 365:Drivers/STM32F4xx_HAL_Driver/Src/stm32f4xx_hal_adc_ex.c ****     /* Disable ADC peripheral */
 366:Drivers/STM32F4xx_HAL_Driver/Src/stm32f4xx_hal_adc_ex.c ****     __HAL_ADC_DISABLE(hadc);
 367:Drivers/STM32F4xx_HAL_Driver/Src/stm32f4xx_hal_adc_ex.c ****     
 368:Drivers/STM32F4xx_HAL_Driver/Src/stm32f4xx_hal_adc_ex.c ****     /* Check if ADC is effectively disabled */
 369:Drivers/STM32F4xx_HAL_Driver/Src/stm32f4xx_hal_adc_ex.c ****     if(HAL_IS_BIT_CLR(hadc->Instance->CR2, ADC_CR2_ADON))
 370:Drivers/STM32F4xx_HAL_Driver/Src/stm32f4xx_hal_adc_ex.c ****     {
 371:Drivers/STM32F4xx_HAL_Driver/Src/stm32f4xx_hal_adc_ex.c ****       /* Set ADC state */
 372:Drivers/STM32F4xx_HAL_Driver/Src/stm32f4xx_hal_adc_ex.c ****       ADC_STATE_CLR_SET(hadc->State,
ARM GAS  C:\Users\LENOVO\AppData\Local\Temp\ccLbhjnu.s 			page 8


 373:Drivers/STM32F4xx_HAL_Driver/Src/stm32f4xx_hal_adc_ex.c ****                         HAL_ADC_STATE_REG_BUSY | HAL_ADC_STATE_INJ_BUSY,
 374:Drivers/STM32F4xx_HAL_Driver/Src/stm32f4xx_hal_adc_ex.c ****                         HAL_ADC_STATE_READY);
 375:Drivers/STM32F4xx_HAL_Driver/Src/stm32f4xx_hal_adc_ex.c ****     }
 376:Drivers/STM32F4xx_HAL_Driver/Src/stm32f4xx_hal_adc_ex.c ****   }
 377:Drivers/STM32F4xx_HAL_Driver/Src/stm32f4xx_hal_adc_ex.c ****   else
 378:Drivers/STM32F4xx_HAL_Driver/Src/stm32f4xx_hal_adc_ex.c ****   {
 379:Drivers/STM32F4xx_HAL_Driver/Src/stm32f4xx_hal_adc_ex.c ****     /* Update ADC state machine to error */
 380:Drivers/STM32F4xx_HAL_Driver/Src/stm32f4xx_hal_adc_ex.c ****     SET_BIT(hadc->State, HAL_ADC_STATE_ERROR_CONFIG);
 381:Drivers/STM32F4xx_HAL_Driver/Src/stm32f4xx_hal_adc_ex.c ****       
 382:Drivers/STM32F4xx_HAL_Driver/Src/stm32f4xx_hal_adc_ex.c ****     tmp_hal_status = HAL_ERROR;
 383:Drivers/STM32F4xx_HAL_Driver/Src/stm32f4xx_hal_adc_ex.c ****   }
 384:Drivers/STM32F4xx_HAL_Driver/Src/stm32f4xx_hal_adc_ex.c ****   
 385:Drivers/STM32F4xx_HAL_Driver/Src/stm32f4xx_hal_adc_ex.c ****   /* Process unlocked */
 386:Drivers/STM32F4xx_HAL_Driver/Src/stm32f4xx_hal_adc_ex.c ****   __HAL_UNLOCK(hadc);
 387:Drivers/STM32F4xx_HAL_Driver/Src/stm32f4xx_hal_adc_ex.c ****   
 388:Drivers/STM32F4xx_HAL_Driver/Src/stm32f4xx_hal_adc_ex.c ****   /* Return function status */
 389:Drivers/STM32F4xx_HAL_Driver/Src/stm32f4xx_hal_adc_ex.c ****   return tmp_hal_status;
 390:Drivers/STM32F4xx_HAL_Driver/Src/stm32f4xx_hal_adc_ex.c **** }
 391:Drivers/STM32F4xx_HAL_Driver/Src/stm32f4xx_hal_adc_ex.c **** 
 392:Drivers/STM32F4xx_HAL_Driver/Src/stm32f4xx_hal_adc_ex.c **** /**
 393:Drivers/STM32F4xx_HAL_Driver/Src/stm32f4xx_hal_adc_ex.c ****   * @brief  Poll for injected conversion complete
 394:Drivers/STM32F4xx_HAL_Driver/Src/stm32f4xx_hal_adc_ex.c ****   * @param  hadc pointer to a ADC_HandleTypeDef structure that contains
 395:Drivers/STM32F4xx_HAL_Driver/Src/stm32f4xx_hal_adc_ex.c ****   *         the configuration information for the specified ADC.
 396:Drivers/STM32F4xx_HAL_Driver/Src/stm32f4xx_hal_adc_ex.c ****   * @param  Timeout Timeout value in millisecond.  
 397:Drivers/STM32F4xx_HAL_Driver/Src/stm32f4xx_hal_adc_ex.c ****   * @retval HAL status
 398:Drivers/STM32F4xx_HAL_Driver/Src/stm32f4xx_hal_adc_ex.c ****   */
 399:Drivers/STM32F4xx_HAL_Driver/Src/stm32f4xx_hal_adc_ex.c **** HAL_StatusTypeDef HAL_ADCEx_InjectedPollForConversion(ADC_HandleTypeDef* hadc, uint32_t Timeout)
 400:Drivers/STM32F4xx_HAL_Driver/Src/stm32f4xx_hal_adc_ex.c **** {
 401:Drivers/STM32F4xx_HAL_Driver/Src/stm32f4xx_hal_adc_ex.c ****   uint32_t tickstart = 0U;
 402:Drivers/STM32F4xx_HAL_Driver/Src/stm32f4xx_hal_adc_ex.c **** 
 403:Drivers/STM32F4xx_HAL_Driver/Src/stm32f4xx_hal_adc_ex.c ****   /* Get tick */ 
 404:Drivers/STM32F4xx_HAL_Driver/Src/stm32f4xx_hal_adc_ex.c ****   tickstart = HAL_GetTick();
 405:Drivers/STM32F4xx_HAL_Driver/Src/stm32f4xx_hal_adc_ex.c **** 
 406:Drivers/STM32F4xx_HAL_Driver/Src/stm32f4xx_hal_adc_ex.c ****   /* Check End of conversion flag */
 407:Drivers/STM32F4xx_HAL_Driver/Src/stm32f4xx_hal_adc_ex.c ****   while(!(__HAL_ADC_GET_FLAG(hadc, ADC_FLAG_JEOC)))
 408:Drivers/STM32F4xx_HAL_Driver/Src/stm32f4xx_hal_adc_ex.c ****   {
 409:Drivers/STM32F4xx_HAL_Driver/Src/stm32f4xx_hal_adc_ex.c ****     /* Check for the Timeout */
 410:Drivers/STM32F4xx_HAL_Driver/Src/stm32f4xx_hal_adc_ex.c ****     if(Timeout != HAL_MAX_DELAY)
 411:Drivers/STM32F4xx_HAL_Driver/Src/stm32f4xx_hal_adc_ex.c ****     {
 412:Drivers/STM32F4xx_HAL_Driver/Src/stm32f4xx_hal_adc_ex.c ****       if((Timeout == 0U)||((HAL_GetTick() - tickstart ) > Timeout))
 413:Drivers/STM32F4xx_HAL_Driver/Src/stm32f4xx_hal_adc_ex.c ****       {
 414:Drivers/STM32F4xx_HAL_Driver/Src/stm32f4xx_hal_adc_ex.c ****         hadc->State= HAL_ADC_STATE_TIMEOUT;
 415:Drivers/STM32F4xx_HAL_Driver/Src/stm32f4xx_hal_adc_ex.c ****         /* Process unlocked */
 416:Drivers/STM32F4xx_HAL_Driver/Src/stm32f4xx_hal_adc_ex.c ****         __HAL_UNLOCK(hadc);
 417:Drivers/STM32F4xx_HAL_Driver/Src/stm32f4xx_hal_adc_ex.c ****         return HAL_TIMEOUT;
 418:Drivers/STM32F4xx_HAL_Driver/Src/stm32f4xx_hal_adc_ex.c ****       }
 419:Drivers/STM32F4xx_HAL_Driver/Src/stm32f4xx_hal_adc_ex.c ****     }
 420:Drivers/STM32F4xx_HAL_Driver/Src/stm32f4xx_hal_adc_ex.c ****   }
 421:Drivers/STM32F4xx_HAL_Driver/Src/stm32f4xx_hal_adc_ex.c ****   
 422:Drivers/STM32F4xx_HAL_Driver/Src/stm32f4xx_hal_adc_ex.c ****   /* Clear injected group conversion flag */
 423:Drivers/STM32F4xx_HAL_Driver/Src/stm32f4xx_hal_adc_ex.c ****   __HAL_ADC_CLEAR_FLAG(hadc, ADC_FLAG_JSTRT | ADC_FLAG_JEOC);
 424:Drivers/STM32F4xx_HAL_Driver/Src/stm32f4xx_hal_adc_ex.c ****     
 425:Drivers/STM32F4xx_HAL_Driver/Src/stm32f4xx_hal_adc_ex.c ****   /* Update ADC state machine */
 426:Drivers/STM32F4xx_HAL_Driver/Src/stm32f4xx_hal_adc_ex.c ****   SET_BIT(hadc->State, HAL_ADC_STATE_INJ_EOC);
 427:Drivers/STM32F4xx_HAL_Driver/Src/stm32f4xx_hal_adc_ex.c ****   
 428:Drivers/STM32F4xx_HAL_Driver/Src/stm32f4xx_hal_adc_ex.c ****   /* Determine whether any further conversion upcoming on group injected      */
 429:Drivers/STM32F4xx_HAL_Driver/Src/stm32f4xx_hal_adc_ex.c ****   /* by external trigger, continuous mode or scan sequence on going.          */
ARM GAS  C:\Users\LENOVO\AppData\Local\Temp\ccLbhjnu.s 			page 9


 430:Drivers/STM32F4xx_HAL_Driver/Src/stm32f4xx_hal_adc_ex.c ****   /* Note: On STM32F4, there is no independent flag of end of sequence.       */
 431:Drivers/STM32F4xx_HAL_Driver/Src/stm32f4xx_hal_adc_ex.c ****   /*       The test of scan sequence on going is done either with scan        */
 432:Drivers/STM32F4xx_HAL_Driver/Src/stm32f4xx_hal_adc_ex.c ****   /*       sequence disabled or with end of conversion flag set to            */
 433:Drivers/STM32F4xx_HAL_Driver/Src/stm32f4xx_hal_adc_ex.c ****   /*       of end of sequence.                                                */
 434:Drivers/STM32F4xx_HAL_Driver/Src/stm32f4xx_hal_adc_ex.c ****   if(ADC_IS_SOFTWARE_START_INJECTED(hadc)                    &&
 435:Drivers/STM32F4xx_HAL_Driver/Src/stm32f4xx_hal_adc_ex.c ****      (HAL_IS_BIT_CLR(hadc->Instance->JSQR, ADC_JSQR_JL)  ||
 436:Drivers/STM32F4xx_HAL_Driver/Src/stm32f4xx_hal_adc_ex.c ****       HAL_IS_BIT_CLR(hadc->Instance->CR2, ADC_CR2_EOCS)    ) &&
 437:Drivers/STM32F4xx_HAL_Driver/Src/stm32f4xx_hal_adc_ex.c ****      (HAL_IS_BIT_CLR(hadc->Instance->CR1, ADC_CR1_JAUTO) &&
 438:Drivers/STM32F4xx_HAL_Driver/Src/stm32f4xx_hal_adc_ex.c ****       (ADC_IS_SOFTWARE_START_REGULAR(hadc)       &&
 439:Drivers/STM32F4xx_HAL_Driver/Src/stm32f4xx_hal_adc_ex.c ****       (hadc->Init.ContinuousConvMode == DISABLE)   )       )   )
 440:Drivers/STM32F4xx_HAL_Driver/Src/stm32f4xx_hal_adc_ex.c ****   {
 441:Drivers/STM32F4xx_HAL_Driver/Src/stm32f4xx_hal_adc_ex.c ****     /* Set ADC state */
 442:Drivers/STM32F4xx_HAL_Driver/Src/stm32f4xx_hal_adc_ex.c ****     CLEAR_BIT(hadc->State, HAL_ADC_STATE_INJ_BUSY);
 443:Drivers/STM32F4xx_HAL_Driver/Src/stm32f4xx_hal_adc_ex.c ****     
 444:Drivers/STM32F4xx_HAL_Driver/Src/stm32f4xx_hal_adc_ex.c ****     if (HAL_IS_BIT_CLR(hadc->State, HAL_ADC_STATE_REG_BUSY))
 445:Drivers/STM32F4xx_HAL_Driver/Src/stm32f4xx_hal_adc_ex.c ****     { 
 446:Drivers/STM32F4xx_HAL_Driver/Src/stm32f4xx_hal_adc_ex.c ****       SET_BIT(hadc->State, HAL_ADC_STATE_READY);
 447:Drivers/STM32F4xx_HAL_Driver/Src/stm32f4xx_hal_adc_ex.c ****     }
 448:Drivers/STM32F4xx_HAL_Driver/Src/stm32f4xx_hal_adc_ex.c ****   }
 449:Drivers/STM32F4xx_HAL_Driver/Src/stm32f4xx_hal_adc_ex.c ****   
 450:Drivers/STM32F4xx_HAL_Driver/Src/stm32f4xx_hal_adc_ex.c ****   /* Return ADC state */
 451:Drivers/STM32F4xx_HAL_Driver/Src/stm32f4xx_hal_adc_ex.c ****   return HAL_OK;
 452:Drivers/STM32F4xx_HAL_Driver/Src/stm32f4xx_hal_adc_ex.c **** }      
 453:Drivers/STM32F4xx_HAL_Driver/Src/stm32f4xx_hal_adc_ex.c ****   
 454:Drivers/STM32F4xx_HAL_Driver/Src/stm32f4xx_hal_adc_ex.c **** /**
 455:Drivers/STM32F4xx_HAL_Driver/Src/stm32f4xx_hal_adc_ex.c ****   * @brief  Stop conversion of injected channels, disable interruption of 
 456:Drivers/STM32F4xx_HAL_Driver/Src/stm32f4xx_hal_adc_ex.c ****   *         end-of-conversion. Disable ADC peripheral if no regular conversion
 457:Drivers/STM32F4xx_HAL_Driver/Src/stm32f4xx_hal_adc_ex.c ****   *         is on going.
 458:Drivers/STM32F4xx_HAL_Driver/Src/stm32f4xx_hal_adc_ex.c ****   * @note   If ADC must be disabled and if conversion is on going on 
 459:Drivers/STM32F4xx_HAL_Driver/Src/stm32f4xx_hal_adc_ex.c ****   *         regular group, function HAL_ADC_Stop must be used to stop both
 460:Drivers/STM32F4xx_HAL_Driver/Src/stm32f4xx_hal_adc_ex.c ****   *         injected and regular groups, and disable the ADC.
 461:Drivers/STM32F4xx_HAL_Driver/Src/stm32f4xx_hal_adc_ex.c ****   * @note   If injected group mode auto-injection is enabled,
 462:Drivers/STM32F4xx_HAL_Driver/Src/stm32f4xx_hal_adc_ex.c ****   *         function HAL_ADC_Stop must be used.
 463:Drivers/STM32F4xx_HAL_Driver/Src/stm32f4xx_hal_adc_ex.c ****   * @param  hadc ADC handle
 464:Drivers/STM32F4xx_HAL_Driver/Src/stm32f4xx_hal_adc_ex.c ****   * @retval None
 465:Drivers/STM32F4xx_HAL_Driver/Src/stm32f4xx_hal_adc_ex.c ****   */
 466:Drivers/STM32F4xx_HAL_Driver/Src/stm32f4xx_hal_adc_ex.c **** HAL_StatusTypeDef HAL_ADCEx_InjectedStop_IT(ADC_HandleTypeDef* hadc)
 467:Drivers/STM32F4xx_HAL_Driver/Src/stm32f4xx_hal_adc_ex.c **** {
 468:Drivers/STM32F4xx_HAL_Driver/Src/stm32f4xx_hal_adc_ex.c ****   HAL_StatusTypeDef tmp_hal_status = HAL_OK;
 469:Drivers/STM32F4xx_HAL_Driver/Src/stm32f4xx_hal_adc_ex.c ****   
 470:Drivers/STM32F4xx_HAL_Driver/Src/stm32f4xx_hal_adc_ex.c ****   /* Check the parameters */
 471:Drivers/STM32F4xx_HAL_Driver/Src/stm32f4xx_hal_adc_ex.c ****   assert_param(IS_ADC_ALL_INSTANCE(hadc->Instance));
 472:Drivers/STM32F4xx_HAL_Driver/Src/stm32f4xx_hal_adc_ex.c **** 
 473:Drivers/STM32F4xx_HAL_Driver/Src/stm32f4xx_hal_adc_ex.c ****   /* Process locked */
 474:Drivers/STM32F4xx_HAL_Driver/Src/stm32f4xx_hal_adc_ex.c ****   __HAL_LOCK(hadc);
 475:Drivers/STM32F4xx_HAL_Driver/Src/stm32f4xx_hal_adc_ex.c ****     
 476:Drivers/STM32F4xx_HAL_Driver/Src/stm32f4xx_hal_adc_ex.c ****   /* Stop potential conversion and disable ADC peripheral                     */
 477:Drivers/STM32F4xx_HAL_Driver/Src/stm32f4xx_hal_adc_ex.c ****   /* Conditioned to:                                                          */
 478:Drivers/STM32F4xx_HAL_Driver/Src/stm32f4xx_hal_adc_ex.c ****   /* - No conversion on the other group (regular group) is intended to        */
 479:Drivers/STM32F4xx_HAL_Driver/Src/stm32f4xx_hal_adc_ex.c ****   /*   continue (injected and regular groups stop conversion and ADC disable  */
 480:Drivers/STM32F4xx_HAL_Driver/Src/stm32f4xx_hal_adc_ex.c ****   /*   are common)                                                            */
 481:Drivers/STM32F4xx_HAL_Driver/Src/stm32f4xx_hal_adc_ex.c ****   /* - In case of auto-injection mode, HAL_ADC_Stop must be used.             */ 
 482:Drivers/STM32F4xx_HAL_Driver/Src/stm32f4xx_hal_adc_ex.c ****   if(((hadc->State & HAL_ADC_STATE_REG_BUSY) == RESET)  &&
 483:Drivers/STM32F4xx_HAL_Driver/Src/stm32f4xx_hal_adc_ex.c ****      HAL_IS_BIT_CLR(hadc->Instance->CR1, ADC_CR1_JAUTO)   )
 484:Drivers/STM32F4xx_HAL_Driver/Src/stm32f4xx_hal_adc_ex.c ****   {
 485:Drivers/STM32F4xx_HAL_Driver/Src/stm32f4xx_hal_adc_ex.c ****     /* Stop potential conversion on going, on regular and injected groups */
 486:Drivers/STM32F4xx_HAL_Driver/Src/stm32f4xx_hal_adc_ex.c ****     /* Disable ADC peripheral */
ARM GAS  C:\Users\LENOVO\AppData\Local\Temp\ccLbhjnu.s 			page 10


 487:Drivers/STM32F4xx_HAL_Driver/Src/stm32f4xx_hal_adc_ex.c ****     __HAL_ADC_DISABLE(hadc);
 488:Drivers/STM32F4xx_HAL_Driver/Src/stm32f4xx_hal_adc_ex.c ****     
 489:Drivers/STM32F4xx_HAL_Driver/Src/stm32f4xx_hal_adc_ex.c ****     /* Check if ADC is effectively disabled */
 490:Drivers/STM32F4xx_HAL_Driver/Src/stm32f4xx_hal_adc_ex.c ****     if(HAL_IS_BIT_CLR(hadc->Instance->CR2, ADC_CR2_ADON))
 491:Drivers/STM32F4xx_HAL_Driver/Src/stm32f4xx_hal_adc_ex.c ****     {
 492:Drivers/STM32F4xx_HAL_Driver/Src/stm32f4xx_hal_adc_ex.c ****       /* Disable ADC end of conversion interrupt for injected channels */
 493:Drivers/STM32F4xx_HAL_Driver/Src/stm32f4xx_hal_adc_ex.c ****       __HAL_ADC_DISABLE_IT(hadc, ADC_IT_JEOC);
 494:Drivers/STM32F4xx_HAL_Driver/Src/stm32f4xx_hal_adc_ex.c ****       
 495:Drivers/STM32F4xx_HAL_Driver/Src/stm32f4xx_hal_adc_ex.c ****       /* Set ADC state */
 496:Drivers/STM32F4xx_HAL_Driver/Src/stm32f4xx_hal_adc_ex.c ****       ADC_STATE_CLR_SET(hadc->State,
 497:Drivers/STM32F4xx_HAL_Driver/Src/stm32f4xx_hal_adc_ex.c ****                         HAL_ADC_STATE_REG_BUSY | HAL_ADC_STATE_INJ_BUSY,
 498:Drivers/STM32F4xx_HAL_Driver/Src/stm32f4xx_hal_adc_ex.c ****                         HAL_ADC_STATE_READY);
 499:Drivers/STM32F4xx_HAL_Driver/Src/stm32f4xx_hal_adc_ex.c ****     }
 500:Drivers/STM32F4xx_HAL_Driver/Src/stm32f4xx_hal_adc_ex.c ****   }
 501:Drivers/STM32F4xx_HAL_Driver/Src/stm32f4xx_hal_adc_ex.c ****   else
 502:Drivers/STM32F4xx_HAL_Driver/Src/stm32f4xx_hal_adc_ex.c ****   {
 503:Drivers/STM32F4xx_HAL_Driver/Src/stm32f4xx_hal_adc_ex.c ****     /* Update ADC state machine to error */
 504:Drivers/STM32F4xx_HAL_Driver/Src/stm32f4xx_hal_adc_ex.c ****     SET_BIT(hadc->State, HAL_ADC_STATE_ERROR_CONFIG);
 505:Drivers/STM32F4xx_HAL_Driver/Src/stm32f4xx_hal_adc_ex.c ****       
 506:Drivers/STM32F4xx_HAL_Driver/Src/stm32f4xx_hal_adc_ex.c ****     tmp_hal_status = HAL_ERROR;
 507:Drivers/STM32F4xx_HAL_Driver/Src/stm32f4xx_hal_adc_ex.c ****   }
 508:Drivers/STM32F4xx_HAL_Driver/Src/stm32f4xx_hal_adc_ex.c ****   
 509:Drivers/STM32F4xx_HAL_Driver/Src/stm32f4xx_hal_adc_ex.c ****   /* Process unlocked */
 510:Drivers/STM32F4xx_HAL_Driver/Src/stm32f4xx_hal_adc_ex.c ****   __HAL_UNLOCK(hadc);
 511:Drivers/STM32F4xx_HAL_Driver/Src/stm32f4xx_hal_adc_ex.c ****   
 512:Drivers/STM32F4xx_HAL_Driver/Src/stm32f4xx_hal_adc_ex.c ****   /* Return function status */
 513:Drivers/STM32F4xx_HAL_Driver/Src/stm32f4xx_hal_adc_ex.c ****   return tmp_hal_status;
 514:Drivers/STM32F4xx_HAL_Driver/Src/stm32f4xx_hal_adc_ex.c **** }
 515:Drivers/STM32F4xx_HAL_Driver/Src/stm32f4xx_hal_adc_ex.c **** 
 516:Drivers/STM32F4xx_HAL_Driver/Src/stm32f4xx_hal_adc_ex.c **** /**
 517:Drivers/STM32F4xx_HAL_Driver/Src/stm32f4xx_hal_adc_ex.c ****   * @brief  Gets the converted value from data register of injected channel.
 518:Drivers/STM32F4xx_HAL_Driver/Src/stm32f4xx_hal_adc_ex.c ****   * @param  hadc pointer to a ADC_HandleTypeDef structure that contains
 519:Drivers/STM32F4xx_HAL_Driver/Src/stm32f4xx_hal_adc_ex.c ****   *         the configuration information for the specified ADC.
 520:Drivers/STM32F4xx_HAL_Driver/Src/stm32f4xx_hal_adc_ex.c ****   * @param  InjectedRank the ADC injected rank.
 521:Drivers/STM32F4xx_HAL_Driver/Src/stm32f4xx_hal_adc_ex.c ****   *          This parameter can be one of the following values:
 522:Drivers/STM32F4xx_HAL_Driver/Src/stm32f4xx_hal_adc_ex.c ****   *            @arg ADC_INJECTED_RANK_1: Injected Channel1 selected
 523:Drivers/STM32F4xx_HAL_Driver/Src/stm32f4xx_hal_adc_ex.c ****   *            @arg ADC_INJECTED_RANK_2: Injected Channel2 selected
 524:Drivers/STM32F4xx_HAL_Driver/Src/stm32f4xx_hal_adc_ex.c ****   *            @arg ADC_INJECTED_RANK_3: Injected Channel3 selected
 525:Drivers/STM32F4xx_HAL_Driver/Src/stm32f4xx_hal_adc_ex.c ****   *            @arg ADC_INJECTED_RANK_4: Injected Channel4 selected
 526:Drivers/STM32F4xx_HAL_Driver/Src/stm32f4xx_hal_adc_ex.c ****   * @retval None
 527:Drivers/STM32F4xx_HAL_Driver/Src/stm32f4xx_hal_adc_ex.c ****   */
 528:Drivers/STM32F4xx_HAL_Driver/Src/stm32f4xx_hal_adc_ex.c **** uint32_t HAL_ADCEx_InjectedGetValue(ADC_HandleTypeDef* hadc, uint32_t InjectedRank)
 529:Drivers/STM32F4xx_HAL_Driver/Src/stm32f4xx_hal_adc_ex.c **** {
 530:Drivers/STM32F4xx_HAL_Driver/Src/stm32f4xx_hal_adc_ex.c ****   __IO uint32_t tmp = 0U;
 531:Drivers/STM32F4xx_HAL_Driver/Src/stm32f4xx_hal_adc_ex.c ****   
 532:Drivers/STM32F4xx_HAL_Driver/Src/stm32f4xx_hal_adc_ex.c ****   /* Check the parameters */
 533:Drivers/STM32F4xx_HAL_Driver/Src/stm32f4xx_hal_adc_ex.c ****   assert_param(IS_ADC_INJECTED_RANK(InjectedRank));
 534:Drivers/STM32F4xx_HAL_Driver/Src/stm32f4xx_hal_adc_ex.c ****   
 535:Drivers/STM32F4xx_HAL_Driver/Src/stm32f4xx_hal_adc_ex.c ****   /* Clear injected group conversion flag to have similar behaviour as        */
 536:Drivers/STM32F4xx_HAL_Driver/Src/stm32f4xx_hal_adc_ex.c ****   /* regular group: reading data register also clears end of conversion flag. */
 537:Drivers/STM32F4xx_HAL_Driver/Src/stm32f4xx_hal_adc_ex.c ****   __HAL_ADC_CLEAR_FLAG(hadc, ADC_FLAG_JEOC);
 538:Drivers/STM32F4xx_HAL_Driver/Src/stm32f4xx_hal_adc_ex.c ****   
 539:Drivers/STM32F4xx_HAL_Driver/Src/stm32f4xx_hal_adc_ex.c ****   /* Return the selected ADC converted value */ 
 540:Drivers/STM32F4xx_HAL_Driver/Src/stm32f4xx_hal_adc_ex.c ****   switch(InjectedRank)
 541:Drivers/STM32F4xx_HAL_Driver/Src/stm32f4xx_hal_adc_ex.c ****   {  
 542:Drivers/STM32F4xx_HAL_Driver/Src/stm32f4xx_hal_adc_ex.c ****     case ADC_INJECTED_RANK_4:
 543:Drivers/STM32F4xx_HAL_Driver/Src/stm32f4xx_hal_adc_ex.c ****     {
ARM GAS  C:\Users\LENOVO\AppData\Local\Temp\ccLbhjnu.s 			page 11


 544:Drivers/STM32F4xx_HAL_Driver/Src/stm32f4xx_hal_adc_ex.c ****       tmp =  hadc->Instance->JDR4;
 545:Drivers/STM32F4xx_HAL_Driver/Src/stm32f4xx_hal_adc_ex.c ****     }  
 546:Drivers/STM32F4xx_HAL_Driver/Src/stm32f4xx_hal_adc_ex.c ****     break;
 547:Drivers/STM32F4xx_HAL_Driver/Src/stm32f4xx_hal_adc_ex.c ****     case ADC_INJECTED_RANK_3: 
 548:Drivers/STM32F4xx_HAL_Driver/Src/stm32f4xx_hal_adc_ex.c ****     {  
 549:Drivers/STM32F4xx_HAL_Driver/Src/stm32f4xx_hal_adc_ex.c ****       tmp =  hadc->Instance->JDR3;
 550:Drivers/STM32F4xx_HAL_Driver/Src/stm32f4xx_hal_adc_ex.c ****     }  
 551:Drivers/STM32F4xx_HAL_Driver/Src/stm32f4xx_hal_adc_ex.c ****     break;
 552:Drivers/STM32F4xx_HAL_Driver/Src/stm32f4xx_hal_adc_ex.c ****     case ADC_INJECTED_RANK_2: 
 553:Drivers/STM32F4xx_HAL_Driver/Src/stm32f4xx_hal_adc_ex.c ****     {  
 554:Drivers/STM32F4xx_HAL_Driver/Src/stm32f4xx_hal_adc_ex.c ****       tmp =  hadc->Instance->JDR2;
 555:Drivers/STM32F4xx_HAL_Driver/Src/stm32f4xx_hal_adc_ex.c ****     }
 556:Drivers/STM32F4xx_HAL_Driver/Src/stm32f4xx_hal_adc_ex.c ****     break;
 557:Drivers/STM32F4xx_HAL_Driver/Src/stm32f4xx_hal_adc_ex.c ****     case ADC_INJECTED_RANK_1:
 558:Drivers/STM32F4xx_HAL_Driver/Src/stm32f4xx_hal_adc_ex.c ****     {
 559:Drivers/STM32F4xx_HAL_Driver/Src/stm32f4xx_hal_adc_ex.c ****       tmp =  hadc->Instance->JDR1;
 560:Drivers/STM32F4xx_HAL_Driver/Src/stm32f4xx_hal_adc_ex.c ****     }
 561:Drivers/STM32F4xx_HAL_Driver/Src/stm32f4xx_hal_adc_ex.c ****     break;
 562:Drivers/STM32F4xx_HAL_Driver/Src/stm32f4xx_hal_adc_ex.c ****     default:
 563:Drivers/STM32F4xx_HAL_Driver/Src/stm32f4xx_hal_adc_ex.c ****     break;  
 564:Drivers/STM32F4xx_HAL_Driver/Src/stm32f4xx_hal_adc_ex.c ****   }
 565:Drivers/STM32F4xx_HAL_Driver/Src/stm32f4xx_hal_adc_ex.c ****   return tmp;
 566:Drivers/STM32F4xx_HAL_Driver/Src/stm32f4xx_hal_adc_ex.c **** }
 567:Drivers/STM32F4xx_HAL_Driver/Src/stm32f4xx_hal_adc_ex.c **** 
 568:Drivers/STM32F4xx_HAL_Driver/Src/stm32f4xx_hal_adc_ex.c **** /**
 569:Drivers/STM32F4xx_HAL_Driver/Src/stm32f4xx_hal_adc_ex.c ****   * @brief  Enables ADC DMA request after last transfer (Multi-ADC mode) and enables ADC peripheral
 570:Drivers/STM32F4xx_HAL_Driver/Src/stm32f4xx_hal_adc_ex.c ****   * 
 571:Drivers/STM32F4xx_HAL_Driver/Src/stm32f4xx_hal_adc_ex.c ****   * @note   Caution: This function must be used only with the ADC master.  
 572:Drivers/STM32F4xx_HAL_Driver/Src/stm32f4xx_hal_adc_ex.c ****   *
 573:Drivers/STM32F4xx_HAL_Driver/Src/stm32f4xx_hal_adc_ex.c ****   * @param  hadc pointer to a ADC_HandleTypeDef structure that contains
 574:Drivers/STM32F4xx_HAL_Driver/Src/stm32f4xx_hal_adc_ex.c ****   *         the configuration information for the specified ADC.
 575:Drivers/STM32F4xx_HAL_Driver/Src/stm32f4xx_hal_adc_ex.c ****   * @param  pData   Pointer to buffer in which transferred from ADC peripheral to memory will be st
 576:Drivers/STM32F4xx_HAL_Driver/Src/stm32f4xx_hal_adc_ex.c ****   * @param  Length  The length of data to be transferred from ADC peripheral to memory.  
 577:Drivers/STM32F4xx_HAL_Driver/Src/stm32f4xx_hal_adc_ex.c ****   * @retval HAL status
 578:Drivers/STM32F4xx_HAL_Driver/Src/stm32f4xx_hal_adc_ex.c ****   */
 579:Drivers/STM32F4xx_HAL_Driver/Src/stm32f4xx_hal_adc_ex.c **** HAL_StatusTypeDef HAL_ADCEx_MultiModeStart_DMA(ADC_HandleTypeDef* hadc, uint32_t* pData, uint32_t L
 580:Drivers/STM32F4xx_HAL_Driver/Src/stm32f4xx_hal_adc_ex.c **** {
 581:Drivers/STM32F4xx_HAL_Driver/Src/stm32f4xx_hal_adc_ex.c ****   __IO uint32_t counter = 0U;
 582:Drivers/STM32F4xx_HAL_Driver/Src/stm32f4xx_hal_adc_ex.c ****   ADC_Common_TypeDef *tmpADC_Common;
 583:Drivers/STM32F4xx_HAL_Driver/Src/stm32f4xx_hal_adc_ex.c ****   
 584:Drivers/STM32F4xx_HAL_Driver/Src/stm32f4xx_hal_adc_ex.c ****   /* Check the parameters */
 585:Drivers/STM32F4xx_HAL_Driver/Src/stm32f4xx_hal_adc_ex.c ****   assert_param(IS_FUNCTIONAL_STATE(hadc->Init.ContinuousConvMode));
 586:Drivers/STM32F4xx_HAL_Driver/Src/stm32f4xx_hal_adc_ex.c ****   assert_param(IS_ADC_EXT_TRIG_EDGE(hadc->Init.ExternalTrigConvEdge));
 587:Drivers/STM32F4xx_HAL_Driver/Src/stm32f4xx_hal_adc_ex.c ****   assert_param(IS_FUNCTIONAL_STATE(hadc->Init.DMAContinuousRequests));
 588:Drivers/STM32F4xx_HAL_Driver/Src/stm32f4xx_hal_adc_ex.c ****   
 589:Drivers/STM32F4xx_HAL_Driver/Src/stm32f4xx_hal_adc_ex.c ****   /* Process locked */
 590:Drivers/STM32F4xx_HAL_Driver/Src/stm32f4xx_hal_adc_ex.c ****   __HAL_LOCK(hadc);
 591:Drivers/STM32F4xx_HAL_Driver/Src/stm32f4xx_hal_adc_ex.c ****   
 592:Drivers/STM32F4xx_HAL_Driver/Src/stm32f4xx_hal_adc_ex.c ****   /* Check if ADC peripheral is disabled in order to enable it and wait during 
 593:Drivers/STM32F4xx_HAL_Driver/Src/stm32f4xx_hal_adc_ex.c ****      Tstab time the ADC's stabilization */
 594:Drivers/STM32F4xx_HAL_Driver/Src/stm32f4xx_hal_adc_ex.c ****   if((hadc->Instance->CR2 & ADC_CR2_ADON) != ADC_CR2_ADON)
 595:Drivers/STM32F4xx_HAL_Driver/Src/stm32f4xx_hal_adc_ex.c ****   {  
 596:Drivers/STM32F4xx_HAL_Driver/Src/stm32f4xx_hal_adc_ex.c ****     /* Enable the Peripheral */
 597:Drivers/STM32F4xx_HAL_Driver/Src/stm32f4xx_hal_adc_ex.c ****     __HAL_ADC_ENABLE(hadc);
 598:Drivers/STM32F4xx_HAL_Driver/Src/stm32f4xx_hal_adc_ex.c ****     
 599:Drivers/STM32F4xx_HAL_Driver/Src/stm32f4xx_hal_adc_ex.c ****     /* Delay for temperature sensor stabilization time */
 600:Drivers/STM32F4xx_HAL_Driver/Src/stm32f4xx_hal_adc_ex.c ****     /* Compute number of CPU cycles to wait for */
ARM GAS  C:\Users\LENOVO\AppData\Local\Temp\ccLbhjnu.s 			page 12


 601:Drivers/STM32F4xx_HAL_Driver/Src/stm32f4xx_hal_adc_ex.c ****     counter = (ADC_STAB_DELAY_US * (SystemCoreClock / 1000000U));
 602:Drivers/STM32F4xx_HAL_Driver/Src/stm32f4xx_hal_adc_ex.c ****     while(counter != 0U)
 603:Drivers/STM32F4xx_HAL_Driver/Src/stm32f4xx_hal_adc_ex.c ****     {
 604:Drivers/STM32F4xx_HAL_Driver/Src/stm32f4xx_hal_adc_ex.c ****       counter--;
 605:Drivers/STM32F4xx_HAL_Driver/Src/stm32f4xx_hal_adc_ex.c ****     }
 606:Drivers/STM32F4xx_HAL_Driver/Src/stm32f4xx_hal_adc_ex.c ****   }
 607:Drivers/STM32F4xx_HAL_Driver/Src/stm32f4xx_hal_adc_ex.c ****   
 608:Drivers/STM32F4xx_HAL_Driver/Src/stm32f4xx_hal_adc_ex.c ****   /* Start conversion if ADC is effectively enabled */
 609:Drivers/STM32F4xx_HAL_Driver/Src/stm32f4xx_hal_adc_ex.c ****   if(HAL_IS_BIT_SET(hadc->Instance->CR2, ADC_CR2_ADON))
 610:Drivers/STM32F4xx_HAL_Driver/Src/stm32f4xx_hal_adc_ex.c ****   {
 611:Drivers/STM32F4xx_HAL_Driver/Src/stm32f4xx_hal_adc_ex.c ****     /* Set ADC state                                                          */
 612:Drivers/STM32F4xx_HAL_Driver/Src/stm32f4xx_hal_adc_ex.c ****     /* - Clear state bitfield related to regular group conversion results     */
 613:Drivers/STM32F4xx_HAL_Driver/Src/stm32f4xx_hal_adc_ex.c ****     /* - Set state bitfield related to regular group operation                */
 614:Drivers/STM32F4xx_HAL_Driver/Src/stm32f4xx_hal_adc_ex.c ****     ADC_STATE_CLR_SET(hadc->State,
 615:Drivers/STM32F4xx_HAL_Driver/Src/stm32f4xx_hal_adc_ex.c ****                       HAL_ADC_STATE_READY | HAL_ADC_STATE_REG_EOC | HAL_ADC_STATE_REG_OVR,
 616:Drivers/STM32F4xx_HAL_Driver/Src/stm32f4xx_hal_adc_ex.c ****                       HAL_ADC_STATE_REG_BUSY);
 617:Drivers/STM32F4xx_HAL_Driver/Src/stm32f4xx_hal_adc_ex.c ****     
 618:Drivers/STM32F4xx_HAL_Driver/Src/stm32f4xx_hal_adc_ex.c ****     /* If conversions on group regular are also triggering group injected,    */
 619:Drivers/STM32F4xx_HAL_Driver/Src/stm32f4xx_hal_adc_ex.c ****     /* update ADC state.                                                      */
 620:Drivers/STM32F4xx_HAL_Driver/Src/stm32f4xx_hal_adc_ex.c ****     if (READ_BIT(hadc->Instance->CR1, ADC_CR1_JAUTO) != RESET)
 621:Drivers/STM32F4xx_HAL_Driver/Src/stm32f4xx_hal_adc_ex.c ****     {
 622:Drivers/STM32F4xx_HAL_Driver/Src/stm32f4xx_hal_adc_ex.c ****       ADC_STATE_CLR_SET(hadc->State, HAL_ADC_STATE_INJ_EOC, HAL_ADC_STATE_INJ_BUSY);  
 623:Drivers/STM32F4xx_HAL_Driver/Src/stm32f4xx_hal_adc_ex.c ****     }
 624:Drivers/STM32F4xx_HAL_Driver/Src/stm32f4xx_hal_adc_ex.c ****     
 625:Drivers/STM32F4xx_HAL_Driver/Src/stm32f4xx_hal_adc_ex.c ****     /* State machine update: Check if an injected conversion is ongoing */
 626:Drivers/STM32F4xx_HAL_Driver/Src/stm32f4xx_hal_adc_ex.c ****     if (HAL_IS_BIT_SET(hadc->State, HAL_ADC_STATE_INJ_BUSY))
 627:Drivers/STM32F4xx_HAL_Driver/Src/stm32f4xx_hal_adc_ex.c ****     {
 628:Drivers/STM32F4xx_HAL_Driver/Src/stm32f4xx_hal_adc_ex.c ****       /* Reset ADC error code fields related to conversions on group regular */
 629:Drivers/STM32F4xx_HAL_Driver/Src/stm32f4xx_hal_adc_ex.c ****       CLEAR_BIT(hadc->ErrorCode, (HAL_ADC_ERROR_OVR | HAL_ADC_ERROR_DMA));         
 630:Drivers/STM32F4xx_HAL_Driver/Src/stm32f4xx_hal_adc_ex.c ****     }
 631:Drivers/STM32F4xx_HAL_Driver/Src/stm32f4xx_hal_adc_ex.c ****     else
 632:Drivers/STM32F4xx_HAL_Driver/Src/stm32f4xx_hal_adc_ex.c ****     {
 633:Drivers/STM32F4xx_HAL_Driver/Src/stm32f4xx_hal_adc_ex.c ****       /* Reset ADC all error code fields */
 634:Drivers/STM32F4xx_HAL_Driver/Src/stm32f4xx_hal_adc_ex.c ****       ADC_CLEAR_ERRORCODE(hadc);
 635:Drivers/STM32F4xx_HAL_Driver/Src/stm32f4xx_hal_adc_ex.c ****     }
 636:Drivers/STM32F4xx_HAL_Driver/Src/stm32f4xx_hal_adc_ex.c ****     
 637:Drivers/STM32F4xx_HAL_Driver/Src/stm32f4xx_hal_adc_ex.c ****     /* Process unlocked */
 638:Drivers/STM32F4xx_HAL_Driver/Src/stm32f4xx_hal_adc_ex.c ****     /* Unlock before starting ADC conversions: in case of potential           */
 639:Drivers/STM32F4xx_HAL_Driver/Src/stm32f4xx_hal_adc_ex.c ****     /* interruption, to let the process to ADC IRQ Handler.                   */
 640:Drivers/STM32F4xx_HAL_Driver/Src/stm32f4xx_hal_adc_ex.c ****     __HAL_UNLOCK(hadc);
 641:Drivers/STM32F4xx_HAL_Driver/Src/stm32f4xx_hal_adc_ex.c ****     
 642:Drivers/STM32F4xx_HAL_Driver/Src/stm32f4xx_hal_adc_ex.c ****     /* Set the DMA transfer complete callback */
 643:Drivers/STM32F4xx_HAL_Driver/Src/stm32f4xx_hal_adc_ex.c ****     hadc->DMA_Handle->XferCpltCallback = ADC_MultiModeDMAConvCplt;
 644:Drivers/STM32F4xx_HAL_Driver/Src/stm32f4xx_hal_adc_ex.c ****     
 645:Drivers/STM32F4xx_HAL_Driver/Src/stm32f4xx_hal_adc_ex.c ****     /* Set the DMA half transfer complete callback */
 646:Drivers/STM32F4xx_HAL_Driver/Src/stm32f4xx_hal_adc_ex.c ****     hadc->DMA_Handle->XferHalfCpltCallback = ADC_MultiModeDMAHalfConvCplt;
 647:Drivers/STM32F4xx_HAL_Driver/Src/stm32f4xx_hal_adc_ex.c ****     
 648:Drivers/STM32F4xx_HAL_Driver/Src/stm32f4xx_hal_adc_ex.c ****     /* Set the DMA error callback */
 649:Drivers/STM32F4xx_HAL_Driver/Src/stm32f4xx_hal_adc_ex.c ****     hadc->DMA_Handle->XferErrorCallback = ADC_MultiModeDMAError ;
 650:Drivers/STM32F4xx_HAL_Driver/Src/stm32f4xx_hal_adc_ex.c ****     
 651:Drivers/STM32F4xx_HAL_Driver/Src/stm32f4xx_hal_adc_ex.c ****     /* Manage ADC and DMA start: ADC overrun interruption, DMA start, ADC     */
 652:Drivers/STM32F4xx_HAL_Driver/Src/stm32f4xx_hal_adc_ex.c ****     /* start (in case of SW start):                                           */
 653:Drivers/STM32F4xx_HAL_Driver/Src/stm32f4xx_hal_adc_ex.c ****     
 654:Drivers/STM32F4xx_HAL_Driver/Src/stm32f4xx_hal_adc_ex.c ****     /* Clear regular group conversion flag and overrun flag */
 655:Drivers/STM32F4xx_HAL_Driver/Src/stm32f4xx_hal_adc_ex.c ****     /* (To ensure of no unknown state from potential previous ADC operations) */
 656:Drivers/STM32F4xx_HAL_Driver/Src/stm32f4xx_hal_adc_ex.c ****     __HAL_ADC_CLEAR_FLAG(hadc, ADC_FLAG_EOC);
 657:Drivers/STM32F4xx_HAL_Driver/Src/stm32f4xx_hal_adc_ex.c **** 
ARM GAS  C:\Users\LENOVO\AppData\Local\Temp\ccLbhjnu.s 			page 13


 658:Drivers/STM32F4xx_HAL_Driver/Src/stm32f4xx_hal_adc_ex.c ****     /* Enable ADC overrun interrupt */
 659:Drivers/STM32F4xx_HAL_Driver/Src/stm32f4xx_hal_adc_ex.c ****     __HAL_ADC_ENABLE_IT(hadc, ADC_IT_OVR);
 660:Drivers/STM32F4xx_HAL_Driver/Src/stm32f4xx_hal_adc_ex.c **** 
 661:Drivers/STM32F4xx_HAL_Driver/Src/stm32f4xx_hal_adc_ex.c ****     /* Pointer to the common control register to which is belonging hadc    */
 662:Drivers/STM32F4xx_HAL_Driver/Src/stm32f4xx_hal_adc_ex.c ****     /* (Depending on STM32F4 product, there may be up to 3 ADC and 1 common */
 663:Drivers/STM32F4xx_HAL_Driver/Src/stm32f4xx_hal_adc_ex.c ****     /* control register)                                                    */
 664:Drivers/STM32F4xx_HAL_Driver/Src/stm32f4xx_hal_adc_ex.c ****     tmpADC_Common = ADC_COMMON_REGISTER(hadc);
 665:Drivers/STM32F4xx_HAL_Driver/Src/stm32f4xx_hal_adc_ex.c **** 
 666:Drivers/STM32F4xx_HAL_Driver/Src/stm32f4xx_hal_adc_ex.c ****     if (hadc->Init.DMAContinuousRequests != DISABLE)
 667:Drivers/STM32F4xx_HAL_Driver/Src/stm32f4xx_hal_adc_ex.c ****     {
 668:Drivers/STM32F4xx_HAL_Driver/Src/stm32f4xx_hal_adc_ex.c ****       /* Enable the selected ADC DMA request after last transfer */
 669:Drivers/STM32F4xx_HAL_Driver/Src/stm32f4xx_hal_adc_ex.c ****       tmpADC_Common->CCR |= ADC_CCR_DDS;
 670:Drivers/STM32F4xx_HAL_Driver/Src/stm32f4xx_hal_adc_ex.c ****     }
 671:Drivers/STM32F4xx_HAL_Driver/Src/stm32f4xx_hal_adc_ex.c ****     else
 672:Drivers/STM32F4xx_HAL_Driver/Src/stm32f4xx_hal_adc_ex.c ****     {
 673:Drivers/STM32F4xx_HAL_Driver/Src/stm32f4xx_hal_adc_ex.c ****       /* Disable the selected ADC EOC rising on each regular channel conversion */
 674:Drivers/STM32F4xx_HAL_Driver/Src/stm32f4xx_hal_adc_ex.c ****       tmpADC_Common->CCR &= ~ADC_CCR_DDS;
 675:Drivers/STM32F4xx_HAL_Driver/Src/stm32f4xx_hal_adc_ex.c ****     }
 676:Drivers/STM32F4xx_HAL_Driver/Src/stm32f4xx_hal_adc_ex.c ****     
 677:Drivers/STM32F4xx_HAL_Driver/Src/stm32f4xx_hal_adc_ex.c ****     /* Enable the DMA Stream */
 678:Drivers/STM32F4xx_HAL_Driver/Src/stm32f4xx_hal_adc_ex.c ****     HAL_DMA_Start_IT(hadc->DMA_Handle, (uint32_t)&tmpADC_Common->CDR, (uint32_t)pData, Length);
 679:Drivers/STM32F4xx_HAL_Driver/Src/stm32f4xx_hal_adc_ex.c ****     
 680:Drivers/STM32F4xx_HAL_Driver/Src/stm32f4xx_hal_adc_ex.c ****     /* if no external trigger present enable software conversion of regular channels */
 681:Drivers/STM32F4xx_HAL_Driver/Src/stm32f4xx_hal_adc_ex.c ****     if((hadc->Instance->CR2 & ADC_CR2_EXTEN) == RESET) 
 682:Drivers/STM32F4xx_HAL_Driver/Src/stm32f4xx_hal_adc_ex.c ****     {
 683:Drivers/STM32F4xx_HAL_Driver/Src/stm32f4xx_hal_adc_ex.c ****       /* Enable the selected ADC software conversion for regular group */
 684:Drivers/STM32F4xx_HAL_Driver/Src/stm32f4xx_hal_adc_ex.c ****       hadc->Instance->CR2 |= (uint32_t)ADC_CR2_SWSTART;
 685:Drivers/STM32F4xx_HAL_Driver/Src/stm32f4xx_hal_adc_ex.c ****     }
 686:Drivers/STM32F4xx_HAL_Driver/Src/stm32f4xx_hal_adc_ex.c ****   }
 687:Drivers/STM32F4xx_HAL_Driver/Src/stm32f4xx_hal_adc_ex.c ****   
 688:Drivers/STM32F4xx_HAL_Driver/Src/stm32f4xx_hal_adc_ex.c ****   /* Return function status */
 689:Drivers/STM32F4xx_HAL_Driver/Src/stm32f4xx_hal_adc_ex.c ****   return HAL_OK;
 690:Drivers/STM32F4xx_HAL_Driver/Src/stm32f4xx_hal_adc_ex.c **** }
 691:Drivers/STM32F4xx_HAL_Driver/Src/stm32f4xx_hal_adc_ex.c **** 
 692:Drivers/STM32F4xx_HAL_Driver/Src/stm32f4xx_hal_adc_ex.c **** /**
 693:Drivers/STM32F4xx_HAL_Driver/Src/stm32f4xx_hal_adc_ex.c ****   * @brief  Disables ADC DMA (multi-ADC mode) and disables ADC peripheral    
 694:Drivers/STM32F4xx_HAL_Driver/Src/stm32f4xx_hal_adc_ex.c ****   * @param  hadc pointer to a ADC_HandleTypeDef structure that contains
 695:Drivers/STM32F4xx_HAL_Driver/Src/stm32f4xx_hal_adc_ex.c ****   *         the configuration information for the specified ADC.
 696:Drivers/STM32F4xx_HAL_Driver/Src/stm32f4xx_hal_adc_ex.c ****   * @retval HAL status
 697:Drivers/STM32F4xx_HAL_Driver/Src/stm32f4xx_hal_adc_ex.c ****   */
 698:Drivers/STM32F4xx_HAL_Driver/Src/stm32f4xx_hal_adc_ex.c **** HAL_StatusTypeDef HAL_ADCEx_MultiModeStop_DMA(ADC_HandleTypeDef* hadc)
 699:Drivers/STM32F4xx_HAL_Driver/Src/stm32f4xx_hal_adc_ex.c **** {
 700:Drivers/STM32F4xx_HAL_Driver/Src/stm32f4xx_hal_adc_ex.c ****   HAL_StatusTypeDef tmp_hal_status = HAL_OK;
 701:Drivers/STM32F4xx_HAL_Driver/Src/stm32f4xx_hal_adc_ex.c ****   ADC_Common_TypeDef *tmpADC_Common;
 702:Drivers/STM32F4xx_HAL_Driver/Src/stm32f4xx_hal_adc_ex.c ****   
 703:Drivers/STM32F4xx_HAL_Driver/Src/stm32f4xx_hal_adc_ex.c ****   /* Check the parameters */
 704:Drivers/STM32F4xx_HAL_Driver/Src/stm32f4xx_hal_adc_ex.c ****   assert_param(IS_ADC_ALL_INSTANCE(hadc->Instance));
 705:Drivers/STM32F4xx_HAL_Driver/Src/stm32f4xx_hal_adc_ex.c ****   
 706:Drivers/STM32F4xx_HAL_Driver/Src/stm32f4xx_hal_adc_ex.c ****   /* Process locked */
 707:Drivers/STM32F4xx_HAL_Driver/Src/stm32f4xx_hal_adc_ex.c ****   __HAL_LOCK(hadc);
 708:Drivers/STM32F4xx_HAL_Driver/Src/stm32f4xx_hal_adc_ex.c ****   
 709:Drivers/STM32F4xx_HAL_Driver/Src/stm32f4xx_hal_adc_ex.c ****   /* Stop potential conversion on going, on regular and injected groups */
 710:Drivers/STM32F4xx_HAL_Driver/Src/stm32f4xx_hal_adc_ex.c ****   /* Disable ADC peripheral */
 711:Drivers/STM32F4xx_HAL_Driver/Src/stm32f4xx_hal_adc_ex.c ****   __HAL_ADC_DISABLE(hadc);
 712:Drivers/STM32F4xx_HAL_Driver/Src/stm32f4xx_hal_adc_ex.c **** 
 713:Drivers/STM32F4xx_HAL_Driver/Src/stm32f4xx_hal_adc_ex.c ****   /* Pointer to the common control register to which is belonging hadc    */
 714:Drivers/STM32F4xx_HAL_Driver/Src/stm32f4xx_hal_adc_ex.c ****   /* (Depending on STM32F4 product, there may be up to 3 ADC and 1 common */
ARM GAS  C:\Users\LENOVO\AppData\Local\Temp\ccLbhjnu.s 			page 14


 715:Drivers/STM32F4xx_HAL_Driver/Src/stm32f4xx_hal_adc_ex.c ****   /* control register)                                                    */
 716:Drivers/STM32F4xx_HAL_Driver/Src/stm32f4xx_hal_adc_ex.c ****   tmpADC_Common = ADC_COMMON_REGISTER(hadc);
 717:Drivers/STM32F4xx_HAL_Driver/Src/stm32f4xx_hal_adc_ex.c **** 
 718:Drivers/STM32F4xx_HAL_Driver/Src/stm32f4xx_hal_adc_ex.c ****   /* Check if ADC is effectively disabled */
 719:Drivers/STM32F4xx_HAL_Driver/Src/stm32f4xx_hal_adc_ex.c ****   if(HAL_IS_BIT_CLR(hadc->Instance->CR2, ADC_CR2_ADON))
 720:Drivers/STM32F4xx_HAL_Driver/Src/stm32f4xx_hal_adc_ex.c ****   {
 721:Drivers/STM32F4xx_HAL_Driver/Src/stm32f4xx_hal_adc_ex.c ****     /* Disable the selected ADC DMA mode for multimode */
 722:Drivers/STM32F4xx_HAL_Driver/Src/stm32f4xx_hal_adc_ex.c ****     tmpADC_Common->CCR &= ~ADC_CCR_DDS;
 723:Drivers/STM32F4xx_HAL_Driver/Src/stm32f4xx_hal_adc_ex.c ****     
 724:Drivers/STM32F4xx_HAL_Driver/Src/stm32f4xx_hal_adc_ex.c ****     /* Disable the DMA channel (in case of DMA in circular mode or stop while */
 725:Drivers/STM32F4xx_HAL_Driver/Src/stm32f4xx_hal_adc_ex.c ****     /* DMA transfer is on going)                                              */
 726:Drivers/STM32F4xx_HAL_Driver/Src/stm32f4xx_hal_adc_ex.c ****     tmp_hal_status = HAL_DMA_Abort(hadc->DMA_Handle);
 727:Drivers/STM32F4xx_HAL_Driver/Src/stm32f4xx_hal_adc_ex.c ****     
 728:Drivers/STM32F4xx_HAL_Driver/Src/stm32f4xx_hal_adc_ex.c ****     /* Disable ADC overrun interrupt */
 729:Drivers/STM32F4xx_HAL_Driver/Src/stm32f4xx_hal_adc_ex.c ****     __HAL_ADC_DISABLE_IT(hadc, ADC_IT_OVR);
 730:Drivers/STM32F4xx_HAL_Driver/Src/stm32f4xx_hal_adc_ex.c ****     
 731:Drivers/STM32F4xx_HAL_Driver/Src/stm32f4xx_hal_adc_ex.c ****     /* Set ADC state */
 732:Drivers/STM32F4xx_HAL_Driver/Src/stm32f4xx_hal_adc_ex.c ****     ADC_STATE_CLR_SET(hadc->State,
 733:Drivers/STM32F4xx_HAL_Driver/Src/stm32f4xx_hal_adc_ex.c ****                       HAL_ADC_STATE_REG_BUSY | HAL_ADC_STATE_INJ_BUSY,
 734:Drivers/STM32F4xx_HAL_Driver/Src/stm32f4xx_hal_adc_ex.c ****                       HAL_ADC_STATE_READY);
 735:Drivers/STM32F4xx_HAL_Driver/Src/stm32f4xx_hal_adc_ex.c ****   }
 736:Drivers/STM32F4xx_HAL_Driver/Src/stm32f4xx_hal_adc_ex.c ****   
 737:Drivers/STM32F4xx_HAL_Driver/Src/stm32f4xx_hal_adc_ex.c ****   /* Process unlocked */
 738:Drivers/STM32F4xx_HAL_Driver/Src/stm32f4xx_hal_adc_ex.c ****   __HAL_UNLOCK(hadc);
 739:Drivers/STM32F4xx_HAL_Driver/Src/stm32f4xx_hal_adc_ex.c ****   
 740:Drivers/STM32F4xx_HAL_Driver/Src/stm32f4xx_hal_adc_ex.c ****   /* Return function status */
 741:Drivers/STM32F4xx_HAL_Driver/Src/stm32f4xx_hal_adc_ex.c ****   return tmp_hal_status;
 742:Drivers/STM32F4xx_HAL_Driver/Src/stm32f4xx_hal_adc_ex.c **** }
 743:Drivers/STM32F4xx_HAL_Driver/Src/stm32f4xx_hal_adc_ex.c **** 
 744:Drivers/STM32F4xx_HAL_Driver/Src/stm32f4xx_hal_adc_ex.c **** /**
 745:Drivers/STM32F4xx_HAL_Driver/Src/stm32f4xx_hal_adc_ex.c ****   * @brief  Returns the last ADC1, ADC2 and ADC3 regular conversions results 
 746:Drivers/STM32F4xx_HAL_Driver/Src/stm32f4xx_hal_adc_ex.c ****   *         data in the selected multi mode.
 747:Drivers/STM32F4xx_HAL_Driver/Src/stm32f4xx_hal_adc_ex.c ****   * @param  hadc pointer to a ADC_HandleTypeDef structure that contains
 748:Drivers/STM32F4xx_HAL_Driver/Src/stm32f4xx_hal_adc_ex.c ****   *         the configuration information for the specified ADC.
 749:Drivers/STM32F4xx_HAL_Driver/Src/stm32f4xx_hal_adc_ex.c ****   * @retval The converted data value.
 750:Drivers/STM32F4xx_HAL_Driver/Src/stm32f4xx_hal_adc_ex.c ****   */
 751:Drivers/STM32F4xx_HAL_Driver/Src/stm32f4xx_hal_adc_ex.c **** uint32_t HAL_ADCEx_MultiModeGetValue(ADC_HandleTypeDef* hadc)
 752:Drivers/STM32F4xx_HAL_Driver/Src/stm32f4xx_hal_adc_ex.c **** {
 753:Drivers/STM32F4xx_HAL_Driver/Src/stm32f4xx_hal_adc_ex.c ****   ADC_Common_TypeDef *tmpADC_Common;
 754:Drivers/STM32F4xx_HAL_Driver/Src/stm32f4xx_hal_adc_ex.c **** 
 755:Drivers/STM32F4xx_HAL_Driver/Src/stm32f4xx_hal_adc_ex.c ****   /* Pointer to the common control register to which is belonging hadc    */
 756:Drivers/STM32F4xx_HAL_Driver/Src/stm32f4xx_hal_adc_ex.c ****   /* (Depending on STM32F4 product, there may be up to 3 ADC and 1 common */
 757:Drivers/STM32F4xx_HAL_Driver/Src/stm32f4xx_hal_adc_ex.c ****   /* control register)                                                    */
 758:Drivers/STM32F4xx_HAL_Driver/Src/stm32f4xx_hal_adc_ex.c ****   tmpADC_Common = ADC_COMMON_REGISTER(hadc);
 759:Drivers/STM32F4xx_HAL_Driver/Src/stm32f4xx_hal_adc_ex.c **** 
 760:Drivers/STM32F4xx_HAL_Driver/Src/stm32f4xx_hal_adc_ex.c ****   /* Return the multi mode conversion value */
 761:Drivers/STM32F4xx_HAL_Driver/Src/stm32f4xx_hal_adc_ex.c ****   return tmpADC_Common->CDR;
 762:Drivers/STM32F4xx_HAL_Driver/Src/stm32f4xx_hal_adc_ex.c **** }
 763:Drivers/STM32F4xx_HAL_Driver/Src/stm32f4xx_hal_adc_ex.c **** 
 764:Drivers/STM32F4xx_HAL_Driver/Src/stm32f4xx_hal_adc_ex.c **** /**
 765:Drivers/STM32F4xx_HAL_Driver/Src/stm32f4xx_hal_adc_ex.c ****   * @brief  Injected conversion complete callback in non blocking mode 
 766:Drivers/STM32F4xx_HAL_Driver/Src/stm32f4xx_hal_adc_ex.c ****   * @param  hadc pointer to a ADC_HandleTypeDef structure that contains
 767:Drivers/STM32F4xx_HAL_Driver/Src/stm32f4xx_hal_adc_ex.c ****   *         the configuration information for the specified ADC.
 768:Drivers/STM32F4xx_HAL_Driver/Src/stm32f4xx_hal_adc_ex.c ****   * @retval None
 769:Drivers/STM32F4xx_HAL_Driver/Src/stm32f4xx_hal_adc_ex.c ****   */
 770:Drivers/STM32F4xx_HAL_Driver/Src/stm32f4xx_hal_adc_ex.c **** __weak void HAL_ADCEx_InjectedConvCpltCallback(ADC_HandleTypeDef* hadc)
 771:Drivers/STM32F4xx_HAL_Driver/Src/stm32f4xx_hal_adc_ex.c **** {
ARM GAS  C:\Users\LENOVO\AppData\Local\Temp\ccLbhjnu.s 			page 15


 772:Drivers/STM32F4xx_HAL_Driver/Src/stm32f4xx_hal_adc_ex.c ****   /* Prevent unused argument(s) compilation warning */
 773:Drivers/STM32F4xx_HAL_Driver/Src/stm32f4xx_hal_adc_ex.c ****   UNUSED(hadc);
 774:Drivers/STM32F4xx_HAL_Driver/Src/stm32f4xx_hal_adc_ex.c ****   /* NOTE : This function Should not be modified, when the callback is needed,
 775:Drivers/STM32F4xx_HAL_Driver/Src/stm32f4xx_hal_adc_ex.c ****             the HAL_ADC_InjectedConvCpltCallback could be implemented in the user file
 776:Drivers/STM32F4xx_HAL_Driver/Src/stm32f4xx_hal_adc_ex.c ****    */
 777:Drivers/STM32F4xx_HAL_Driver/Src/stm32f4xx_hal_adc_ex.c **** }
 778:Drivers/STM32F4xx_HAL_Driver/Src/stm32f4xx_hal_adc_ex.c **** 
 779:Drivers/STM32F4xx_HAL_Driver/Src/stm32f4xx_hal_adc_ex.c **** /**
 780:Drivers/STM32F4xx_HAL_Driver/Src/stm32f4xx_hal_adc_ex.c ****   * @brief  Configures for the selected ADC injected channel its corresponding
 781:Drivers/STM32F4xx_HAL_Driver/Src/stm32f4xx_hal_adc_ex.c ****   *         rank in the sequencer and its sample time.
 782:Drivers/STM32F4xx_HAL_Driver/Src/stm32f4xx_hal_adc_ex.c ****   * @param  hadc pointer to a ADC_HandleTypeDef structure that contains
 783:Drivers/STM32F4xx_HAL_Driver/Src/stm32f4xx_hal_adc_ex.c ****   *         the configuration information for the specified ADC.
 784:Drivers/STM32F4xx_HAL_Driver/Src/stm32f4xx_hal_adc_ex.c ****   * @param  sConfigInjected ADC configuration structure for injected channel. 
 785:Drivers/STM32F4xx_HAL_Driver/Src/stm32f4xx_hal_adc_ex.c ****   * @retval None
 786:Drivers/STM32F4xx_HAL_Driver/Src/stm32f4xx_hal_adc_ex.c ****   */
 787:Drivers/STM32F4xx_HAL_Driver/Src/stm32f4xx_hal_adc_ex.c **** HAL_StatusTypeDef HAL_ADCEx_InjectedConfigChannel(ADC_HandleTypeDef* hadc, ADC_InjectionConfTypeDef
 788:Drivers/STM32F4xx_HAL_Driver/Src/stm32f4xx_hal_adc_ex.c **** {
 789:Drivers/STM32F4xx_HAL_Driver/Src/stm32f4xx_hal_adc_ex.c ****   
 790:Drivers/STM32F4xx_HAL_Driver/Src/stm32f4xx_hal_adc_ex.c **** #ifdef USE_FULL_ASSERT  
 791:Drivers/STM32F4xx_HAL_Driver/Src/stm32f4xx_hal_adc_ex.c ****   uint32_t tmp = 0U;
 792:Drivers/STM32F4xx_HAL_Driver/Src/stm32f4xx_hal_adc_ex.c ****   
 793:Drivers/STM32F4xx_HAL_Driver/Src/stm32f4xx_hal_adc_ex.c **** #endif /* USE_FULL_ASSERT  */
 794:Drivers/STM32F4xx_HAL_Driver/Src/stm32f4xx_hal_adc_ex.c **** 
 795:Drivers/STM32F4xx_HAL_Driver/Src/stm32f4xx_hal_adc_ex.c ****   ADC_Common_TypeDef *tmpADC_Common;
 796:Drivers/STM32F4xx_HAL_Driver/Src/stm32f4xx_hal_adc_ex.c **** 
 797:Drivers/STM32F4xx_HAL_Driver/Src/stm32f4xx_hal_adc_ex.c ****   /* Check the parameters */
 798:Drivers/STM32F4xx_HAL_Driver/Src/stm32f4xx_hal_adc_ex.c ****   assert_param(IS_ADC_CHANNEL(sConfigInjected->InjectedChannel));
 799:Drivers/STM32F4xx_HAL_Driver/Src/stm32f4xx_hal_adc_ex.c ****   assert_param(IS_ADC_INJECTED_RANK(sConfigInjected->InjectedRank));
 800:Drivers/STM32F4xx_HAL_Driver/Src/stm32f4xx_hal_adc_ex.c ****   assert_param(IS_ADC_SAMPLE_TIME(sConfigInjected->InjectedSamplingTime));
 801:Drivers/STM32F4xx_HAL_Driver/Src/stm32f4xx_hal_adc_ex.c ****   assert_param(IS_ADC_EXT_INJEC_TRIG(sConfigInjected->ExternalTrigInjecConv));
 802:Drivers/STM32F4xx_HAL_Driver/Src/stm32f4xx_hal_adc_ex.c ****   assert_param(IS_ADC_INJECTED_LENGTH(sConfigInjected->InjectedNbrOfConversion));
 803:Drivers/STM32F4xx_HAL_Driver/Src/stm32f4xx_hal_adc_ex.c ****   assert_param(IS_FUNCTIONAL_STATE(sConfigInjected->AutoInjectedConv));
 804:Drivers/STM32F4xx_HAL_Driver/Src/stm32f4xx_hal_adc_ex.c ****   assert_param(IS_FUNCTIONAL_STATE(sConfigInjected->InjectedDiscontinuousConvMode));
 805:Drivers/STM32F4xx_HAL_Driver/Src/stm32f4xx_hal_adc_ex.c **** 
 806:Drivers/STM32F4xx_HAL_Driver/Src/stm32f4xx_hal_adc_ex.c **** #ifdef USE_FULL_ASSERT
 807:Drivers/STM32F4xx_HAL_Driver/Src/stm32f4xx_hal_adc_ex.c ****   tmp = ADC_GET_RESOLUTION(hadc);
 808:Drivers/STM32F4xx_HAL_Driver/Src/stm32f4xx_hal_adc_ex.c ****   assert_param(IS_ADC_RANGE(tmp, sConfigInjected->InjectedOffset));
 809:Drivers/STM32F4xx_HAL_Driver/Src/stm32f4xx_hal_adc_ex.c **** #endif /* USE_FULL_ASSERT  */
 810:Drivers/STM32F4xx_HAL_Driver/Src/stm32f4xx_hal_adc_ex.c **** 
 811:Drivers/STM32F4xx_HAL_Driver/Src/stm32f4xx_hal_adc_ex.c ****   if(sConfigInjected->ExternalTrigInjecConv != ADC_INJECTED_SOFTWARE_START)
 812:Drivers/STM32F4xx_HAL_Driver/Src/stm32f4xx_hal_adc_ex.c ****   {
 813:Drivers/STM32F4xx_HAL_Driver/Src/stm32f4xx_hal_adc_ex.c ****     assert_param(IS_ADC_EXT_INJEC_TRIG_EDGE(sConfigInjected->ExternalTrigInjecConvEdge));
 814:Drivers/STM32F4xx_HAL_Driver/Src/stm32f4xx_hal_adc_ex.c ****   }
 815:Drivers/STM32F4xx_HAL_Driver/Src/stm32f4xx_hal_adc_ex.c **** 
 816:Drivers/STM32F4xx_HAL_Driver/Src/stm32f4xx_hal_adc_ex.c ****   /* Process locked */
 817:Drivers/STM32F4xx_HAL_Driver/Src/stm32f4xx_hal_adc_ex.c ****   __HAL_LOCK(hadc);
 818:Drivers/STM32F4xx_HAL_Driver/Src/stm32f4xx_hal_adc_ex.c ****   
 819:Drivers/STM32F4xx_HAL_Driver/Src/stm32f4xx_hal_adc_ex.c ****   /* if ADC_Channel_10 ... ADC_Channel_18 is selected */
 820:Drivers/STM32F4xx_HAL_Driver/Src/stm32f4xx_hal_adc_ex.c ****   if (sConfigInjected->InjectedChannel > ADC_CHANNEL_9)
 821:Drivers/STM32F4xx_HAL_Driver/Src/stm32f4xx_hal_adc_ex.c ****   {
 822:Drivers/STM32F4xx_HAL_Driver/Src/stm32f4xx_hal_adc_ex.c ****     /* Clear the old sample time */
 823:Drivers/STM32F4xx_HAL_Driver/Src/stm32f4xx_hal_adc_ex.c ****     hadc->Instance->SMPR1 &= ~ADC_SMPR1(ADC_SMPR1_SMP10, sConfigInjected->InjectedChannel);
 824:Drivers/STM32F4xx_HAL_Driver/Src/stm32f4xx_hal_adc_ex.c ****     
 825:Drivers/STM32F4xx_HAL_Driver/Src/stm32f4xx_hal_adc_ex.c ****     /* Set the new sample time */
 826:Drivers/STM32F4xx_HAL_Driver/Src/stm32f4xx_hal_adc_ex.c ****     hadc->Instance->SMPR1 |= ADC_SMPR1(sConfigInjected->InjectedSamplingTime, sConfigInjected->Inje
 827:Drivers/STM32F4xx_HAL_Driver/Src/stm32f4xx_hal_adc_ex.c ****   }
 828:Drivers/STM32F4xx_HAL_Driver/Src/stm32f4xx_hal_adc_ex.c ****   else /* ADC_Channel include in ADC_Channel_[0..9] */
ARM GAS  C:\Users\LENOVO\AppData\Local\Temp\ccLbhjnu.s 			page 16


 829:Drivers/STM32F4xx_HAL_Driver/Src/stm32f4xx_hal_adc_ex.c ****   {
 830:Drivers/STM32F4xx_HAL_Driver/Src/stm32f4xx_hal_adc_ex.c ****     /* Clear the old sample time */
 831:Drivers/STM32F4xx_HAL_Driver/Src/stm32f4xx_hal_adc_ex.c ****     hadc->Instance->SMPR2 &= ~ADC_SMPR2(ADC_SMPR2_SMP0, sConfigInjected->InjectedChannel);
 832:Drivers/STM32F4xx_HAL_Driver/Src/stm32f4xx_hal_adc_ex.c ****     
 833:Drivers/STM32F4xx_HAL_Driver/Src/stm32f4xx_hal_adc_ex.c ****     /* Set the new sample time */
 834:Drivers/STM32F4xx_HAL_Driver/Src/stm32f4xx_hal_adc_ex.c ****     hadc->Instance->SMPR2 |= ADC_SMPR2(sConfigInjected->InjectedSamplingTime, sConfigInjected->Inje
 835:Drivers/STM32F4xx_HAL_Driver/Src/stm32f4xx_hal_adc_ex.c ****   }
 836:Drivers/STM32F4xx_HAL_Driver/Src/stm32f4xx_hal_adc_ex.c ****   
 837:Drivers/STM32F4xx_HAL_Driver/Src/stm32f4xx_hal_adc_ex.c ****   /*---------------------------- ADCx JSQR Configuration -----------------*/
 838:Drivers/STM32F4xx_HAL_Driver/Src/stm32f4xx_hal_adc_ex.c ****   hadc->Instance->JSQR &= ~(ADC_JSQR_JL);
 839:Drivers/STM32F4xx_HAL_Driver/Src/stm32f4xx_hal_adc_ex.c ****   hadc->Instance->JSQR |=  ADC_SQR1(sConfigInjected->InjectedNbrOfConversion);
 840:Drivers/STM32F4xx_HAL_Driver/Src/stm32f4xx_hal_adc_ex.c ****   
 841:Drivers/STM32F4xx_HAL_Driver/Src/stm32f4xx_hal_adc_ex.c ****   /* Rank configuration */
 842:Drivers/STM32F4xx_HAL_Driver/Src/stm32f4xx_hal_adc_ex.c ****   
 843:Drivers/STM32F4xx_HAL_Driver/Src/stm32f4xx_hal_adc_ex.c ****   /* Clear the old SQx bits for the selected rank */
 844:Drivers/STM32F4xx_HAL_Driver/Src/stm32f4xx_hal_adc_ex.c ****   hadc->Instance->JSQR &= ~ADC_JSQR(ADC_JSQR_JSQ1, sConfigInjected->InjectedRank,sConfigInjected->I
 845:Drivers/STM32F4xx_HAL_Driver/Src/stm32f4xx_hal_adc_ex.c ****    
 846:Drivers/STM32F4xx_HAL_Driver/Src/stm32f4xx_hal_adc_ex.c ****   /* Set the SQx bits for the selected rank */
 847:Drivers/STM32F4xx_HAL_Driver/Src/stm32f4xx_hal_adc_ex.c ****   hadc->Instance->JSQR |= ADC_JSQR(sConfigInjected->InjectedChannel, sConfigInjected->InjectedRank,
 848:Drivers/STM32F4xx_HAL_Driver/Src/stm32f4xx_hal_adc_ex.c **** 
 849:Drivers/STM32F4xx_HAL_Driver/Src/stm32f4xx_hal_adc_ex.c ****   /* Enable external trigger if trigger selection is different of software  */
 850:Drivers/STM32F4xx_HAL_Driver/Src/stm32f4xx_hal_adc_ex.c ****   /* start.                                                                 */
 851:Drivers/STM32F4xx_HAL_Driver/Src/stm32f4xx_hal_adc_ex.c ****   /* Note: This configuration keeps the hardware feature of parameter       */
 852:Drivers/STM32F4xx_HAL_Driver/Src/stm32f4xx_hal_adc_ex.c ****   /*       ExternalTrigConvEdge "trigger edge none" equivalent to           */
 853:Drivers/STM32F4xx_HAL_Driver/Src/stm32f4xx_hal_adc_ex.c ****   /*       software start.                                                  */ 
 854:Drivers/STM32F4xx_HAL_Driver/Src/stm32f4xx_hal_adc_ex.c ****   if(sConfigInjected->ExternalTrigInjecConv != ADC_INJECTED_SOFTWARE_START)
 855:Drivers/STM32F4xx_HAL_Driver/Src/stm32f4xx_hal_adc_ex.c ****   {  
 856:Drivers/STM32F4xx_HAL_Driver/Src/stm32f4xx_hal_adc_ex.c ****     /* Select external trigger to start conversion */
 857:Drivers/STM32F4xx_HAL_Driver/Src/stm32f4xx_hal_adc_ex.c ****     hadc->Instance->CR2 &= ~(ADC_CR2_JEXTSEL);
 858:Drivers/STM32F4xx_HAL_Driver/Src/stm32f4xx_hal_adc_ex.c ****     hadc->Instance->CR2 |=  sConfigInjected->ExternalTrigInjecConv;
 859:Drivers/STM32F4xx_HAL_Driver/Src/stm32f4xx_hal_adc_ex.c ****     
 860:Drivers/STM32F4xx_HAL_Driver/Src/stm32f4xx_hal_adc_ex.c ****     /* Select external trigger polarity */
 861:Drivers/STM32F4xx_HAL_Driver/Src/stm32f4xx_hal_adc_ex.c ****     hadc->Instance->CR2 &= ~(ADC_CR2_JEXTEN);
 862:Drivers/STM32F4xx_HAL_Driver/Src/stm32f4xx_hal_adc_ex.c ****     hadc->Instance->CR2 |= sConfigInjected->ExternalTrigInjecConvEdge;
 863:Drivers/STM32F4xx_HAL_Driver/Src/stm32f4xx_hal_adc_ex.c ****   }
 864:Drivers/STM32F4xx_HAL_Driver/Src/stm32f4xx_hal_adc_ex.c ****   else
 865:Drivers/STM32F4xx_HAL_Driver/Src/stm32f4xx_hal_adc_ex.c ****   {
 866:Drivers/STM32F4xx_HAL_Driver/Src/stm32f4xx_hal_adc_ex.c ****     /* Reset the external trigger */
 867:Drivers/STM32F4xx_HAL_Driver/Src/stm32f4xx_hal_adc_ex.c ****     hadc->Instance->CR2 &= ~(ADC_CR2_JEXTSEL);
 868:Drivers/STM32F4xx_HAL_Driver/Src/stm32f4xx_hal_adc_ex.c ****     hadc->Instance->CR2 &= ~(ADC_CR2_JEXTEN);  
 869:Drivers/STM32F4xx_HAL_Driver/Src/stm32f4xx_hal_adc_ex.c ****   }
 870:Drivers/STM32F4xx_HAL_Driver/Src/stm32f4xx_hal_adc_ex.c ****   
 871:Drivers/STM32F4xx_HAL_Driver/Src/stm32f4xx_hal_adc_ex.c ****   if (sConfigInjected->AutoInjectedConv != DISABLE)
 872:Drivers/STM32F4xx_HAL_Driver/Src/stm32f4xx_hal_adc_ex.c ****   {
 873:Drivers/STM32F4xx_HAL_Driver/Src/stm32f4xx_hal_adc_ex.c ****     /* Enable the selected ADC automatic injected group conversion */
 874:Drivers/STM32F4xx_HAL_Driver/Src/stm32f4xx_hal_adc_ex.c ****     hadc->Instance->CR1 |= ADC_CR1_JAUTO;
 875:Drivers/STM32F4xx_HAL_Driver/Src/stm32f4xx_hal_adc_ex.c ****   }
 876:Drivers/STM32F4xx_HAL_Driver/Src/stm32f4xx_hal_adc_ex.c ****   else
 877:Drivers/STM32F4xx_HAL_Driver/Src/stm32f4xx_hal_adc_ex.c ****   {
 878:Drivers/STM32F4xx_HAL_Driver/Src/stm32f4xx_hal_adc_ex.c ****     /* Disable the selected ADC automatic injected group conversion */
 879:Drivers/STM32F4xx_HAL_Driver/Src/stm32f4xx_hal_adc_ex.c ****     hadc->Instance->CR1 &= ~(ADC_CR1_JAUTO);
 880:Drivers/STM32F4xx_HAL_Driver/Src/stm32f4xx_hal_adc_ex.c ****   }
 881:Drivers/STM32F4xx_HAL_Driver/Src/stm32f4xx_hal_adc_ex.c ****   
 882:Drivers/STM32F4xx_HAL_Driver/Src/stm32f4xx_hal_adc_ex.c ****   if (sConfigInjected->InjectedDiscontinuousConvMode != DISABLE)
 883:Drivers/STM32F4xx_HAL_Driver/Src/stm32f4xx_hal_adc_ex.c ****   {
 884:Drivers/STM32F4xx_HAL_Driver/Src/stm32f4xx_hal_adc_ex.c ****     /* Enable the selected ADC injected discontinuous mode */
 885:Drivers/STM32F4xx_HAL_Driver/Src/stm32f4xx_hal_adc_ex.c ****     hadc->Instance->CR1 |= ADC_CR1_JDISCEN;
ARM GAS  C:\Users\LENOVO\AppData\Local\Temp\ccLbhjnu.s 			page 17


 886:Drivers/STM32F4xx_HAL_Driver/Src/stm32f4xx_hal_adc_ex.c ****   }
 887:Drivers/STM32F4xx_HAL_Driver/Src/stm32f4xx_hal_adc_ex.c ****   else
 888:Drivers/STM32F4xx_HAL_Driver/Src/stm32f4xx_hal_adc_ex.c ****   {
 889:Drivers/STM32F4xx_HAL_Driver/Src/stm32f4xx_hal_adc_ex.c ****     /* Disable the selected ADC injected discontinuous mode */
 890:Drivers/STM32F4xx_HAL_Driver/Src/stm32f4xx_hal_adc_ex.c ****     hadc->Instance->CR1 &= ~(ADC_CR1_JDISCEN);
 891:Drivers/STM32F4xx_HAL_Driver/Src/stm32f4xx_hal_adc_ex.c ****   }
 892:Drivers/STM32F4xx_HAL_Driver/Src/stm32f4xx_hal_adc_ex.c ****   
 893:Drivers/STM32F4xx_HAL_Driver/Src/stm32f4xx_hal_adc_ex.c ****   switch(sConfigInjected->InjectedRank)
 894:Drivers/STM32F4xx_HAL_Driver/Src/stm32f4xx_hal_adc_ex.c ****   {
 895:Drivers/STM32F4xx_HAL_Driver/Src/stm32f4xx_hal_adc_ex.c ****     case 1U:
 896:Drivers/STM32F4xx_HAL_Driver/Src/stm32f4xx_hal_adc_ex.c ****       /* Set injected channel 1 offset */
 897:Drivers/STM32F4xx_HAL_Driver/Src/stm32f4xx_hal_adc_ex.c ****       hadc->Instance->JOFR1 &= ~(ADC_JOFR1_JOFFSET1);
 898:Drivers/STM32F4xx_HAL_Driver/Src/stm32f4xx_hal_adc_ex.c ****       hadc->Instance->JOFR1 |= sConfigInjected->InjectedOffset;
 899:Drivers/STM32F4xx_HAL_Driver/Src/stm32f4xx_hal_adc_ex.c ****       break;
 900:Drivers/STM32F4xx_HAL_Driver/Src/stm32f4xx_hal_adc_ex.c ****     case 2U:
 901:Drivers/STM32F4xx_HAL_Driver/Src/stm32f4xx_hal_adc_ex.c ****       /* Set injected channel 2 offset */
 902:Drivers/STM32F4xx_HAL_Driver/Src/stm32f4xx_hal_adc_ex.c ****       hadc->Instance->JOFR2 &= ~(ADC_JOFR2_JOFFSET2);
 903:Drivers/STM32F4xx_HAL_Driver/Src/stm32f4xx_hal_adc_ex.c ****       hadc->Instance->JOFR2 |= sConfigInjected->InjectedOffset;
 904:Drivers/STM32F4xx_HAL_Driver/Src/stm32f4xx_hal_adc_ex.c ****       break;
 905:Drivers/STM32F4xx_HAL_Driver/Src/stm32f4xx_hal_adc_ex.c ****     case 3U:
 906:Drivers/STM32F4xx_HAL_Driver/Src/stm32f4xx_hal_adc_ex.c ****       /* Set injected channel 3 offset */
 907:Drivers/STM32F4xx_HAL_Driver/Src/stm32f4xx_hal_adc_ex.c ****       hadc->Instance->JOFR3 &= ~(ADC_JOFR3_JOFFSET3);
 908:Drivers/STM32F4xx_HAL_Driver/Src/stm32f4xx_hal_adc_ex.c ****       hadc->Instance->JOFR3 |= sConfigInjected->InjectedOffset;
 909:Drivers/STM32F4xx_HAL_Driver/Src/stm32f4xx_hal_adc_ex.c ****       break;
 910:Drivers/STM32F4xx_HAL_Driver/Src/stm32f4xx_hal_adc_ex.c ****     default:
 911:Drivers/STM32F4xx_HAL_Driver/Src/stm32f4xx_hal_adc_ex.c ****       /* Set injected channel 4 offset */
 912:Drivers/STM32F4xx_HAL_Driver/Src/stm32f4xx_hal_adc_ex.c ****       hadc->Instance->JOFR4 &= ~(ADC_JOFR4_JOFFSET4);
 913:Drivers/STM32F4xx_HAL_Driver/Src/stm32f4xx_hal_adc_ex.c ****       hadc->Instance->JOFR4 |= sConfigInjected->InjectedOffset;
 914:Drivers/STM32F4xx_HAL_Driver/Src/stm32f4xx_hal_adc_ex.c ****       break;
 915:Drivers/STM32F4xx_HAL_Driver/Src/stm32f4xx_hal_adc_ex.c ****   }
 916:Drivers/STM32F4xx_HAL_Driver/Src/stm32f4xx_hal_adc_ex.c **** 
 917:Drivers/STM32F4xx_HAL_Driver/Src/stm32f4xx_hal_adc_ex.c ****   /* Pointer to the common control register to which is belonging hadc    */
 918:Drivers/STM32F4xx_HAL_Driver/Src/stm32f4xx_hal_adc_ex.c ****   /* (Depending on STM32F4 product, there may be up to 3 ADC and 1 common */
 919:Drivers/STM32F4xx_HAL_Driver/Src/stm32f4xx_hal_adc_ex.c ****   /* control register)                                                    */
 920:Drivers/STM32F4xx_HAL_Driver/Src/stm32f4xx_hal_adc_ex.c ****     tmpADC_Common = ADC_COMMON_REGISTER(hadc);
 921:Drivers/STM32F4xx_HAL_Driver/Src/stm32f4xx_hal_adc_ex.c **** 
 922:Drivers/STM32F4xx_HAL_Driver/Src/stm32f4xx_hal_adc_ex.c ****   /* if ADC1 Channel_18 is selected enable VBAT Channel */
 923:Drivers/STM32F4xx_HAL_Driver/Src/stm32f4xx_hal_adc_ex.c ****   if ((hadc->Instance == ADC1) && (sConfigInjected->InjectedChannel == ADC_CHANNEL_VBAT))
 924:Drivers/STM32F4xx_HAL_Driver/Src/stm32f4xx_hal_adc_ex.c ****   {
 925:Drivers/STM32F4xx_HAL_Driver/Src/stm32f4xx_hal_adc_ex.c ****     /* Enable the VBAT channel*/
 926:Drivers/STM32F4xx_HAL_Driver/Src/stm32f4xx_hal_adc_ex.c ****     tmpADC_Common->CCR |= ADC_CCR_VBATE;
 927:Drivers/STM32F4xx_HAL_Driver/Src/stm32f4xx_hal_adc_ex.c ****   }
 928:Drivers/STM32F4xx_HAL_Driver/Src/stm32f4xx_hal_adc_ex.c ****   
 929:Drivers/STM32F4xx_HAL_Driver/Src/stm32f4xx_hal_adc_ex.c ****   /* if ADC1 Channel_16 or Channel_17 is selected enable TSVREFE Channel(Temperature sensor and VRE
 930:Drivers/STM32F4xx_HAL_Driver/Src/stm32f4xx_hal_adc_ex.c ****   if ((hadc->Instance == ADC1) && ((sConfigInjected->InjectedChannel == ADC_CHANNEL_TEMPSENSOR) || 
 931:Drivers/STM32F4xx_HAL_Driver/Src/stm32f4xx_hal_adc_ex.c ****   {
 932:Drivers/STM32F4xx_HAL_Driver/Src/stm32f4xx_hal_adc_ex.c ****     /* Enable the TSVREFE channel*/
 933:Drivers/STM32F4xx_HAL_Driver/Src/stm32f4xx_hal_adc_ex.c ****     tmpADC_Common->CCR |= ADC_CCR_TSVREFE;
 934:Drivers/STM32F4xx_HAL_Driver/Src/stm32f4xx_hal_adc_ex.c ****   }
 935:Drivers/STM32F4xx_HAL_Driver/Src/stm32f4xx_hal_adc_ex.c ****   
 936:Drivers/STM32F4xx_HAL_Driver/Src/stm32f4xx_hal_adc_ex.c ****   /* Process unlocked */
 937:Drivers/STM32F4xx_HAL_Driver/Src/stm32f4xx_hal_adc_ex.c ****   __HAL_UNLOCK(hadc);
 938:Drivers/STM32F4xx_HAL_Driver/Src/stm32f4xx_hal_adc_ex.c ****   
 939:Drivers/STM32F4xx_HAL_Driver/Src/stm32f4xx_hal_adc_ex.c ****   /* Return function status */
 940:Drivers/STM32F4xx_HAL_Driver/Src/stm32f4xx_hal_adc_ex.c ****   return HAL_OK;
 941:Drivers/STM32F4xx_HAL_Driver/Src/stm32f4xx_hal_adc_ex.c **** }
 942:Drivers/STM32F4xx_HAL_Driver/Src/stm32f4xx_hal_adc_ex.c **** 
ARM GAS  C:\Users\LENOVO\AppData\Local\Temp\ccLbhjnu.s 			page 18


 943:Drivers/STM32F4xx_HAL_Driver/Src/stm32f4xx_hal_adc_ex.c **** /**
 944:Drivers/STM32F4xx_HAL_Driver/Src/stm32f4xx_hal_adc_ex.c ****   * @brief  Configures the ADC multi-mode 
 945:Drivers/STM32F4xx_HAL_Driver/Src/stm32f4xx_hal_adc_ex.c ****   * @param  hadc       pointer to a ADC_HandleTypeDef structure that contains
 946:Drivers/STM32F4xx_HAL_Driver/Src/stm32f4xx_hal_adc_ex.c ****   *                     the configuration information for the specified ADC.  
 947:Drivers/STM32F4xx_HAL_Driver/Src/stm32f4xx_hal_adc_ex.c ****   * @param  multimode  pointer to an ADC_MultiModeTypeDef structure that contains 
 948:Drivers/STM32F4xx_HAL_Driver/Src/stm32f4xx_hal_adc_ex.c ****   *                     the configuration information for  multimode.
 949:Drivers/STM32F4xx_HAL_Driver/Src/stm32f4xx_hal_adc_ex.c ****   * @retval HAL status
 950:Drivers/STM32F4xx_HAL_Driver/Src/stm32f4xx_hal_adc_ex.c ****   */
 951:Drivers/STM32F4xx_HAL_Driver/Src/stm32f4xx_hal_adc_ex.c **** HAL_StatusTypeDef HAL_ADCEx_MultiModeConfigChannel(ADC_HandleTypeDef* hadc, ADC_MultiModeTypeDef* m
 952:Drivers/STM32F4xx_HAL_Driver/Src/stm32f4xx_hal_adc_ex.c **** {
 953:Drivers/STM32F4xx_HAL_Driver/Src/stm32f4xx_hal_adc_ex.c **** 
 954:Drivers/STM32F4xx_HAL_Driver/Src/stm32f4xx_hal_adc_ex.c ****   ADC_Common_TypeDef *tmpADC_Common;
 955:Drivers/STM32F4xx_HAL_Driver/Src/stm32f4xx_hal_adc_ex.c **** 
 956:Drivers/STM32F4xx_HAL_Driver/Src/stm32f4xx_hal_adc_ex.c ****   /* Check the parameters */
 957:Drivers/STM32F4xx_HAL_Driver/Src/stm32f4xx_hal_adc_ex.c ****   assert_param(IS_ADC_MODE(multimode->Mode));
 958:Drivers/STM32F4xx_HAL_Driver/Src/stm32f4xx_hal_adc_ex.c ****   assert_param(IS_ADC_DMA_ACCESS_MODE(multimode->DMAAccessMode));
 959:Drivers/STM32F4xx_HAL_Driver/Src/stm32f4xx_hal_adc_ex.c ****   assert_param(IS_ADC_SAMPLING_DELAY(multimode->TwoSamplingDelay));
 960:Drivers/STM32F4xx_HAL_Driver/Src/stm32f4xx_hal_adc_ex.c ****   
 961:Drivers/STM32F4xx_HAL_Driver/Src/stm32f4xx_hal_adc_ex.c ****   /* Process locked */
 962:Drivers/STM32F4xx_HAL_Driver/Src/stm32f4xx_hal_adc_ex.c ****   __HAL_LOCK(hadc);
 963:Drivers/STM32F4xx_HAL_Driver/Src/stm32f4xx_hal_adc_ex.c **** 
 964:Drivers/STM32F4xx_HAL_Driver/Src/stm32f4xx_hal_adc_ex.c ****   /* Pointer to the common control register to which is belonging hadc    */
 965:Drivers/STM32F4xx_HAL_Driver/Src/stm32f4xx_hal_adc_ex.c ****   /* (Depending on STM32F4 product, there may be up to 3 ADC and 1 common */
 966:Drivers/STM32F4xx_HAL_Driver/Src/stm32f4xx_hal_adc_ex.c ****   /* control register)                                                    */
 967:Drivers/STM32F4xx_HAL_Driver/Src/stm32f4xx_hal_adc_ex.c ****   tmpADC_Common = ADC_COMMON_REGISTER(hadc);
 968:Drivers/STM32F4xx_HAL_Driver/Src/stm32f4xx_hal_adc_ex.c **** 
 969:Drivers/STM32F4xx_HAL_Driver/Src/stm32f4xx_hal_adc_ex.c ****   /* Set ADC mode */
 970:Drivers/STM32F4xx_HAL_Driver/Src/stm32f4xx_hal_adc_ex.c ****   tmpADC_Common->CCR &= ~(ADC_CCR_MULTI);
 971:Drivers/STM32F4xx_HAL_Driver/Src/stm32f4xx_hal_adc_ex.c ****   tmpADC_Common->CCR |= multimode->Mode;
 972:Drivers/STM32F4xx_HAL_Driver/Src/stm32f4xx_hal_adc_ex.c ****   
 973:Drivers/STM32F4xx_HAL_Driver/Src/stm32f4xx_hal_adc_ex.c ****   /* Set the ADC DMA access mode */
 974:Drivers/STM32F4xx_HAL_Driver/Src/stm32f4xx_hal_adc_ex.c ****   tmpADC_Common->CCR &= ~(ADC_CCR_DMA);
 975:Drivers/STM32F4xx_HAL_Driver/Src/stm32f4xx_hal_adc_ex.c ****   tmpADC_Common->CCR |= multimode->DMAAccessMode;
 976:Drivers/STM32F4xx_HAL_Driver/Src/stm32f4xx_hal_adc_ex.c ****   
 977:Drivers/STM32F4xx_HAL_Driver/Src/stm32f4xx_hal_adc_ex.c ****   /* Set delay between two sampling phases */
 978:Drivers/STM32F4xx_HAL_Driver/Src/stm32f4xx_hal_adc_ex.c ****   tmpADC_Common->CCR &= ~(ADC_CCR_DELAY);
 979:Drivers/STM32F4xx_HAL_Driver/Src/stm32f4xx_hal_adc_ex.c ****   tmpADC_Common->CCR |= multimode->TwoSamplingDelay;
 980:Drivers/STM32F4xx_HAL_Driver/Src/stm32f4xx_hal_adc_ex.c ****   
 981:Drivers/STM32F4xx_HAL_Driver/Src/stm32f4xx_hal_adc_ex.c ****   /* Process unlocked */
 982:Drivers/STM32F4xx_HAL_Driver/Src/stm32f4xx_hal_adc_ex.c ****   __HAL_UNLOCK(hadc);
 983:Drivers/STM32F4xx_HAL_Driver/Src/stm32f4xx_hal_adc_ex.c ****   
 984:Drivers/STM32F4xx_HAL_Driver/Src/stm32f4xx_hal_adc_ex.c ****   /* Return function status */
 985:Drivers/STM32F4xx_HAL_Driver/Src/stm32f4xx_hal_adc_ex.c ****   return HAL_OK;
 986:Drivers/STM32F4xx_HAL_Driver/Src/stm32f4xx_hal_adc_ex.c **** }
 987:Drivers/STM32F4xx_HAL_Driver/Src/stm32f4xx_hal_adc_ex.c **** 
 988:Drivers/STM32F4xx_HAL_Driver/Src/stm32f4xx_hal_adc_ex.c **** /**
 989:Drivers/STM32F4xx_HAL_Driver/Src/stm32f4xx_hal_adc_ex.c ****   * @}
 990:Drivers/STM32F4xx_HAL_Driver/Src/stm32f4xx_hal_adc_ex.c ****   */
 991:Drivers/STM32F4xx_HAL_Driver/Src/stm32f4xx_hal_adc_ex.c **** 
 992:Drivers/STM32F4xx_HAL_Driver/Src/stm32f4xx_hal_adc_ex.c **** /**
 993:Drivers/STM32F4xx_HAL_Driver/Src/stm32f4xx_hal_adc_ex.c ****   * @brief  DMA transfer complete callback. 
 994:Drivers/STM32F4xx_HAL_Driver/Src/stm32f4xx_hal_adc_ex.c ****   * @param  hdma pointer to a DMA_HandleTypeDef structure that contains
 995:Drivers/STM32F4xx_HAL_Driver/Src/stm32f4xx_hal_adc_ex.c ****   *                the configuration information for the specified DMA module.
 996:Drivers/STM32F4xx_HAL_Driver/Src/stm32f4xx_hal_adc_ex.c ****   * @retval None
 997:Drivers/STM32F4xx_HAL_Driver/Src/stm32f4xx_hal_adc_ex.c ****   */
 998:Drivers/STM32F4xx_HAL_Driver/Src/stm32f4xx_hal_adc_ex.c **** static void ADC_MultiModeDMAConvCplt(DMA_HandleTypeDef *hdma)   
 999:Drivers/STM32F4xx_HAL_Driver/Src/stm32f4xx_hal_adc_ex.c **** {
ARM GAS  C:\Users\LENOVO\AppData\Local\Temp\ccLbhjnu.s 			page 19


1000:Drivers/STM32F4xx_HAL_Driver/Src/stm32f4xx_hal_adc_ex.c ****   /* Retrieve ADC handle corresponding to current DMA handle */
1001:Drivers/STM32F4xx_HAL_Driver/Src/stm32f4xx_hal_adc_ex.c ****   ADC_HandleTypeDef* hadc = ( ADC_HandleTypeDef* )((DMA_HandleTypeDef* )hdma)->Parent;
1002:Drivers/STM32F4xx_HAL_Driver/Src/stm32f4xx_hal_adc_ex.c ****   
1003:Drivers/STM32F4xx_HAL_Driver/Src/stm32f4xx_hal_adc_ex.c ****   /* Update state machine on conversion status if not in error state */
1004:Drivers/STM32F4xx_HAL_Driver/Src/stm32f4xx_hal_adc_ex.c ****   if (HAL_IS_BIT_CLR(hadc->State, HAL_ADC_STATE_ERROR_INTERNAL | HAL_ADC_STATE_ERROR_DMA))
1005:Drivers/STM32F4xx_HAL_Driver/Src/stm32f4xx_hal_adc_ex.c ****   {
1006:Drivers/STM32F4xx_HAL_Driver/Src/stm32f4xx_hal_adc_ex.c ****     /* Update ADC state machine */
1007:Drivers/STM32F4xx_HAL_Driver/Src/stm32f4xx_hal_adc_ex.c ****     SET_BIT(hadc->State, HAL_ADC_STATE_REG_EOC);
1008:Drivers/STM32F4xx_HAL_Driver/Src/stm32f4xx_hal_adc_ex.c ****     
1009:Drivers/STM32F4xx_HAL_Driver/Src/stm32f4xx_hal_adc_ex.c ****     /* Determine whether any further conversion upcoming on group regular   */
1010:Drivers/STM32F4xx_HAL_Driver/Src/stm32f4xx_hal_adc_ex.c ****     /* by external trigger, continuous mode or scan sequence on going.      */
1011:Drivers/STM32F4xx_HAL_Driver/Src/stm32f4xx_hal_adc_ex.c ****     /* Note: On STM32F4, there is no independent flag of end of sequence.   */
1012:Drivers/STM32F4xx_HAL_Driver/Src/stm32f4xx_hal_adc_ex.c ****     /*       The test of scan sequence on going is done either with scan    */
1013:Drivers/STM32F4xx_HAL_Driver/Src/stm32f4xx_hal_adc_ex.c ****     /*       sequence disabled or with end of conversion flag set to        */
1014:Drivers/STM32F4xx_HAL_Driver/Src/stm32f4xx_hal_adc_ex.c ****     /*       of end of sequence.                                            */
1015:Drivers/STM32F4xx_HAL_Driver/Src/stm32f4xx_hal_adc_ex.c ****     if(ADC_IS_SOFTWARE_START_REGULAR(hadc)                   &&
1016:Drivers/STM32F4xx_HAL_Driver/Src/stm32f4xx_hal_adc_ex.c ****        (hadc->Init.ContinuousConvMode == DISABLE)            &&
1017:Drivers/STM32F4xx_HAL_Driver/Src/stm32f4xx_hal_adc_ex.c ****        (HAL_IS_BIT_CLR(hadc->Instance->SQR1, ADC_SQR1_L) || 
1018:Drivers/STM32F4xx_HAL_Driver/Src/stm32f4xx_hal_adc_ex.c ****         HAL_IS_BIT_CLR(hadc->Instance->CR2, ADC_CR2_EOCS)  )   )
1019:Drivers/STM32F4xx_HAL_Driver/Src/stm32f4xx_hal_adc_ex.c ****     {
1020:Drivers/STM32F4xx_HAL_Driver/Src/stm32f4xx_hal_adc_ex.c ****       /* Disable ADC end of single conversion interrupt on group regular */
1021:Drivers/STM32F4xx_HAL_Driver/Src/stm32f4xx_hal_adc_ex.c ****       /* Note: Overrun interrupt was enabled with EOC interrupt in          */
1022:Drivers/STM32F4xx_HAL_Driver/Src/stm32f4xx_hal_adc_ex.c ****       /* HAL_ADC_Start_IT(), but is not disabled here because can be used   */
1023:Drivers/STM32F4xx_HAL_Driver/Src/stm32f4xx_hal_adc_ex.c ****       /* by overrun IRQ process below.                                      */
1024:Drivers/STM32F4xx_HAL_Driver/Src/stm32f4xx_hal_adc_ex.c ****       __HAL_ADC_DISABLE_IT(hadc, ADC_IT_EOC);
1025:Drivers/STM32F4xx_HAL_Driver/Src/stm32f4xx_hal_adc_ex.c ****       
1026:Drivers/STM32F4xx_HAL_Driver/Src/stm32f4xx_hal_adc_ex.c ****       /* Set ADC state */
1027:Drivers/STM32F4xx_HAL_Driver/Src/stm32f4xx_hal_adc_ex.c ****       CLEAR_BIT(hadc->State, HAL_ADC_STATE_REG_BUSY);   
1028:Drivers/STM32F4xx_HAL_Driver/Src/stm32f4xx_hal_adc_ex.c ****       
1029:Drivers/STM32F4xx_HAL_Driver/Src/stm32f4xx_hal_adc_ex.c ****       if (HAL_IS_BIT_CLR(hadc->State, HAL_ADC_STATE_INJ_BUSY))
1030:Drivers/STM32F4xx_HAL_Driver/Src/stm32f4xx_hal_adc_ex.c ****       {
1031:Drivers/STM32F4xx_HAL_Driver/Src/stm32f4xx_hal_adc_ex.c ****         SET_BIT(hadc->State, HAL_ADC_STATE_READY);
1032:Drivers/STM32F4xx_HAL_Driver/Src/stm32f4xx_hal_adc_ex.c ****       }
1033:Drivers/STM32F4xx_HAL_Driver/Src/stm32f4xx_hal_adc_ex.c ****     }
1034:Drivers/STM32F4xx_HAL_Driver/Src/stm32f4xx_hal_adc_ex.c ****     
1035:Drivers/STM32F4xx_HAL_Driver/Src/stm32f4xx_hal_adc_ex.c ****     /* Conversion complete callback */
1036:Drivers/STM32F4xx_HAL_Driver/Src/stm32f4xx_hal_adc_ex.c ****     HAL_ADC_ConvCpltCallback(hadc);
1037:Drivers/STM32F4xx_HAL_Driver/Src/stm32f4xx_hal_adc_ex.c ****   }
1038:Drivers/STM32F4xx_HAL_Driver/Src/stm32f4xx_hal_adc_ex.c ****   else
1039:Drivers/STM32F4xx_HAL_Driver/Src/stm32f4xx_hal_adc_ex.c ****   {
1040:Drivers/STM32F4xx_HAL_Driver/Src/stm32f4xx_hal_adc_ex.c ****     /* Call DMA error callback */
1041:Drivers/STM32F4xx_HAL_Driver/Src/stm32f4xx_hal_adc_ex.c ****     hadc->DMA_Handle->XferErrorCallback(hdma);
1042:Drivers/STM32F4xx_HAL_Driver/Src/stm32f4xx_hal_adc_ex.c ****   }
1043:Drivers/STM32F4xx_HAL_Driver/Src/stm32f4xx_hal_adc_ex.c **** }
1044:Drivers/STM32F4xx_HAL_Driver/Src/stm32f4xx_hal_adc_ex.c **** 
1045:Drivers/STM32F4xx_HAL_Driver/Src/stm32f4xx_hal_adc_ex.c **** /**
1046:Drivers/STM32F4xx_HAL_Driver/Src/stm32f4xx_hal_adc_ex.c ****   * @brief  DMA half transfer complete callback. 
1047:Drivers/STM32F4xx_HAL_Driver/Src/stm32f4xx_hal_adc_ex.c ****   * @param  hdma pointer to a DMA_HandleTypeDef structure that contains
1048:Drivers/STM32F4xx_HAL_Driver/Src/stm32f4xx_hal_adc_ex.c ****   *                the configuration information for the specified DMA module.
1049:Drivers/STM32F4xx_HAL_Driver/Src/stm32f4xx_hal_adc_ex.c ****   * @retval None
1050:Drivers/STM32F4xx_HAL_Driver/Src/stm32f4xx_hal_adc_ex.c ****   */
1051:Drivers/STM32F4xx_HAL_Driver/Src/stm32f4xx_hal_adc_ex.c **** static void ADC_MultiModeDMAHalfConvCplt(DMA_HandleTypeDef *hdma)   
1052:Drivers/STM32F4xx_HAL_Driver/Src/stm32f4xx_hal_adc_ex.c **** {
1053:Drivers/STM32F4xx_HAL_Driver/Src/stm32f4xx_hal_adc_ex.c ****     ADC_HandleTypeDef* hadc = ( ADC_HandleTypeDef* )((DMA_HandleTypeDef* )hdma)->Parent;
1054:Drivers/STM32F4xx_HAL_Driver/Src/stm32f4xx_hal_adc_ex.c ****     /* Conversion complete callback */
1055:Drivers/STM32F4xx_HAL_Driver/Src/stm32f4xx_hal_adc_ex.c ****     HAL_ADC_ConvHalfCpltCallback(hadc); 
1056:Drivers/STM32F4xx_HAL_Driver/Src/stm32f4xx_hal_adc_ex.c **** }
ARM GAS  C:\Users\LENOVO\AppData\Local\Temp\ccLbhjnu.s 			page 20


1057:Drivers/STM32F4xx_HAL_Driver/Src/stm32f4xx_hal_adc_ex.c **** 
1058:Drivers/STM32F4xx_HAL_Driver/Src/stm32f4xx_hal_adc_ex.c **** /**
1059:Drivers/STM32F4xx_HAL_Driver/Src/stm32f4xx_hal_adc_ex.c ****   * @brief  DMA error callback 
1060:Drivers/STM32F4xx_HAL_Driver/Src/stm32f4xx_hal_adc_ex.c ****   * @param  hdma pointer to a DMA_HandleTypeDef structure that contains
1061:Drivers/STM32F4xx_HAL_Driver/Src/stm32f4xx_hal_adc_ex.c ****   *                the configuration information for the specified DMA module.
1062:Drivers/STM32F4xx_HAL_Driver/Src/stm32f4xx_hal_adc_ex.c ****   * @retval None
1063:Drivers/STM32F4xx_HAL_Driver/Src/stm32f4xx_hal_adc_ex.c ****   */
1064:Drivers/STM32F4xx_HAL_Driver/Src/stm32f4xx_hal_adc_ex.c **** static void ADC_MultiModeDMAError(DMA_HandleTypeDef *hdma)   
1065:Drivers/STM32F4xx_HAL_Driver/Src/stm32f4xx_hal_adc_ex.c **** {
  29              		.loc 1 1065 1 view -0
  30              		.cfi_startproc
  31              		@ args = 0, pretend = 0, frame = 0
  32              		@ frame_needed = 0, uses_anonymous_args = 0
  33              		.loc 1 1065 1 is_stmt 0 view .LVU1
  34 0000 08B5     		push	{r3, lr}
  35              	.LCFI0:
  36              		.cfi_def_cfa_offset 8
  37              		.cfi_offset 3, -8
  38              		.cfi_offset 14, -4
1066:Drivers/STM32F4xx_HAL_Driver/Src/stm32f4xx_hal_adc_ex.c ****     ADC_HandleTypeDef* hadc = ( ADC_HandleTypeDef* )((DMA_HandleTypeDef* )hdma)->Parent;
  39              		.loc 1 1066 5 is_stmt 1 view .LVU2
  40              		.loc 1 1066 24 is_stmt 0 view .LVU3
  41 0002 806B     		ldr	r0, [r0, #56]
  42              	.LVL1:
1067:Drivers/STM32F4xx_HAL_Driver/Src/stm32f4xx_hal_adc_ex.c ****     hadc->State= HAL_ADC_STATE_ERROR_DMA;
  43              		.loc 1 1067 5 is_stmt 1 view .LVU4
  44              		.loc 1 1067 16 is_stmt 0 view .LVU5
  45 0004 4023     		movs	r3, #64
  46 0006 0364     		str	r3, [r0, #64]
1068:Drivers/STM32F4xx_HAL_Driver/Src/stm32f4xx_hal_adc_ex.c ****     /* Set ADC error code to DMA error */
1069:Drivers/STM32F4xx_HAL_Driver/Src/stm32f4xx_hal_adc_ex.c ****     hadc->ErrorCode |= HAL_ADC_ERROR_DMA;
  47              		.loc 1 1069 5 is_stmt 1 view .LVU6
  48              		.loc 1 1069 9 is_stmt 0 view .LVU7
  49 0008 436C     		ldr	r3, [r0, #68]
  50              		.loc 1 1069 21 view .LVU8
  51 000a 43F00403 		orr	r3, r3, #4
  52 000e 4364     		str	r3, [r0, #68]
1070:Drivers/STM32F4xx_HAL_Driver/Src/stm32f4xx_hal_adc_ex.c ****     HAL_ADC_ErrorCallback(hadc); 
  53              		.loc 1 1070 5 is_stmt 1 view .LVU9
  54 0010 FFF7FEFF 		bl	HAL_ADC_ErrorCallback
  55              	.LVL2:
1071:Drivers/STM32F4xx_HAL_Driver/Src/stm32f4xx_hal_adc_ex.c **** }
  56              		.loc 1 1071 1 is_stmt 0 view .LVU10
  57 0014 08BD     		pop	{r3, pc}
  58              		.cfi_endproc
  59              	.LFE144:
  61              		.section	.text.ADC_MultiModeDMAHalfConvCplt,"ax",%progbits
  62              		.align	1
  63              		.syntax unified
  64              		.thumb
  65              		.thumb_func
  67              	ADC_MultiModeDMAHalfConvCplt:
  68              	.LVL3:
  69              	.LFB143:
1052:Drivers/STM32F4xx_HAL_Driver/Src/stm32f4xx_hal_adc_ex.c ****     ADC_HandleTypeDef* hadc = ( ADC_HandleTypeDef* )((DMA_HandleTypeDef* )hdma)->Parent;
  70              		.loc 1 1052 1 is_stmt 1 view -0
  71              		.cfi_startproc
ARM GAS  C:\Users\LENOVO\AppData\Local\Temp\ccLbhjnu.s 			page 21


  72              		@ args = 0, pretend = 0, frame = 0
  73              		@ frame_needed = 0, uses_anonymous_args = 0
1052:Drivers/STM32F4xx_HAL_Driver/Src/stm32f4xx_hal_adc_ex.c ****     ADC_HandleTypeDef* hadc = ( ADC_HandleTypeDef* )((DMA_HandleTypeDef* )hdma)->Parent;
  74              		.loc 1 1052 1 is_stmt 0 view .LVU12
  75 0000 08B5     		push	{r3, lr}
  76              	.LCFI1:
  77              		.cfi_def_cfa_offset 8
  78              		.cfi_offset 3, -8
  79              		.cfi_offset 14, -4
1053:Drivers/STM32F4xx_HAL_Driver/Src/stm32f4xx_hal_adc_ex.c ****     /* Conversion complete callback */
  80              		.loc 1 1053 5 is_stmt 1 view .LVU13
  81              	.LVL4:
1055:Drivers/STM32F4xx_HAL_Driver/Src/stm32f4xx_hal_adc_ex.c **** }
  82              		.loc 1 1055 5 view .LVU14
  83 0002 806B     		ldr	r0, [r0, #56]
  84              	.LVL5:
1055:Drivers/STM32F4xx_HAL_Driver/Src/stm32f4xx_hal_adc_ex.c **** }
  85              		.loc 1 1055 5 is_stmt 0 view .LVU15
  86 0004 FFF7FEFF 		bl	HAL_ADC_ConvHalfCpltCallback
  87              	.LVL6:
1056:Drivers/STM32F4xx_HAL_Driver/Src/stm32f4xx_hal_adc_ex.c **** 
  88              		.loc 1 1056 1 view .LVU16
  89 0008 08BD     		pop	{r3, pc}
  90              		.cfi_endproc
  91              	.LFE143:
  93              		.section	.text.ADC_MultiModeDMAConvCplt,"ax",%progbits
  94              		.align	1
  95              		.syntax unified
  96              		.thumb
  97              		.thumb_func
  99              	ADC_MultiModeDMAConvCplt:
 100              	.LVL7:
 101              	.LFB142:
 999:Drivers/STM32F4xx_HAL_Driver/Src/stm32f4xx_hal_adc_ex.c ****   /* Retrieve ADC handle corresponding to current DMA handle */
 102              		.loc 1 999 1 is_stmt 1 view -0
 103              		.cfi_startproc
 104              		@ args = 0, pretend = 0, frame = 0
 105              		@ frame_needed = 0, uses_anonymous_args = 0
 999:Drivers/STM32F4xx_HAL_Driver/Src/stm32f4xx_hal_adc_ex.c ****   /* Retrieve ADC handle corresponding to current DMA handle */
 106              		.loc 1 999 1 is_stmt 0 view .LVU18
 107 0000 08B5     		push	{r3, lr}
 108              	.LCFI2:
 109              		.cfi_def_cfa_offset 8
 110              		.cfi_offset 3, -8
 111              		.cfi_offset 14, -4
1001:Drivers/STM32F4xx_HAL_Driver/Src/stm32f4xx_hal_adc_ex.c ****   
 112              		.loc 1 1001 3 is_stmt 1 view .LVU19
1001:Drivers/STM32F4xx_HAL_Driver/Src/stm32f4xx_hal_adc_ex.c ****   
 113              		.loc 1 1001 22 is_stmt 0 view .LVU20
 114 0002 836B     		ldr	r3, [r0, #56]
 115              	.LVL8:
1004:Drivers/STM32F4xx_HAL_Driver/Src/stm32f4xx_hal_adc_ex.c ****   {
 116              		.loc 1 1004 3 is_stmt 1 view .LVU21
1004:Drivers/STM32F4xx_HAL_Driver/Src/stm32f4xx_hal_adc_ex.c ****   {
 117              		.loc 1 1004 7 is_stmt 0 view .LVU22
 118 0004 1A6C     		ldr	r2, [r3, #64]
1004:Drivers/STM32F4xx_HAL_Driver/Src/stm32f4xx_hal_adc_ex.c ****   {
ARM GAS  C:\Users\LENOVO\AppData\Local\Temp\ccLbhjnu.s 			page 22


 119              		.loc 1 1004 6 view .LVU23
 120 0006 12F0500F 		tst	r2, #80
 121 000a 26D1     		bne	.L6
1007:Drivers/STM32F4xx_HAL_Driver/Src/stm32f4xx_hal_adc_ex.c ****     
 122              		.loc 1 1007 5 is_stmt 1 view .LVU24
 123 000c 1A6C     		ldr	r2, [r3, #64]
 124 000e 42F40072 		orr	r2, r2, #512
 125 0012 1A64     		str	r2, [r3, #64]
1015:Drivers/STM32F4xx_HAL_Driver/Src/stm32f4xx_hal_adc_ex.c ****        (hadc->Init.ContinuousConvMode == DISABLE)            &&
 126              		.loc 1 1015 5 view .LVU25
1015:Drivers/STM32F4xx_HAL_Driver/Src/stm32f4xx_hal_adc_ex.c ****        (hadc->Init.ContinuousConvMode == DISABLE)            &&
 127              		.loc 1 1015 8 is_stmt 0 view .LVU26
 128 0014 1A68     		ldr	r2, [r3]
 129 0016 9168     		ldr	r1, [r2, #8]
1015:Drivers/STM32F4xx_HAL_Driver/Src/stm32f4xx_hal_adc_ex.c ****        (hadc->Init.ContinuousConvMode == DISABLE)            &&
 130              		.loc 1 1015 7 view .LVU27
 131 0018 11F0405F 		tst	r1, #805306368
 132 001c 19D1     		bne	.L7
1016:Drivers/STM32F4xx_HAL_Driver/Src/stm32f4xx_hal_adc_ex.c ****        (HAL_IS_BIT_CLR(hadc->Instance->SQR1, ADC_SQR1_L) || 
 133              		.loc 1 1016 19 view .LVU28
 134 001e 197E     		ldrb	r1, [r3, #24]	@ zero_extendqisi2
1015:Drivers/STM32F4xx_HAL_Driver/Src/stm32f4xx_hal_adc_ex.c ****        (hadc->Init.ContinuousConvMode == DISABLE)            &&
 135              		.loc 1 1015 62 discriminator 1 view .LVU29
 136 0020 B9B9     		cbnz	r1, .L7
1017:Drivers/STM32F4xx_HAL_Driver/Src/stm32f4xx_hal_adc_ex.c ****         HAL_IS_BIT_CLR(hadc->Instance->CR2, ADC_CR2_EOCS)  )   )
 137              		.loc 1 1017 9 view .LVU30
 138 0022 D16A     		ldr	r1, [r2, #44]
1016:Drivers/STM32F4xx_HAL_Driver/Src/stm32f4xx_hal_adc_ex.c ****        (HAL_IS_BIT_CLR(hadc->Instance->SQR1, ADC_SQR1_L) || 
 139              		.loc 1 1016 62 view .LVU31
 140 0024 11F4700F 		tst	r1, #15728640
 141 0028 03D0     		beq	.L8
1018:Drivers/STM32F4xx_HAL_Driver/Src/stm32f4xx_hal_adc_ex.c ****     {
 142              		.loc 1 1018 9 view .LVU32
 143 002a 9168     		ldr	r1, [r2, #8]
1017:Drivers/STM32F4xx_HAL_Driver/Src/stm32f4xx_hal_adc_ex.c ****         HAL_IS_BIT_CLR(hadc->Instance->CR2, ADC_CR2_EOCS)  )   )
 144              		.loc 1 1017 58 view .LVU33
 145 002c 11F4806F 		tst	r1, #1024
 146 0030 0FD1     		bne	.L7
 147              	.L8:
1024:Drivers/STM32F4xx_HAL_Driver/Src/stm32f4xx_hal_adc_ex.c ****       
 148              		.loc 1 1024 7 is_stmt 1 view .LVU34
 149 0032 5168     		ldr	r1, [r2, #4]
 150 0034 21F02001 		bic	r1, r1, #32
 151 0038 5160     		str	r1, [r2, #4]
1027:Drivers/STM32F4xx_HAL_Driver/Src/stm32f4xx_hal_adc_ex.c ****       
 152              		.loc 1 1027 7 view .LVU35
 153 003a 1A6C     		ldr	r2, [r3, #64]
 154 003c 22F48072 		bic	r2, r2, #256
 155 0040 1A64     		str	r2, [r3, #64]
1029:Drivers/STM32F4xx_HAL_Driver/Src/stm32f4xx_hal_adc_ex.c ****       {
 156              		.loc 1 1029 7 view .LVU36
1029:Drivers/STM32F4xx_HAL_Driver/Src/stm32f4xx_hal_adc_ex.c ****       {
 157              		.loc 1 1029 11 is_stmt 0 view .LVU37
 158 0042 1A6C     		ldr	r2, [r3, #64]
1029:Drivers/STM32F4xx_HAL_Driver/Src/stm32f4xx_hal_adc_ex.c ****       {
 159              		.loc 1 1029 10 view .LVU38
 160 0044 12F4805F 		tst	r2, #4096
ARM GAS  C:\Users\LENOVO\AppData\Local\Temp\ccLbhjnu.s 			page 23


 161 0048 03D1     		bne	.L7
1031:Drivers/STM32F4xx_HAL_Driver/Src/stm32f4xx_hal_adc_ex.c ****       }
 162              		.loc 1 1031 9 is_stmt 1 view .LVU39
 163 004a 1A6C     		ldr	r2, [r3, #64]
 164 004c 42F00102 		orr	r2, r2, #1
 165 0050 1A64     		str	r2, [r3, #64]
 166              	.L7:
1036:Drivers/STM32F4xx_HAL_Driver/Src/stm32f4xx_hal_adc_ex.c ****   }
 167              		.loc 1 1036 5 view .LVU40
 168 0052 1846     		mov	r0, r3
 169              	.LVL9:
1036:Drivers/STM32F4xx_HAL_Driver/Src/stm32f4xx_hal_adc_ex.c ****   }
 170              		.loc 1 1036 5 is_stmt 0 view .LVU41
 171 0054 FFF7FEFF 		bl	HAL_ADC_ConvCpltCallback
 172              	.LVL10:
 173              	.L5:
1043:Drivers/STM32F4xx_HAL_Driver/Src/stm32f4xx_hal_adc_ex.c **** 
 174              		.loc 1 1043 1 view .LVU42
 175 0058 08BD     		pop	{r3, pc}
 176              	.LVL11:
 177              	.L6:
1041:Drivers/STM32F4xx_HAL_Driver/Src/stm32f4xx_hal_adc_ex.c ****   }
 178              		.loc 1 1041 5 is_stmt 1 view .LVU43
1041:Drivers/STM32F4xx_HAL_Driver/Src/stm32f4xx_hal_adc_ex.c ****   }
 179              		.loc 1 1041 9 is_stmt 0 view .LVU44
 180 005a 9B6B     		ldr	r3, [r3, #56]
 181              	.LVL12:
1041:Drivers/STM32F4xx_HAL_Driver/Src/stm32f4xx_hal_adc_ex.c ****   }
 182              		.loc 1 1041 21 view .LVU45
 183 005c DB6C     		ldr	r3, [r3, #76]
1041:Drivers/STM32F4xx_HAL_Driver/Src/stm32f4xx_hal_adc_ex.c ****   }
 184              		.loc 1 1041 5 view .LVU46
 185 005e 9847     		blx	r3
 186              	.LVL13:
1043:Drivers/STM32F4xx_HAL_Driver/Src/stm32f4xx_hal_adc_ex.c **** 
 187              		.loc 1 1043 1 view .LVU47
 188 0060 FAE7     		b	.L5
 189              		.cfi_endproc
 190              	.LFE142:
 192              		.section	.text.HAL_ADCEx_InjectedStart,"ax",%progbits
 193              		.align	1
 194              		.global	HAL_ADCEx_InjectedStart
 195              		.syntax unified
 196              		.thumb
 197              		.thumb_func
 199              	HAL_ADCEx_InjectedStart:
 200              	.LVL14:
 201              	.LFB130:
 148:Drivers/STM32F4xx_HAL_Driver/Src/stm32f4xx_hal_adc_ex.c ****   __IO uint32_t counter = 0U;
 202              		.loc 1 148 1 is_stmt 1 view -0
 203              		.cfi_startproc
 204              		@ args = 0, pretend = 0, frame = 8
 205              		@ frame_needed = 0, uses_anonymous_args = 0
 206              		@ link register save eliminated.
 148:Drivers/STM32F4xx_HAL_Driver/Src/stm32f4xx_hal_adc_ex.c ****   __IO uint32_t counter = 0U;
 207              		.loc 1 148 1 is_stmt 0 view .LVU49
 208 0000 82B0     		sub	sp, sp, #8
ARM GAS  C:\Users\LENOVO\AppData\Local\Temp\ccLbhjnu.s 			page 24


 209              	.LCFI3:
 210              		.cfi_def_cfa_offset 8
 149:Drivers/STM32F4xx_HAL_Driver/Src/stm32f4xx_hal_adc_ex.c ****   uint32_t tmp1 = 0U, tmp2 = 0U;
 211              		.loc 1 149 3 is_stmt 1 view .LVU50
 149:Drivers/STM32F4xx_HAL_Driver/Src/stm32f4xx_hal_adc_ex.c ****   uint32_t tmp1 = 0U, tmp2 = 0U;
 212              		.loc 1 149 17 is_stmt 0 view .LVU51
 213 0002 0023     		movs	r3, #0
 214 0004 0193     		str	r3, [sp, #4]
 150:Drivers/STM32F4xx_HAL_Driver/Src/stm32f4xx_hal_adc_ex.c ****   ADC_Common_TypeDef *tmpADC_Common;
 215              		.loc 1 150 3 is_stmt 1 view .LVU52
 216              	.LVL15:
 151:Drivers/STM32F4xx_HAL_Driver/Src/stm32f4xx_hal_adc_ex.c ****   
 217              		.loc 1 151 3 view .LVU53
 154:Drivers/STM32F4xx_HAL_Driver/Src/stm32f4xx_hal_adc_ex.c ****   
 218              		.loc 1 154 3 view .LVU54
 154:Drivers/STM32F4xx_HAL_Driver/Src/stm32f4xx_hal_adc_ex.c ****   
 219              		.loc 1 154 3 view .LVU55
 220 0006 90F83C30 		ldrb	r3, [r0, #60]	@ zero_extendqisi2
 221 000a 012B     		cmp	r3, #1
 222 000c 5CD0     		beq	.L18
 154:Drivers/STM32F4xx_HAL_Driver/Src/stm32f4xx_hal_adc_ex.c ****   
 223              		.loc 1 154 3 discriminator 2 view .LVU56
 224 000e 0123     		movs	r3, #1
 225 0010 80F83C30 		strb	r3, [r0, #60]
 154:Drivers/STM32F4xx_HAL_Driver/Src/stm32f4xx_hal_adc_ex.c ****   
 226              		.loc 1 154 3 discriminator 2 view .LVU57
 160:Drivers/STM32F4xx_HAL_Driver/Src/stm32f4xx_hal_adc_ex.c ****   {  
 227              		.loc 1 160 3 view .LVU58
 160:Drivers/STM32F4xx_HAL_Driver/Src/stm32f4xx_hal_adc_ex.c ****   {  
 228              		.loc 1 160 11 is_stmt 0 view .LVU59
 229 0014 0368     		ldr	r3, [r0]
 160:Drivers/STM32F4xx_HAL_Driver/Src/stm32f4xx_hal_adc_ex.c ****   {  
 230              		.loc 1 160 21 view .LVU60
 231 0016 9A68     		ldr	r2, [r3, #8]
 160:Drivers/STM32F4xx_HAL_Driver/Src/stm32f4xx_hal_adc_ex.c ****   {  
 232              		.loc 1 160 5 view .LVU61
 233 0018 12F0010F 		tst	r2, #1
 234 001c 13D1     		bne	.L13
 163:Drivers/STM32F4xx_HAL_Driver/Src/stm32f4xx_hal_adc_ex.c ****     
 235              		.loc 1 163 5 is_stmt 1 view .LVU62
 236 001e 9A68     		ldr	r2, [r3, #8]
 237 0020 42F00102 		orr	r2, r2, #1
 238 0024 9A60     		str	r2, [r3, #8]
 167:Drivers/STM32F4xx_HAL_Driver/Src/stm32f4xx_hal_adc_ex.c ****     while(counter != 0U)
 239              		.loc 1 167 5 view .LVU63
 167:Drivers/STM32F4xx_HAL_Driver/Src/stm32f4xx_hal_adc_ex.c ****     while(counter != 0U)
 240              		.loc 1 167 53 is_stmt 0 view .LVU64
 241 0026 2F4B     		ldr	r3, .L27
 242 0028 1B68     		ldr	r3, [r3]
 243 002a 2F4A     		ldr	r2, .L27+4
 244 002c A2FB0323 		umull	r2, r3, r2, r3
 245 0030 9B0C     		lsrs	r3, r3, #18
 167:Drivers/STM32F4xx_HAL_Driver/Src/stm32f4xx_hal_adc_ex.c ****     while(counter != 0U)
 246              		.loc 1 167 34 view .LVU65
 247 0032 03EB4303 		add	r3, r3, r3, lsl #1
 167:Drivers/STM32F4xx_HAL_Driver/Src/stm32f4xx_hal_adc_ex.c ****     while(counter != 0U)
 248              		.loc 1 167 13 view .LVU66
ARM GAS  C:\Users\LENOVO\AppData\Local\Temp\ccLbhjnu.s 			page 25


 249 0036 0193     		str	r3, [sp, #4]
 168:Drivers/STM32F4xx_HAL_Driver/Src/stm32f4xx_hal_adc_ex.c ****     {
 250              		.loc 1 168 5 is_stmt 1 view .LVU67
 168:Drivers/STM32F4xx_HAL_Driver/Src/stm32f4xx_hal_adc_ex.c ****     {
 251              		.loc 1 168 10 is_stmt 0 view .LVU68
 252 0038 02E0     		b	.L14
 253              	.L15:
 170:Drivers/STM32F4xx_HAL_Driver/Src/stm32f4xx_hal_adc_ex.c ****     }
 254              		.loc 1 170 7 is_stmt 1 view .LVU69
 170:Drivers/STM32F4xx_HAL_Driver/Src/stm32f4xx_hal_adc_ex.c ****     }
 255              		.loc 1 170 14 is_stmt 0 view .LVU70
 256 003a 019B     		ldr	r3, [sp, #4]
 257 003c 013B     		subs	r3, r3, #1
 258 003e 0193     		str	r3, [sp, #4]
 259              	.L14:
 168:Drivers/STM32F4xx_HAL_Driver/Src/stm32f4xx_hal_adc_ex.c ****     {
 260              		.loc 1 168 19 is_stmt 1 view .LVU71
 261 0040 019B     		ldr	r3, [sp, #4]
 262 0042 002B     		cmp	r3, #0
 263 0044 F9D1     		bne	.L15
 264              	.L13:
 175:Drivers/STM32F4xx_HAL_Driver/Src/stm32f4xx_hal_adc_ex.c ****   {
 265              		.loc 1 175 3 view .LVU72
 175:Drivers/STM32F4xx_HAL_Driver/Src/stm32f4xx_hal_adc_ex.c ****   {
 266              		.loc 1 175 6 is_stmt 0 view .LVU73
 267 0046 0268     		ldr	r2, [r0]
 268 0048 9368     		ldr	r3, [r2, #8]
 175:Drivers/STM32F4xx_HAL_Driver/Src/stm32f4xx_hal_adc_ex.c ****   {
 269              		.loc 1 175 5 view .LVU74
 270 004a 13F0010F 		tst	r3, #1
 271 004e 3DD0     		beq	.L19
 180:Drivers/STM32F4xx_HAL_Driver/Src/stm32f4xx_hal_adc_ex.c ****                       HAL_ADC_STATE_READY | HAL_ADC_STATE_INJ_EOC,
 272              		.loc 1 180 5 is_stmt 1 view .LVU75
 273 0050 036C     		ldr	r3, [r0, #64]
 274 0052 23F44053 		bic	r3, r3, #12288
 275 0056 23F00103 		bic	r3, r3, #1
 276 005a 43F48053 		orr	r3, r3, #4096
 277 005e 0364     		str	r3, [r0, #64]
 188:Drivers/STM32F4xx_HAL_Driver/Src/stm32f4xx_hal_adc_ex.c ****     {
 278              		.loc 1 188 5 view .LVU76
 188:Drivers/STM32F4xx_HAL_Driver/Src/stm32f4xx_hal_adc_ex.c ****     {
 279              		.loc 1 188 9 is_stmt 0 view .LVU77
 280 0060 036C     		ldr	r3, [r0, #64]
 188:Drivers/STM32F4xx_HAL_Driver/Src/stm32f4xx_hal_adc_ex.c ****     {
 281              		.loc 1 188 8 view .LVU78
 282 0062 13F4807F 		tst	r3, #256
 283 0066 01D1     		bne	.L16
 191:Drivers/STM32F4xx_HAL_Driver/Src/stm32f4xx_hal_adc_ex.c ****     }
 284              		.loc 1 191 7 is_stmt 1 view .LVU79
 285 0068 0023     		movs	r3, #0
 286 006a 4364     		str	r3, [r0, #68]
 287              	.L16:
 197:Drivers/STM32F4xx_HAL_Driver/Src/stm32f4xx_hal_adc_ex.c ****     
 288              		.loc 1 197 5 view .LVU80
 197:Drivers/STM32F4xx_HAL_Driver/Src/stm32f4xx_hal_adc_ex.c ****     
 289              		.loc 1 197 5 view .LVU81
 290 006c 0023     		movs	r3, #0
ARM GAS  C:\Users\LENOVO\AppData\Local\Temp\ccLbhjnu.s 			page 26


 291 006e 80F83C30 		strb	r3, [r0, #60]
 197:Drivers/STM32F4xx_HAL_Driver/Src/stm32f4xx_hal_adc_ex.c ****     
 292              		.loc 1 197 5 view .LVU82
 201:Drivers/STM32F4xx_HAL_Driver/Src/stm32f4xx_hal_adc_ex.c **** 
 293              		.loc 1 201 5 view .LVU83
 294 0072 6FF00403 		mvn	r3, #4
 295 0076 1360     		str	r3, [r2]
 206:Drivers/STM32F4xx_HAL_Driver/Src/stm32f4xx_hal_adc_ex.c **** 
 296              		.loc 1 206 5 view .LVU84
 297              	.LVL16:
 209:Drivers/STM32F4xx_HAL_Driver/Src/stm32f4xx_hal_adc_ex.c ****     {
 298              		.loc 1 209 5 view .LVU85
 209:Drivers/STM32F4xx_HAL_Driver/Src/stm32f4xx_hal_adc_ex.c ****     {
 299              		.loc 1 209 8 is_stmt 0 view .LVU86
 300 0078 1C4B     		ldr	r3, .L27+8
 301 007a 5B68     		ldr	r3, [r3, #4]
 209:Drivers/STM32F4xx_HAL_Driver/Src/stm32f4xx_hal_adc_ex.c ****     {
 302              		.loc 1 209 7 view .LVU87
 303 007c 13F01F0F 		tst	r3, #31
 304 0080 0ED1     		bne	.L17
 211:Drivers/STM32F4xx_HAL_Driver/Src/stm32f4xx_hal_adc_ex.c ****       tmp2 = HAL_IS_BIT_CLR(hadc->Instance->CR1, ADC_CR1_JAUTO);
 305              		.loc 1 211 7 is_stmt 1 view .LVU88
 211:Drivers/STM32F4xx_HAL_Driver/Src/stm32f4xx_hal_adc_ex.c ****       tmp2 = HAL_IS_BIT_CLR(hadc->Instance->CR1, ADC_CR1_JAUTO);
 306              		.loc 1 211 14 is_stmt 0 view .LVU89
 307 0082 0268     		ldr	r2, [r0]
 308 0084 9168     		ldr	r1, [r2, #8]
 309              	.LVL17:
 212:Drivers/STM32F4xx_HAL_Driver/Src/stm32f4xx_hal_adc_ex.c ****       if(tmp1 && tmp2)
 310              		.loc 1 212 7 is_stmt 1 view .LVU90
 212:Drivers/STM32F4xx_HAL_Driver/Src/stm32f4xx_hal_adc_ex.c ****       if(tmp1 && tmp2)
 311              		.loc 1 212 14 is_stmt 0 view .LVU91
 312 0086 5368     		ldr	r3, [r2, #4]
 313 0088 03F48063 		and	r3, r3, #1024
 314              	.LVL18:
 213:Drivers/STM32F4xx_HAL_Driver/Src/stm32f4xx_hal_adc_ex.c ****       {
 315              		.loc 1 213 7 is_stmt 1 view .LVU92
 213:Drivers/STM32F4xx_HAL_Driver/Src/stm32f4xx_hal_adc_ex.c ****       {
 316              		.loc 1 213 9 is_stmt 0 view .LVU93
 317 008c 11F4401F 		tst	r1, #3145728
 318 0090 1FD1     		bne	.L20
 213:Drivers/STM32F4xx_HAL_Driver/Src/stm32f4xx_hal_adc_ex.c ****       {
 319              		.loc 1 213 15 discriminator 1 view .LVU94
 320 0092 03BB     		cbnz	r3, .L21
 216:Drivers/STM32F4xx_HAL_Driver/Src/stm32f4xx_hal_adc_ex.c ****       }
 321              		.loc 1 216 9 is_stmt 1 view .LVU95
 216:Drivers/STM32F4xx_HAL_Driver/Src/stm32f4xx_hal_adc_ex.c ****       }
 322              		.loc 1 216 23 is_stmt 0 view .LVU96
 323 0094 9368     		ldr	r3, [r2, #8]
 324              	.LVL19:
 216:Drivers/STM32F4xx_HAL_Driver/Src/stm32f4xx_hal_adc_ex.c ****       }
 325              		.loc 1 216 29 view .LVU97
 326 0096 43F48003 		orr	r3, r3, #4194304
 327 009a 9360     		str	r3, [r2, #8]
 232:Drivers/STM32F4xx_HAL_Driver/Src/stm32f4xx_hal_adc_ex.c **** }
 328              		.loc 1 232 10 view .LVU98
 329 009c 0020     		movs	r0, #0
 330              	.LVL20:
ARM GAS  C:\Users\LENOVO\AppData\Local\Temp\ccLbhjnu.s 			page 27


 232:Drivers/STM32F4xx_HAL_Driver/Src/stm32f4xx_hal_adc_ex.c **** }
 331              		.loc 1 232 10 view .LVU99
 332 009e 16E0     		b	.L12
 333              	.LVL21:
 334              	.L17:
 221:Drivers/STM32F4xx_HAL_Driver/Src/stm32f4xx_hal_adc_ex.c ****       tmp2 = HAL_IS_BIT_CLR(hadc->Instance->CR1, ADC_CR1_JAUTO);
 335              		.loc 1 221 7 is_stmt 1 view .LVU100
 221:Drivers/STM32F4xx_HAL_Driver/Src/stm32f4xx_hal_adc_ex.c ****       tmp2 = HAL_IS_BIT_CLR(hadc->Instance->CR1, ADC_CR1_JAUTO);
 336              		.loc 1 221 14 is_stmt 0 view .LVU101
 337 00a0 0368     		ldr	r3, [r0]
 338 00a2 9A68     		ldr	r2, [r3, #8]
 339 00a4 02F44012 		and	r2, r2, #3145728
 340              	.LVL22:
 222:Drivers/STM32F4xx_HAL_Driver/Src/stm32f4xx_hal_adc_ex.c ****       if((hadc->Instance == ADC1) && tmp1 && tmp2)  
 341              		.loc 1 222 7 is_stmt 1 view .LVU102
 222:Drivers/STM32F4xx_HAL_Driver/Src/stm32f4xx_hal_adc_ex.c ****       if((hadc->Instance == ADC1) && tmp1 && tmp2)  
 342              		.loc 1 222 14 is_stmt 0 view .LVU103
 343 00a8 5968     		ldr	r1, [r3, #4]
 344 00aa 01F48061 		and	r1, r1, #1024
 345              	.LVL23:
 223:Drivers/STM32F4xx_HAL_Driver/Src/stm32f4xx_hal_adc_ex.c ****       {
 346              		.loc 1 223 7 is_stmt 1 view .LVU104
 223:Drivers/STM32F4xx_HAL_Driver/Src/stm32f4xx_hal_adc_ex.c ****       {
 347              		.loc 1 223 9 is_stmt 0 view .LVU105
 348 00ae 1048     		ldr	r0, .L27+12
 349              	.LVL24:
 223:Drivers/STM32F4xx_HAL_Driver/Src/stm32f4xx_hal_adc_ex.c ****       {
 350              		.loc 1 223 9 view .LVU106
 351 00b0 8342     		cmp	r3, r0
 352 00b2 01D0     		beq	.L26
 232:Drivers/STM32F4xx_HAL_Driver/Src/stm32f4xx_hal_adc_ex.c **** }
 353              		.loc 1 232 10 view .LVU107
 354 00b4 0020     		movs	r0, #0
 355 00b6 0AE0     		b	.L12
 356              	.L26:
 223:Drivers/STM32F4xx_HAL_Driver/Src/stm32f4xx_hal_adc_ex.c ****       {
 357              		.loc 1 223 35 discriminator 1 view .LVU108
 358 00b8 7AB9     		cbnz	r2, .L23
 223:Drivers/STM32F4xx_HAL_Driver/Src/stm32f4xx_hal_adc_ex.c ****       {
 359              		.loc 1 223 43 discriminator 2 view .LVU109
 360 00ba 81B9     		cbnz	r1, .L24
 226:Drivers/STM32F4xx_HAL_Driver/Src/stm32f4xx_hal_adc_ex.c ****       }
 361              		.loc 1 226 9 is_stmt 1 view .LVU110
 226:Drivers/STM32F4xx_HAL_Driver/Src/stm32f4xx_hal_adc_ex.c ****       }
 362              		.loc 1 226 23 is_stmt 0 view .LVU111
 363 00bc 9A68     		ldr	r2, [r3, #8]
 364              	.LVL25:
 226:Drivers/STM32F4xx_HAL_Driver/Src/stm32f4xx_hal_adc_ex.c ****       }
 365              		.loc 1 226 29 view .LVU112
 366 00be 42F48002 		orr	r2, r2, #4194304
 367 00c2 9A60     		str	r2, [r3, #8]
 232:Drivers/STM32F4xx_HAL_Driver/Src/stm32f4xx_hal_adc_ex.c **** }
 368              		.loc 1 232 10 view .LVU113
 369 00c4 0020     		movs	r0, #0
 370 00c6 02E0     		b	.L12
 371              	.LVL26:
 372              	.L18:
ARM GAS  C:\Users\LENOVO\AppData\Local\Temp\ccLbhjnu.s 			page 28


 154:Drivers/STM32F4xx_HAL_Driver/Src/stm32f4xx_hal_adc_ex.c ****   
 373              		.loc 1 154 3 discriminator 1 view .LVU114
 374 00c8 0220     		movs	r0, #2
 375              	.LVL27:
 154:Drivers/STM32F4xx_HAL_Driver/Src/stm32f4xx_hal_adc_ex.c ****   
 376              		.loc 1 154 3 discriminator 1 view .LVU115
 377 00ca 00E0     		b	.L12
 378              	.LVL28:
 379              	.L19:
 232:Drivers/STM32F4xx_HAL_Driver/Src/stm32f4xx_hal_adc_ex.c **** }
 380              		.loc 1 232 10 view .LVU116
 381 00cc 0020     		movs	r0, #0
 382              	.LVL29:
 383              	.L12:
 233:Drivers/STM32F4xx_HAL_Driver/Src/stm32f4xx_hal_adc_ex.c **** 
 384              		.loc 1 233 1 view .LVU117
 385 00ce 02B0     		add	sp, sp, #8
 386              	.LCFI4:
 387              		.cfi_remember_state
 388              		.cfi_def_cfa_offset 0
 389              		@ sp needed
 390 00d0 7047     		bx	lr
 391              	.LVL30:
 392              	.L20:
 393              	.LCFI5:
 394              		.cfi_restore_state
 232:Drivers/STM32F4xx_HAL_Driver/Src/stm32f4xx_hal_adc_ex.c **** }
 395              		.loc 1 232 10 view .LVU118
 396 00d2 0020     		movs	r0, #0
 397              	.LVL31:
 232:Drivers/STM32F4xx_HAL_Driver/Src/stm32f4xx_hal_adc_ex.c **** }
 398              		.loc 1 232 10 view .LVU119
 399 00d4 FBE7     		b	.L12
 400              	.LVL32:
 401              	.L21:
 232:Drivers/STM32F4xx_HAL_Driver/Src/stm32f4xx_hal_adc_ex.c **** }
 402              		.loc 1 232 10 view .LVU120
 403 00d6 0020     		movs	r0, #0
 404              	.LVL33:
 232:Drivers/STM32F4xx_HAL_Driver/Src/stm32f4xx_hal_adc_ex.c **** }
 405              		.loc 1 232 10 view .LVU121
 406 00d8 F9E7     		b	.L12
 407              	.LVL34:
 408              	.L23:
 232:Drivers/STM32F4xx_HAL_Driver/Src/stm32f4xx_hal_adc_ex.c **** }
 409              		.loc 1 232 10 view .LVU122
 410 00da 0020     		movs	r0, #0
 411 00dc F7E7     		b	.L12
 412              	.L24:
 413 00de 0020     		movs	r0, #0
 414 00e0 F5E7     		b	.L12
 415              	.L28:
 416 00e2 00BF     		.align	2
 417              	.L27:
 418 00e4 00000000 		.word	SystemCoreClock
 419 00e8 83DE1B43 		.word	1125899907
 420 00ec 00230140 		.word	1073816320
ARM GAS  C:\Users\LENOVO\AppData\Local\Temp\ccLbhjnu.s 			page 29


 421 00f0 00200140 		.word	1073815552
 422              		.cfi_endproc
 423              	.LFE130:
 425              		.section	.text.HAL_ADCEx_InjectedStart_IT,"ax",%progbits
 426              		.align	1
 427              		.global	HAL_ADCEx_InjectedStart_IT
 428              		.syntax unified
 429              		.thumb
 430              		.thumb_func
 432              	HAL_ADCEx_InjectedStart_IT:
 433              	.LVL35:
 434              	.LFB131:
 243:Drivers/STM32F4xx_HAL_Driver/Src/stm32f4xx_hal_adc_ex.c ****   __IO uint32_t counter = 0U;
 435              		.loc 1 243 1 is_stmt 1 view -0
 436              		.cfi_startproc
 437              		@ args = 0, pretend = 0, frame = 8
 438              		@ frame_needed = 0, uses_anonymous_args = 0
 439              		@ link register save eliminated.
 243:Drivers/STM32F4xx_HAL_Driver/Src/stm32f4xx_hal_adc_ex.c ****   __IO uint32_t counter = 0U;
 440              		.loc 1 243 1 is_stmt 0 view .LVU124
 441 0000 82B0     		sub	sp, sp, #8
 442              	.LCFI6:
 443              		.cfi_def_cfa_offset 8
 244:Drivers/STM32F4xx_HAL_Driver/Src/stm32f4xx_hal_adc_ex.c ****   uint32_t tmp1 = 0U, tmp2 = 0U;
 444              		.loc 1 244 3 is_stmt 1 view .LVU125
 244:Drivers/STM32F4xx_HAL_Driver/Src/stm32f4xx_hal_adc_ex.c ****   uint32_t tmp1 = 0U, tmp2 = 0U;
 445              		.loc 1 244 17 is_stmt 0 view .LVU126
 446 0002 0023     		movs	r3, #0
 447 0004 0193     		str	r3, [sp, #4]
 245:Drivers/STM32F4xx_HAL_Driver/Src/stm32f4xx_hal_adc_ex.c ****   ADC_Common_TypeDef *tmpADC_Common;
 448              		.loc 1 245 3 is_stmt 1 view .LVU127
 449              	.LVL36:
 246:Drivers/STM32F4xx_HAL_Driver/Src/stm32f4xx_hal_adc_ex.c ****   
 450              		.loc 1 246 3 view .LVU128
 249:Drivers/STM32F4xx_HAL_Driver/Src/stm32f4xx_hal_adc_ex.c ****   
 451              		.loc 1 249 3 view .LVU129
 249:Drivers/STM32F4xx_HAL_Driver/Src/stm32f4xx_hal_adc_ex.c ****   
 452              		.loc 1 249 3 view .LVU130
 453 0006 90F83C30 		ldrb	r3, [r0, #60]	@ zero_extendqisi2
 454 000a 012B     		cmp	r3, #1
 455 000c 61D0     		beq	.L36
 249:Drivers/STM32F4xx_HAL_Driver/Src/stm32f4xx_hal_adc_ex.c ****   
 456              		.loc 1 249 3 discriminator 2 view .LVU131
 457 000e 0123     		movs	r3, #1
 458 0010 80F83C30 		strb	r3, [r0, #60]
 249:Drivers/STM32F4xx_HAL_Driver/Src/stm32f4xx_hal_adc_ex.c ****   
 459              		.loc 1 249 3 discriminator 2 view .LVU132
 255:Drivers/STM32F4xx_HAL_Driver/Src/stm32f4xx_hal_adc_ex.c ****   {  
 460              		.loc 1 255 3 view .LVU133
 255:Drivers/STM32F4xx_HAL_Driver/Src/stm32f4xx_hal_adc_ex.c ****   {  
 461              		.loc 1 255 11 is_stmt 0 view .LVU134
 462 0014 0368     		ldr	r3, [r0]
 255:Drivers/STM32F4xx_HAL_Driver/Src/stm32f4xx_hal_adc_ex.c ****   {  
 463              		.loc 1 255 21 view .LVU135
 464 0016 9A68     		ldr	r2, [r3, #8]
 255:Drivers/STM32F4xx_HAL_Driver/Src/stm32f4xx_hal_adc_ex.c ****   {  
 465              		.loc 1 255 5 view .LVU136
ARM GAS  C:\Users\LENOVO\AppData\Local\Temp\ccLbhjnu.s 			page 30


 466 0018 12F0010F 		tst	r2, #1
 467 001c 13D1     		bne	.L31
 258:Drivers/STM32F4xx_HAL_Driver/Src/stm32f4xx_hal_adc_ex.c ****     
 468              		.loc 1 258 5 is_stmt 1 view .LVU137
 469 001e 9A68     		ldr	r2, [r3, #8]
 470 0020 42F00102 		orr	r2, r2, #1
 471 0024 9A60     		str	r2, [r3, #8]
 262:Drivers/STM32F4xx_HAL_Driver/Src/stm32f4xx_hal_adc_ex.c ****     while(counter != 0U)
 472              		.loc 1 262 5 view .LVU138
 262:Drivers/STM32F4xx_HAL_Driver/Src/stm32f4xx_hal_adc_ex.c ****     while(counter != 0U)
 473              		.loc 1 262 53 is_stmt 0 view .LVU139
 474 0026 314B     		ldr	r3, .L45
 475 0028 1B68     		ldr	r3, [r3]
 476 002a 314A     		ldr	r2, .L45+4
 477 002c A2FB0323 		umull	r2, r3, r2, r3
 478 0030 9B0C     		lsrs	r3, r3, #18
 262:Drivers/STM32F4xx_HAL_Driver/Src/stm32f4xx_hal_adc_ex.c ****     while(counter != 0U)
 479              		.loc 1 262 34 view .LVU140
 480 0032 03EB4303 		add	r3, r3, r3, lsl #1
 262:Drivers/STM32F4xx_HAL_Driver/Src/stm32f4xx_hal_adc_ex.c ****     while(counter != 0U)
 481              		.loc 1 262 13 view .LVU141
 482 0036 0193     		str	r3, [sp, #4]
 263:Drivers/STM32F4xx_HAL_Driver/Src/stm32f4xx_hal_adc_ex.c ****     {
 483              		.loc 1 263 5 is_stmt 1 view .LVU142
 263:Drivers/STM32F4xx_HAL_Driver/Src/stm32f4xx_hal_adc_ex.c ****     {
 484              		.loc 1 263 10 is_stmt 0 view .LVU143
 485 0038 02E0     		b	.L32
 486              	.L33:
 265:Drivers/STM32F4xx_HAL_Driver/Src/stm32f4xx_hal_adc_ex.c ****     }
 487              		.loc 1 265 7 is_stmt 1 view .LVU144
 265:Drivers/STM32F4xx_HAL_Driver/Src/stm32f4xx_hal_adc_ex.c ****     }
 488              		.loc 1 265 14 is_stmt 0 view .LVU145
 489 003a 019B     		ldr	r3, [sp, #4]
 490 003c 013B     		subs	r3, r3, #1
 491 003e 0193     		str	r3, [sp, #4]
 492              	.L32:
 263:Drivers/STM32F4xx_HAL_Driver/Src/stm32f4xx_hal_adc_ex.c ****     {
 493              		.loc 1 263 19 is_stmt 1 view .LVU146
 494 0040 019B     		ldr	r3, [sp, #4]
 495 0042 002B     		cmp	r3, #0
 496 0044 F9D1     		bne	.L33
 497              	.L31:
 270:Drivers/STM32F4xx_HAL_Driver/Src/stm32f4xx_hal_adc_ex.c ****   {
 498              		.loc 1 270 3 view .LVU147
 270:Drivers/STM32F4xx_HAL_Driver/Src/stm32f4xx_hal_adc_ex.c ****   {
 499              		.loc 1 270 6 is_stmt 0 view .LVU148
 500 0046 0268     		ldr	r2, [r0]
 501 0048 9368     		ldr	r3, [r2, #8]
 270:Drivers/STM32F4xx_HAL_Driver/Src/stm32f4xx_hal_adc_ex.c ****   {
 502              		.loc 1 270 5 view .LVU149
 503 004a 13F0010F 		tst	r3, #1
 504 004e 42D0     		beq	.L37
 275:Drivers/STM32F4xx_HAL_Driver/Src/stm32f4xx_hal_adc_ex.c ****                       HAL_ADC_STATE_READY | HAL_ADC_STATE_INJ_EOC,
 505              		.loc 1 275 5 is_stmt 1 view .LVU150
 506 0050 036C     		ldr	r3, [r0, #64]
 507 0052 23F44053 		bic	r3, r3, #12288
 508 0056 23F00103 		bic	r3, r3, #1
ARM GAS  C:\Users\LENOVO\AppData\Local\Temp\ccLbhjnu.s 			page 31


 509 005a 43F48053 		orr	r3, r3, #4096
 510 005e 0364     		str	r3, [r0, #64]
 283:Drivers/STM32F4xx_HAL_Driver/Src/stm32f4xx_hal_adc_ex.c ****     {
 511              		.loc 1 283 5 view .LVU151
 283:Drivers/STM32F4xx_HAL_Driver/Src/stm32f4xx_hal_adc_ex.c ****     {
 512              		.loc 1 283 9 is_stmt 0 view .LVU152
 513 0060 036C     		ldr	r3, [r0, #64]
 283:Drivers/STM32F4xx_HAL_Driver/Src/stm32f4xx_hal_adc_ex.c ****     {
 514              		.loc 1 283 8 view .LVU153
 515 0062 13F4807F 		tst	r3, #256
 516 0066 01D1     		bne	.L34
 286:Drivers/STM32F4xx_HAL_Driver/Src/stm32f4xx_hal_adc_ex.c ****     }
 517              		.loc 1 286 7 is_stmt 1 view .LVU154
 518 0068 0023     		movs	r3, #0
 519 006a 4364     		str	r3, [r0, #68]
 520              	.L34:
 292:Drivers/STM32F4xx_HAL_Driver/Src/stm32f4xx_hal_adc_ex.c ****     
 521              		.loc 1 292 5 view .LVU155
 292:Drivers/STM32F4xx_HAL_Driver/Src/stm32f4xx_hal_adc_ex.c ****     
 522              		.loc 1 292 5 view .LVU156
 523 006c 0023     		movs	r3, #0
 524 006e 80F83C30 		strb	r3, [r0, #60]
 292:Drivers/STM32F4xx_HAL_Driver/Src/stm32f4xx_hal_adc_ex.c ****     
 525              		.loc 1 292 5 view .LVU157
 296:Drivers/STM32F4xx_HAL_Driver/Src/stm32f4xx_hal_adc_ex.c ****     
 526              		.loc 1 296 5 view .LVU158
 527 0072 6FF00403 		mvn	r3, #4
 528 0076 1360     		str	r3, [r2]
 299:Drivers/STM32F4xx_HAL_Driver/Src/stm32f4xx_hal_adc_ex.c **** 
 529              		.loc 1 299 5 view .LVU159
 530 0078 0268     		ldr	r2, [r0]
 531 007a 5368     		ldr	r3, [r2, #4]
 532 007c 43F08003 		orr	r3, r3, #128
 533 0080 5360     		str	r3, [r2, #4]
 304:Drivers/STM32F4xx_HAL_Driver/Src/stm32f4xx_hal_adc_ex.c ****     
 534              		.loc 1 304 5 view .LVU160
 535              	.LVL37:
 307:Drivers/STM32F4xx_HAL_Driver/Src/stm32f4xx_hal_adc_ex.c ****     {
 536              		.loc 1 307 5 view .LVU161
 307:Drivers/STM32F4xx_HAL_Driver/Src/stm32f4xx_hal_adc_ex.c ****     {
 537              		.loc 1 307 8 is_stmt 0 view .LVU162
 538 0082 1C4B     		ldr	r3, .L45+8
 539 0084 5B68     		ldr	r3, [r3, #4]
 307:Drivers/STM32F4xx_HAL_Driver/Src/stm32f4xx_hal_adc_ex.c ****     {
 540              		.loc 1 307 7 view .LVU163
 541 0086 13F01F0F 		tst	r3, #31
 542 008a 0ED1     		bne	.L35
 309:Drivers/STM32F4xx_HAL_Driver/Src/stm32f4xx_hal_adc_ex.c ****       tmp2 = HAL_IS_BIT_CLR(hadc->Instance->CR1, ADC_CR1_JAUTO);
 543              		.loc 1 309 7 is_stmt 1 view .LVU164
 309:Drivers/STM32F4xx_HAL_Driver/Src/stm32f4xx_hal_adc_ex.c ****       tmp2 = HAL_IS_BIT_CLR(hadc->Instance->CR1, ADC_CR1_JAUTO);
 544              		.loc 1 309 14 is_stmt 0 view .LVU165
 545 008c 0268     		ldr	r2, [r0]
 546 008e 9168     		ldr	r1, [r2, #8]
 547              	.LVL38:
 310:Drivers/STM32F4xx_HAL_Driver/Src/stm32f4xx_hal_adc_ex.c ****       if(tmp1 && tmp2)
 548              		.loc 1 310 7 is_stmt 1 view .LVU166
 310:Drivers/STM32F4xx_HAL_Driver/Src/stm32f4xx_hal_adc_ex.c ****       if(tmp1 && tmp2)
ARM GAS  C:\Users\LENOVO\AppData\Local\Temp\ccLbhjnu.s 			page 32


 549              		.loc 1 310 14 is_stmt 0 view .LVU167
 550 0090 5368     		ldr	r3, [r2, #4]
 551 0092 03F48063 		and	r3, r3, #1024
 552              	.LVL39:
 311:Drivers/STM32F4xx_HAL_Driver/Src/stm32f4xx_hal_adc_ex.c ****       {
 553              		.loc 1 311 7 is_stmt 1 view .LVU168
 311:Drivers/STM32F4xx_HAL_Driver/Src/stm32f4xx_hal_adc_ex.c ****       {
 554              		.loc 1 311 9 is_stmt 0 view .LVU169
 555 0096 11F4401F 		tst	r1, #3145728
 556 009a 1FD1     		bne	.L38
 311:Drivers/STM32F4xx_HAL_Driver/Src/stm32f4xx_hal_adc_ex.c ****       {
 557              		.loc 1 311 15 discriminator 1 view .LVU170
 558 009c 03BB     		cbnz	r3, .L39
 314:Drivers/STM32F4xx_HAL_Driver/Src/stm32f4xx_hal_adc_ex.c ****       }
 559              		.loc 1 314 9 is_stmt 1 view .LVU171
 314:Drivers/STM32F4xx_HAL_Driver/Src/stm32f4xx_hal_adc_ex.c ****       }
 560              		.loc 1 314 23 is_stmt 0 view .LVU172
 561 009e 9368     		ldr	r3, [r2, #8]
 562              	.LVL40:
 314:Drivers/STM32F4xx_HAL_Driver/Src/stm32f4xx_hal_adc_ex.c ****       }
 563              		.loc 1 314 29 view .LVU173
 564 00a0 43F48003 		orr	r3, r3, #4194304
 565 00a4 9360     		str	r3, [r2, #8]
 330:Drivers/STM32F4xx_HAL_Driver/Src/stm32f4xx_hal_adc_ex.c **** }
 566              		.loc 1 330 10 view .LVU174
 567 00a6 0020     		movs	r0, #0
 568              	.LVL41:
 330:Drivers/STM32F4xx_HAL_Driver/Src/stm32f4xx_hal_adc_ex.c **** }
 569              		.loc 1 330 10 view .LVU175
 570 00a8 16E0     		b	.L30
 571              	.LVL42:
 572              	.L35:
 319:Drivers/STM32F4xx_HAL_Driver/Src/stm32f4xx_hal_adc_ex.c ****       tmp2 = HAL_IS_BIT_CLR(hadc->Instance->CR1, ADC_CR1_JAUTO);
 573              		.loc 1 319 7 is_stmt 1 view .LVU176
 319:Drivers/STM32F4xx_HAL_Driver/Src/stm32f4xx_hal_adc_ex.c ****       tmp2 = HAL_IS_BIT_CLR(hadc->Instance->CR1, ADC_CR1_JAUTO);
 574              		.loc 1 319 14 is_stmt 0 view .LVU177
 575 00aa 0368     		ldr	r3, [r0]
 576 00ac 9A68     		ldr	r2, [r3, #8]
 577 00ae 02F44012 		and	r2, r2, #3145728
 578              	.LVL43:
 320:Drivers/STM32F4xx_HAL_Driver/Src/stm32f4xx_hal_adc_ex.c ****       if((hadc->Instance == ADC1) && tmp1 && tmp2)  
 579              		.loc 1 320 7 is_stmt 1 view .LVU178
 320:Drivers/STM32F4xx_HAL_Driver/Src/stm32f4xx_hal_adc_ex.c ****       if((hadc->Instance == ADC1) && tmp1 && tmp2)  
 580              		.loc 1 320 14 is_stmt 0 view .LVU179
 581 00b2 5968     		ldr	r1, [r3, #4]
 582 00b4 01F48061 		and	r1, r1, #1024
 583              	.LVL44:
 321:Drivers/STM32F4xx_HAL_Driver/Src/stm32f4xx_hal_adc_ex.c ****       {
 584              		.loc 1 321 7 is_stmt 1 view .LVU180
 321:Drivers/STM32F4xx_HAL_Driver/Src/stm32f4xx_hal_adc_ex.c ****       {
 585              		.loc 1 321 9 is_stmt 0 view .LVU181
 586 00b8 0F48     		ldr	r0, .L45+12
 587              	.LVL45:
 321:Drivers/STM32F4xx_HAL_Driver/Src/stm32f4xx_hal_adc_ex.c ****       {
 588              		.loc 1 321 9 view .LVU182
 589 00ba 8342     		cmp	r3, r0
 590 00bc 01D0     		beq	.L44
ARM GAS  C:\Users\LENOVO\AppData\Local\Temp\ccLbhjnu.s 			page 33


 330:Drivers/STM32F4xx_HAL_Driver/Src/stm32f4xx_hal_adc_ex.c **** }
 591              		.loc 1 330 10 view .LVU183
 592 00be 0020     		movs	r0, #0
 593 00c0 0AE0     		b	.L30
 594              	.L44:
 321:Drivers/STM32F4xx_HAL_Driver/Src/stm32f4xx_hal_adc_ex.c ****       {
 595              		.loc 1 321 35 discriminator 1 view .LVU184
 596 00c2 7AB9     		cbnz	r2, .L41
 321:Drivers/STM32F4xx_HAL_Driver/Src/stm32f4xx_hal_adc_ex.c ****       {
 597              		.loc 1 321 43 discriminator 2 view .LVU185
 598 00c4 81B9     		cbnz	r1, .L42
 324:Drivers/STM32F4xx_HAL_Driver/Src/stm32f4xx_hal_adc_ex.c ****       }
 599              		.loc 1 324 9 is_stmt 1 view .LVU186
 324:Drivers/STM32F4xx_HAL_Driver/Src/stm32f4xx_hal_adc_ex.c ****       }
 600              		.loc 1 324 23 is_stmt 0 view .LVU187
 601 00c6 9A68     		ldr	r2, [r3, #8]
 602              	.LVL46:
 324:Drivers/STM32F4xx_HAL_Driver/Src/stm32f4xx_hal_adc_ex.c ****       }
 603              		.loc 1 324 29 view .LVU188
 604 00c8 42F48002 		orr	r2, r2, #4194304
 605 00cc 9A60     		str	r2, [r3, #8]
 330:Drivers/STM32F4xx_HAL_Driver/Src/stm32f4xx_hal_adc_ex.c **** }
 606              		.loc 1 330 10 view .LVU189
 607 00ce 0020     		movs	r0, #0
 608 00d0 02E0     		b	.L30
 609              	.LVL47:
 610              	.L36:
 249:Drivers/STM32F4xx_HAL_Driver/Src/stm32f4xx_hal_adc_ex.c ****   
 611              		.loc 1 249 3 discriminator 1 view .LVU190
 612 00d2 0220     		movs	r0, #2
 613              	.LVL48:
 249:Drivers/STM32F4xx_HAL_Driver/Src/stm32f4xx_hal_adc_ex.c ****   
 614              		.loc 1 249 3 discriminator 1 view .LVU191
 615 00d4 00E0     		b	.L30
 616              	.LVL49:
 617              	.L37:
 330:Drivers/STM32F4xx_HAL_Driver/Src/stm32f4xx_hal_adc_ex.c **** }
 618              		.loc 1 330 10 view .LVU192
 619 00d6 0020     		movs	r0, #0
 620              	.LVL50:
 621              	.L30:
 331:Drivers/STM32F4xx_HAL_Driver/Src/stm32f4xx_hal_adc_ex.c **** 
 622              		.loc 1 331 1 view .LVU193
 623 00d8 02B0     		add	sp, sp, #8
 624              	.LCFI7:
 625              		.cfi_remember_state
 626              		.cfi_def_cfa_offset 0
 627              		@ sp needed
 628 00da 7047     		bx	lr
 629              	.LVL51:
 630              	.L38:
 631              	.LCFI8:
 632              		.cfi_restore_state
 330:Drivers/STM32F4xx_HAL_Driver/Src/stm32f4xx_hal_adc_ex.c **** }
 633              		.loc 1 330 10 view .LVU194
 634 00dc 0020     		movs	r0, #0
 635              	.LVL52:
ARM GAS  C:\Users\LENOVO\AppData\Local\Temp\ccLbhjnu.s 			page 34


 330:Drivers/STM32F4xx_HAL_Driver/Src/stm32f4xx_hal_adc_ex.c **** }
 636              		.loc 1 330 10 view .LVU195
 637 00de FBE7     		b	.L30
 638              	.LVL53:
 639              	.L39:
 330:Drivers/STM32F4xx_HAL_Driver/Src/stm32f4xx_hal_adc_ex.c **** }
 640              		.loc 1 330 10 view .LVU196
 641 00e0 0020     		movs	r0, #0
 642              	.LVL54:
 330:Drivers/STM32F4xx_HAL_Driver/Src/stm32f4xx_hal_adc_ex.c **** }
 643              		.loc 1 330 10 view .LVU197
 644 00e2 F9E7     		b	.L30
 645              	.LVL55:
 646              	.L41:
 330:Drivers/STM32F4xx_HAL_Driver/Src/stm32f4xx_hal_adc_ex.c **** }
 647              		.loc 1 330 10 view .LVU198
 648 00e4 0020     		movs	r0, #0
 649 00e6 F7E7     		b	.L30
 650              	.L42:
 651 00e8 0020     		movs	r0, #0
 652 00ea F5E7     		b	.L30
 653              	.L46:
 654              		.align	2
 655              	.L45:
 656 00ec 00000000 		.word	SystemCoreClock
 657 00f0 83DE1B43 		.word	1125899907
 658 00f4 00230140 		.word	1073816320
 659 00f8 00200140 		.word	1073815552
 660              		.cfi_endproc
 661              	.LFE131:
 663              		.section	.text.HAL_ADCEx_InjectedStop,"ax",%progbits
 664              		.align	1
 665              		.global	HAL_ADCEx_InjectedStop
 666              		.syntax unified
 667              		.thumb
 668              		.thumb_func
 670              	HAL_ADCEx_InjectedStop:
 671              	.LVL56:
 672              	.LFB132:
 346:Drivers/STM32F4xx_HAL_Driver/Src/stm32f4xx_hal_adc_ex.c ****   HAL_StatusTypeDef tmp_hal_status = HAL_OK;
 673              		.loc 1 346 1 is_stmt 1 view -0
 674              		.cfi_startproc
 675              		@ args = 0, pretend = 0, frame = 0
 676              		@ frame_needed = 0, uses_anonymous_args = 0
 677              		@ link register save eliminated.
 346:Drivers/STM32F4xx_HAL_Driver/Src/stm32f4xx_hal_adc_ex.c ****   HAL_StatusTypeDef tmp_hal_status = HAL_OK;
 678              		.loc 1 346 1 is_stmt 0 view .LVU200
 679 0000 0346     		mov	r3, r0
 347:Drivers/STM32F4xx_HAL_Driver/Src/stm32f4xx_hal_adc_ex.c ****   
 680              		.loc 1 347 3 is_stmt 1 view .LVU201
 681              	.LVL57:
 350:Drivers/STM32F4xx_HAL_Driver/Src/stm32f4xx_hal_adc_ex.c **** 
 682              		.loc 1 350 3 view .LVU202
 353:Drivers/STM32F4xx_HAL_Driver/Src/stm32f4xx_hal_adc_ex.c ****     
 683              		.loc 1 353 3 view .LVU203
 353:Drivers/STM32F4xx_HAL_Driver/Src/stm32f4xx_hal_adc_ex.c ****     
 684              		.loc 1 353 3 view .LVU204
ARM GAS  C:\Users\LENOVO\AppData\Local\Temp\ccLbhjnu.s 			page 35


 685 0002 90F83C20 		ldrb	r2, [r0, #60]	@ zero_extendqisi2
 686 0006 012A     		cmp	r2, #1
 687 0008 29D0     		beq	.L51
 353:Drivers/STM32F4xx_HAL_Driver/Src/stm32f4xx_hal_adc_ex.c ****     
 688              		.loc 1 353 3 discriminator 2 view .LVU205
 689 000a 0122     		movs	r2, #1
 690 000c 80F83C20 		strb	r2, [r0, #60]
 353:Drivers/STM32F4xx_HAL_Driver/Src/stm32f4xx_hal_adc_ex.c ****     
 691              		.loc 1 353 3 discriminator 2 view .LVU206
 361:Drivers/STM32F4xx_HAL_Driver/Src/stm32f4xx_hal_adc_ex.c ****      HAL_IS_BIT_CLR(hadc->Instance->CR1, ADC_CR1_JAUTO)   )
 692              		.loc 1 361 3 view .LVU207
 361:Drivers/STM32F4xx_HAL_Driver/Src/stm32f4xx_hal_adc_ex.c ****      HAL_IS_BIT_CLR(hadc->Instance->CR1, ADC_CR1_JAUTO)   )
 693              		.loc 1 361 12 is_stmt 0 view .LVU208
 694 0010 026C     		ldr	r2, [r0, #64]
 361:Drivers/STM32F4xx_HAL_Driver/Src/stm32f4xx_hal_adc_ex.c ****      HAL_IS_BIT_CLR(hadc->Instance->CR1, ADC_CR1_JAUTO)   )
 695              		.loc 1 361 5 view .LVU209
 696 0012 12F4807F 		tst	r2, #256
 697 0016 17D1     		bne	.L49
 362:Drivers/STM32F4xx_HAL_Driver/Src/stm32f4xx_hal_adc_ex.c ****   {
 698              		.loc 1 362 6 view .LVU210
 699 0018 0268     		ldr	r2, [r0]
 700 001a 5168     		ldr	r1, [r2, #4]
 361:Drivers/STM32F4xx_HAL_Driver/Src/stm32f4xx_hal_adc_ex.c ****      HAL_IS_BIT_CLR(hadc->Instance->CR1, ADC_CR1_JAUTO)   )
 701              		.loc 1 361 57 discriminator 1 view .LVU211
 702 001c 11F4806F 		tst	r1, #1024
 703 0020 12D1     		bne	.L49
 366:Drivers/STM32F4xx_HAL_Driver/Src/stm32f4xx_hal_adc_ex.c ****     
 704              		.loc 1 366 5 is_stmt 1 view .LVU212
 705 0022 9168     		ldr	r1, [r2, #8]
 706 0024 21F00101 		bic	r1, r1, #1
 707 0028 9160     		str	r1, [r2, #8]
 369:Drivers/STM32F4xx_HAL_Driver/Src/stm32f4xx_hal_adc_ex.c ****     {
 708              		.loc 1 369 5 view .LVU213
 369:Drivers/STM32F4xx_HAL_Driver/Src/stm32f4xx_hal_adc_ex.c ****     {
 709              		.loc 1 369 8 is_stmt 0 view .LVU214
 710 002a 0268     		ldr	r2, [r0]
 711 002c 9268     		ldr	r2, [r2, #8]
 369:Drivers/STM32F4xx_HAL_Driver/Src/stm32f4xx_hal_adc_ex.c ****     {
 712              		.loc 1 369 7 view .LVU215
 713 002e 12F0010F 		tst	r2, #1
 714 0032 12D1     		bne	.L52
 372:Drivers/STM32F4xx_HAL_Driver/Src/stm32f4xx_hal_adc_ex.c ****                         HAL_ADC_STATE_REG_BUSY | HAL_ADC_STATE_INJ_BUSY,
 715              		.loc 1 372 7 is_stmt 1 view .LVU216
 716 0034 026C     		ldr	r2, [r0, #64]
 717 0036 22F48852 		bic	r2, r2, #4352
 718 003a 22F00102 		bic	r2, r2, #1
 719 003e 42F00102 		orr	r2, r2, #1
 720 0042 0264     		str	r2, [r0, #64]
 347:Drivers/STM32F4xx_HAL_Driver/Src/stm32f4xx_hal_adc_ex.c ****   
 721              		.loc 1 347 21 is_stmt 0 view .LVU217
 722 0044 0020     		movs	r0, #0
 723              	.LVL58:
 347:Drivers/STM32F4xx_HAL_Driver/Src/stm32f4xx_hal_adc_ex.c ****   
 724              		.loc 1 347 21 view .LVU218
 725 0046 04E0     		b	.L50
 726              	.LVL59:
 727              	.L49:
ARM GAS  C:\Users\LENOVO\AppData\Local\Temp\ccLbhjnu.s 			page 36


 380:Drivers/STM32F4xx_HAL_Driver/Src/stm32f4xx_hal_adc_ex.c ****       
 728              		.loc 1 380 5 is_stmt 1 view .LVU219
 729 0048 1A6C     		ldr	r2, [r3, #64]
 730 004a 42F02002 		orr	r2, r2, #32
 731 004e 1A64     		str	r2, [r3, #64]
 382:Drivers/STM32F4xx_HAL_Driver/Src/stm32f4xx_hal_adc_ex.c ****   }
 732              		.loc 1 382 5 view .LVU220
 733              	.LVL60:
 382:Drivers/STM32F4xx_HAL_Driver/Src/stm32f4xx_hal_adc_ex.c ****   }
 734              		.loc 1 382 20 is_stmt 0 view .LVU221
 735 0050 0120     		movs	r0, #1
 736              	.LVL61:
 737              	.L50:
 386:Drivers/STM32F4xx_HAL_Driver/Src/stm32f4xx_hal_adc_ex.c ****   
 738              		.loc 1 386 3 is_stmt 1 view .LVU222
 386:Drivers/STM32F4xx_HAL_Driver/Src/stm32f4xx_hal_adc_ex.c ****   
 739              		.loc 1 386 3 view .LVU223
 740 0052 0022     		movs	r2, #0
 741 0054 83F83C20 		strb	r2, [r3, #60]
 386:Drivers/STM32F4xx_HAL_Driver/Src/stm32f4xx_hal_adc_ex.c ****   
 742              		.loc 1 386 3 view .LVU224
 389:Drivers/STM32F4xx_HAL_Driver/Src/stm32f4xx_hal_adc_ex.c **** }
 743              		.loc 1 389 3 view .LVU225
 389:Drivers/STM32F4xx_HAL_Driver/Src/stm32f4xx_hal_adc_ex.c **** }
 744              		.loc 1 389 10 is_stmt 0 view .LVU226
 745 0058 7047     		bx	lr
 746              	.LVL62:
 747              	.L52:
 347:Drivers/STM32F4xx_HAL_Driver/Src/stm32f4xx_hal_adc_ex.c ****   
 748              		.loc 1 347 21 view .LVU227
 749 005a 0020     		movs	r0, #0
 750              	.LVL63:
 347:Drivers/STM32F4xx_HAL_Driver/Src/stm32f4xx_hal_adc_ex.c ****   
 751              		.loc 1 347 21 view .LVU228
 752 005c F9E7     		b	.L50
 753              	.LVL64:
 754              	.L51:
 353:Drivers/STM32F4xx_HAL_Driver/Src/stm32f4xx_hal_adc_ex.c ****     
 755              		.loc 1 353 3 discriminator 1 view .LVU229
 756 005e 0220     		movs	r0, #2
 757              	.LVL65:
 390:Drivers/STM32F4xx_HAL_Driver/Src/stm32f4xx_hal_adc_ex.c **** 
 758              		.loc 1 390 1 view .LVU230
 759 0060 7047     		bx	lr
 760              		.cfi_endproc
 761              	.LFE132:
 763              		.section	.text.HAL_ADCEx_InjectedPollForConversion,"ax",%progbits
 764              		.align	1
 765              		.global	HAL_ADCEx_InjectedPollForConversion
 766              		.syntax unified
 767              		.thumb
 768              		.thumb_func
 770              	HAL_ADCEx_InjectedPollForConversion:
 771              	.LVL66:
 772              	.LFB133:
 400:Drivers/STM32F4xx_HAL_Driver/Src/stm32f4xx_hal_adc_ex.c ****   uint32_t tickstart = 0U;
 773              		.loc 1 400 1 is_stmt 1 view -0
ARM GAS  C:\Users\LENOVO\AppData\Local\Temp\ccLbhjnu.s 			page 37


 774              		.cfi_startproc
 775              		@ args = 0, pretend = 0, frame = 0
 776              		@ frame_needed = 0, uses_anonymous_args = 0
 400:Drivers/STM32F4xx_HAL_Driver/Src/stm32f4xx_hal_adc_ex.c ****   uint32_t tickstart = 0U;
 777              		.loc 1 400 1 is_stmt 0 view .LVU232
 778 0000 70B5     		push	{r4, r5, r6, lr}
 779              	.LCFI9:
 780              		.cfi_def_cfa_offset 16
 781              		.cfi_offset 4, -16
 782              		.cfi_offset 5, -12
 783              		.cfi_offset 6, -8
 784              		.cfi_offset 14, -4
 785 0002 0446     		mov	r4, r0
 786 0004 0D46     		mov	r5, r1
 401:Drivers/STM32F4xx_HAL_Driver/Src/stm32f4xx_hal_adc_ex.c **** 
 787              		.loc 1 401 3 is_stmt 1 view .LVU233
 788              	.LVL67:
 404:Drivers/STM32F4xx_HAL_Driver/Src/stm32f4xx_hal_adc_ex.c **** 
 789              		.loc 1 404 3 view .LVU234
 404:Drivers/STM32F4xx_HAL_Driver/Src/stm32f4xx_hal_adc_ex.c **** 
 790              		.loc 1 404 15 is_stmt 0 view .LVU235
 791 0006 FFF7FEFF 		bl	HAL_GetTick
 792              	.LVL68:
 404:Drivers/STM32F4xx_HAL_Driver/Src/stm32f4xx_hal_adc_ex.c **** 
 793              		.loc 1 404 15 view .LVU236
 794 000a 0646     		mov	r6, r0
 795              	.LVL69:
 407:Drivers/STM32F4xx_HAL_Driver/Src/stm32f4xx_hal_adc_ex.c ****   {
 796              		.loc 1 407 3 is_stmt 1 view .LVU237
 797              	.L55:
 407:Drivers/STM32F4xx_HAL_Driver/Src/stm32f4xx_hal_adc_ex.c ****   {
 798              		.loc 1 407 9 view .LVU238
 407:Drivers/STM32F4xx_HAL_Driver/Src/stm32f4xx_hal_adc_ex.c ****   {
 799              		.loc 1 407 11 is_stmt 0 view .LVU239
 800 000c 2368     		ldr	r3, [r4]
 801 000e 1A68     		ldr	r2, [r3]
 407:Drivers/STM32F4xx_HAL_Driver/Src/stm32f4xx_hal_adc_ex.c ****   {
 802              		.loc 1 407 9 view .LVU240
 803 0010 12F0040F 		tst	r2, #4
 804 0014 0FD1     		bne	.L66
 410:Drivers/STM32F4xx_HAL_Driver/Src/stm32f4xx_hal_adc_ex.c ****     {
 805              		.loc 1 410 5 is_stmt 1 view .LVU241
 410:Drivers/STM32F4xx_HAL_Driver/Src/stm32f4xx_hal_adc_ex.c ****     {
 806              		.loc 1 410 7 is_stmt 0 view .LVU242
 807 0016 B5F1FF3F 		cmp	r5, #-1
 808 001a F7D0     		beq	.L55
 412:Drivers/STM32F4xx_HAL_Driver/Src/stm32f4xx_hal_adc_ex.c ****       {
 809              		.loc 1 412 7 is_stmt 1 view .LVU243
 412:Drivers/STM32F4xx_HAL_Driver/Src/stm32f4xx_hal_adc_ex.c ****       {
 810              		.loc 1 412 9 is_stmt 0 view .LVU244
 811 001c 25B1     		cbz	r5, .L56
 412:Drivers/STM32F4xx_HAL_Driver/Src/stm32f4xx_hal_adc_ex.c ****       {
 812              		.loc 1 412 29 discriminator 1 view .LVU245
 813 001e FFF7FEFF 		bl	HAL_GetTick
 814              	.LVL70:
 412:Drivers/STM32F4xx_HAL_Driver/Src/stm32f4xx_hal_adc_ex.c ****       {
 815              		.loc 1 412 43 discriminator 1 view .LVU246
ARM GAS  C:\Users\LENOVO\AppData\Local\Temp\ccLbhjnu.s 			page 38


 816 0022 801B     		subs	r0, r0, r6
 412:Drivers/STM32F4xx_HAL_Driver/Src/stm32f4xx_hal_adc_ex.c ****       {
 817              		.loc 1 412 25 discriminator 1 view .LVU247
 818 0024 A842     		cmp	r0, r5
 819 0026 F1D9     		bls	.L55
 820              	.L56:
 414:Drivers/STM32F4xx_HAL_Driver/Src/stm32f4xx_hal_adc_ex.c ****         /* Process unlocked */
 821              		.loc 1 414 9 is_stmt 1 view .LVU248
 414:Drivers/STM32F4xx_HAL_Driver/Src/stm32f4xx_hal_adc_ex.c ****         /* Process unlocked */
 822              		.loc 1 414 20 is_stmt 0 view .LVU249
 823 0028 0423     		movs	r3, #4
 824 002a 2364     		str	r3, [r4, #64]
 416:Drivers/STM32F4xx_HAL_Driver/Src/stm32f4xx_hal_adc_ex.c ****         return HAL_TIMEOUT;
 825              		.loc 1 416 9 is_stmt 1 view .LVU250
 416:Drivers/STM32F4xx_HAL_Driver/Src/stm32f4xx_hal_adc_ex.c ****         return HAL_TIMEOUT;
 826              		.loc 1 416 9 view .LVU251
 827 002c 0023     		movs	r3, #0
 828 002e 84F83C30 		strb	r3, [r4, #60]
 416:Drivers/STM32F4xx_HAL_Driver/Src/stm32f4xx_hal_adc_ex.c ****         return HAL_TIMEOUT;
 829              		.loc 1 416 9 view .LVU252
 417:Drivers/STM32F4xx_HAL_Driver/Src/stm32f4xx_hal_adc_ex.c ****       }
 830              		.loc 1 417 9 view .LVU253
 417:Drivers/STM32F4xx_HAL_Driver/Src/stm32f4xx_hal_adc_ex.c ****       }
 831              		.loc 1 417 16 is_stmt 0 view .LVU254
 832 0032 0320     		movs	r0, #3
 833 0034 2BE0     		b	.L57
 834              	.L66:
 423:Drivers/STM32F4xx_HAL_Driver/Src/stm32f4xx_hal_adc_ex.c ****     
 835              		.loc 1 423 3 is_stmt 1 view .LVU255
 836 0036 6FF00C02 		mvn	r2, #12
 837 003a 1A60     		str	r2, [r3]
 426:Drivers/STM32F4xx_HAL_Driver/Src/stm32f4xx_hal_adc_ex.c ****   
 838              		.loc 1 426 3 view .LVU256
 839 003c 236C     		ldr	r3, [r4, #64]
 840 003e 43F40053 		orr	r3, r3, #8192
 841 0042 2364     		str	r3, [r4, #64]
 434:Drivers/STM32F4xx_HAL_Driver/Src/stm32f4xx_hal_adc_ex.c ****      (HAL_IS_BIT_CLR(hadc->Instance->JSQR, ADC_JSQR_JL)  ||
 842              		.loc 1 434 3 view .LVU257
 434:Drivers/STM32F4xx_HAL_Driver/Src/stm32f4xx_hal_adc_ex.c ****      (HAL_IS_BIT_CLR(hadc->Instance->JSQR, ADC_JSQR_JL)  ||
 843              		.loc 1 434 6 is_stmt 0 view .LVU258
 844 0044 2368     		ldr	r3, [r4]
 845 0046 9A68     		ldr	r2, [r3, #8]
 434:Drivers/STM32F4xx_HAL_Driver/Src/stm32f4xx_hal_adc_ex.c ****      (HAL_IS_BIT_CLR(hadc->Instance->JSQR, ADC_JSQR_JL)  ||
 846              		.loc 1 434 5 view .LVU259
 847 0048 12F4401F 		tst	r2, #3145728
 848 004c 1ED1     		bne	.L60
 435:Drivers/STM32F4xx_HAL_Driver/Src/stm32f4xx_hal_adc_ex.c ****       HAL_IS_BIT_CLR(hadc->Instance->CR2, ADC_CR2_EOCS)    ) &&
 849              		.loc 1 435 7 view .LVU260
 850 004e 9A6B     		ldr	r2, [r3, #56]
 434:Drivers/STM32F4xx_HAL_Driver/Src/stm32f4xx_hal_adc_ex.c ****      (HAL_IS_BIT_CLR(hadc->Instance->JSQR, ADC_JSQR_JL)  ||
 851              		.loc 1 434 62 discriminator 1 view .LVU261
 852 0050 12F4401F 		tst	r2, #3145728
 853 0054 03D0     		beq	.L59
 436:Drivers/STM32F4xx_HAL_Driver/Src/stm32f4xx_hal_adc_ex.c ****      (HAL_IS_BIT_CLR(hadc->Instance->CR1, ADC_CR1_JAUTO) &&
 854              		.loc 1 436 7 view .LVU262
 855 0056 9A68     		ldr	r2, [r3, #8]
 435:Drivers/STM32F4xx_HAL_Driver/Src/stm32f4xx_hal_adc_ex.c ****       HAL_IS_BIT_CLR(hadc->Instance->CR2, ADC_CR2_EOCS)    ) &&
ARM GAS  C:\Users\LENOVO\AppData\Local\Temp\ccLbhjnu.s 			page 39


 856              		.loc 1 435 58 view .LVU263
 857 0058 12F4806F 		tst	r2, #1024
 858 005c 18D1     		bne	.L61
 859              	.L59:
 437:Drivers/STM32F4xx_HAL_Driver/Src/stm32f4xx_hal_adc_ex.c ****       (ADC_IS_SOFTWARE_START_REGULAR(hadc)       &&
 860              		.loc 1 437 7 view .LVU264
 861 005e 5A68     		ldr	r2, [r3, #4]
 436:Drivers/STM32F4xx_HAL_Driver/Src/stm32f4xx_hal_adc_ex.c ****      (HAL_IS_BIT_CLR(hadc->Instance->CR1, ADC_CR1_JAUTO) &&
 862              		.loc 1 436 62 view .LVU265
 863 0060 12F4806F 		tst	r2, #1024
 864 0064 16D1     		bne	.L62
 438:Drivers/STM32F4xx_HAL_Driver/Src/stm32f4xx_hal_adc_ex.c ****       (hadc->Init.ContinuousConvMode == DISABLE)   )       )   )
 865              		.loc 1 438 8 view .LVU266
 866 0066 9B68     		ldr	r3, [r3, #8]
 437:Drivers/STM32F4xx_HAL_Driver/Src/stm32f4xx_hal_adc_ex.c ****       (ADC_IS_SOFTWARE_START_REGULAR(hadc)       &&
 867              		.loc 1 437 58 view .LVU267
 868 0068 13F0405F 		tst	r3, #805306368
 869 006c 14D1     		bne	.L63
 439:Drivers/STM32F4xx_HAL_Driver/Src/stm32f4xx_hal_adc_ex.c ****   {
 870              		.loc 1 439 18 view .LVU268
 871 006e 207E     		ldrb	r0, [r4, #24]	@ zero_extendqisi2
 438:Drivers/STM32F4xx_HAL_Driver/Src/stm32f4xx_hal_adc_ex.c ****       (hadc->Init.ContinuousConvMode == DISABLE)   )       )   )
 872              		.loc 1 438 50 view .LVU269
 873 0070 A0B9     		cbnz	r0, .L64
 442:Drivers/STM32F4xx_HAL_Driver/Src/stm32f4xx_hal_adc_ex.c ****     
 874              		.loc 1 442 5 is_stmt 1 view .LVU270
 875 0072 236C     		ldr	r3, [r4, #64]
 876 0074 23F48053 		bic	r3, r3, #4096
 877 0078 2364     		str	r3, [r4, #64]
 444:Drivers/STM32F4xx_HAL_Driver/Src/stm32f4xx_hal_adc_ex.c ****     { 
 878              		.loc 1 444 5 view .LVU271
 444:Drivers/STM32F4xx_HAL_Driver/Src/stm32f4xx_hal_adc_ex.c ****     { 
 879              		.loc 1 444 9 is_stmt 0 view .LVU272
 880 007a 236C     		ldr	r3, [r4, #64]
 444:Drivers/STM32F4xx_HAL_Driver/Src/stm32f4xx_hal_adc_ex.c ****     { 
 881              		.loc 1 444 8 view .LVU273
 882 007c 13F4807F 		tst	r3, #256
 883 0080 05D1     		bne	.L57
 446:Drivers/STM32F4xx_HAL_Driver/Src/stm32f4xx_hal_adc_ex.c ****     }
 884              		.loc 1 446 7 is_stmt 1 view .LVU274
 885 0082 236C     		ldr	r3, [r4, #64]
 886 0084 43F00103 		orr	r3, r3, #1
 887 0088 2364     		str	r3, [r4, #64]
 888 008a 00E0     		b	.L57
 889              	.L60:
 451:Drivers/STM32F4xx_HAL_Driver/Src/stm32f4xx_hal_adc_ex.c **** }      
 890              		.loc 1 451 10 is_stmt 0 view .LVU275
 891 008c 0020     		movs	r0, #0
 892              	.L57:
 452:Drivers/STM32F4xx_HAL_Driver/Src/stm32f4xx_hal_adc_ex.c ****   
 893              		.loc 1 452 1 view .LVU276
 894 008e 70BD     		pop	{r4, r5, r6, pc}
 895              	.LVL71:
 896              	.L61:
 451:Drivers/STM32F4xx_HAL_Driver/Src/stm32f4xx_hal_adc_ex.c **** }      
 897              		.loc 1 451 10 view .LVU277
 898 0090 0020     		movs	r0, #0
ARM GAS  C:\Users\LENOVO\AppData\Local\Temp\ccLbhjnu.s 			page 40


 899 0092 FCE7     		b	.L57
 900              	.L62:
 901 0094 0020     		movs	r0, #0
 902 0096 FAE7     		b	.L57
 903              	.L63:
 904 0098 0020     		movs	r0, #0
 905 009a F8E7     		b	.L57
 906              	.L64:
 451:Drivers/STM32F4xx_HAL_Driver/Src/stm32f4xx_hal_adc_ex.c **** }      
 907              		.loc 1 451 10 view .LVU278
 908 009c 0020     		movs	r0, #0
 909 009e F6E7     		b	.L57
 910              		.cfi_endproc
 911              	.LFE133:
 913              		.section	.text.HAL_ADCEx_InjectedStop_IT,"ax",%progbits
 914              		.align	1
 915              		.global	HAL_ADCEx_InjectedStop_IT
 916              		.syntax unified
 917              		.thumb
 918              		.thumb_func
 920              	HAL_ADCEx_InjectedStop_IT:
 921              	.LVL72:
 922              	.LFB134:
 467:Drivers/STM32F4xx_HAL_Driver/Src/stm32f4xx_hal_adc_ex.c ****   HAL_StatusTypeDef tmp_hal_status = HAL_OK;
 923              		.loc 1 467 1 is_stmt 1 view -0
 924              		.cfi_startproc
 925              		@ args = 0, pretend = 0, frame = 0
 926              		@ frame_needed = 0, uses_anonymous_args = 0
 927              		@ link register save eliminated.
 467:Drivers/STM32F4xx_HAL_Driver/Src/stm32f4xx_hal_adc_ex.c ****   HAL_StatusTypeDef tmp_hal_status = HAL_OK;
 928              		.loc 1 467 1 is_stmt 0 view .LVU280
 929 0000 0346     		mov	r3, r0
 468:Drivers/STM32F4xx_HAL_Driver/Src/stm32f4xx_hal_adc_ex.c ****   
 930              		.loc 1 468 3 is_stmt 1 view .LVU281
 931              	.LVL73:
 471:Drivers/STM32F4xx_HAL_Driver/Src/stm32f4xx_hal_adc_ex.c **** 
 932              		.loc 1 471 3 view .LVU282
 474:Drivers/STM32F4xx_HAL_Driver/Src/stm32f4xx_hal_adc_ex.c ****     
 933              		.loc 1 474 3 view .LVU283
 474:Drivers/STM32F4xx_HAL_Driver/Src/stm32f4xx_hal_adc_ex.c ****     
 934              		.loc 1 474 3 view .LVU284
 935 0002 90F83C20 		ldrb	r2, [r0, #60]	@ zero_extendqisi2
 936 0006 012A     		cmp	r2, #1
 937 0008 2DD0     		beq	.L71
 474:Drivers/STM32F4xx_HAL_Driver/Src/stm32f4xx_hal_adc_ex.c ****     
 938              		.loc 1 474 3 discriminator 2 view .LVU285
 939 000a 0122     		movs	r2, #1
 940 000c 80F83C20 		strb	r2, [r0, #60]
 474:Drivers/STM32F4xx_HAL_Driver/Src/stm32f4xx_hal_adc_ex.c ****     
 941              		.loc 1 474 3 discriminator 2 view .LVU286
 482:Drivers/STM32F4xx_HAL_Driver/Src/stm32f4xx_hal_adc_ex.c ****      HAL_IS_BIT_CLR(hadc->Instance->CR1, ADC_CR1_JAUTO)   )
 942              		.loc 1 482 3 view .LVU287
 482:Drivers/STM32F4xx_HAL_Driver/Src/stm32f4xx_hal_adc_ex.c ****      HAL_IS_BIT_CLR(hadc->Instance->CR1, ADC_CR1_JAUTO)   )
 943              		.loc 1 482 12 is_stmt 0 view .LVU288
 944 0010 026C     		ldr	r2, [r0, #64]
 482:Drivers/STM32F4xx_HAL_Driver/Src/stm32f4xx_hal_adc_ex.c ****      HAL_IS_BIT_CLR(hadc->Instance->CR1, ADC_CR1_JAUTO)   )
 945              		.loc 1 482 5 view .LVU289
ARM GAS  C:\Users\LENOVO\AppData\Local\Temp\ccLbhjnu.s 			page 41


 946 0012 12F4807F 		tst	r2, #256
 947 0016 1BD1     		bne	.L69
 483:Drivers/STM32F4xx_HAL_Driver/Src/stm32f4xx_hal_adc_ex.c ****   {
 948              		.loc 1 483 6 view .LVU290
 949 0018 0268     		ldr	r2, [r0]
 950 001a 5168     		ldr	r1, [r2, #4]
 482:Drivers/STM32F4xx_HAL_Driver/Src/stm32f4xx_hal_adc_ex.c ****      HAL_IS_BIT_CLR(hadc->Instance->CR1, ADC_CR1_JAUTO)   )
 951              		.loc 1 482 57 discriminator 1 view .LVU291
 952 001c 11F4806F 		tst	r1, #1024
 953 0020 16D1     		bne	.L69
 487:Drivers/STM32F4xx_HAL_Driver/Src/stm32f4xx_hal_adc_ex.c ****     
 954              		.loc 1 487 5 is_stmt 1 view .LVU292
 955 0022 9168     		ldr	r1, [r2, #8]
 956 0024 21F00101 		bic	r1, r1, #1
 957 0028 9160     		str	r1, [r2, #8]
 490:Drivers/STM32F4xx_HAL_Driver/Src/stm32f4xx_hal_adc_ex.c ****     {
 958              		.loc 1 490 5 view .LVU293
 490:Drivers/STM32F4xx_HAL_Driver/Src/stm32f4xx_hal_adc_ex.c ****     {
 959              		.loc 1 490 8 is_stmt 0 view .LVU294
 960 002a 0268     		ldr	r2, [r0]
 961 002c 9168     		ldr	r1, [r2, #8]
 490:Drivers/STM32F4xx_HAL_Driver/Src/stm32f4xx_hal_adc_ex.c ****     {
 962              		.loc 1 490 7 view .LVU295
 963 002e 11F0010F 		tst	r1, #1
 964 0032 16D1     		bne	.L72
 493:Drivers/STM32F4xx_HAL_Driver/Src/stm32f4xx_hal_adc_ex.c ****       
 965              		.loc 1 493 7 is_stmt 1 view .LVU296
 966 0034 5168     		ldr	r1, [r2, #4]
 967 0036 21F08001 		bic	r1, r1, #128
 968 003a 5160     		str	r1, [r2, #4]
 496:Drivers/STM32F4xx_HAL_Driver/Src/stm32f4xx_hal_adc_ex.c ****                         HAL_ADC_STATE_REG_BUSY | HAL_ADC_STATE_INJ_BUSY,
 969              		.loc 1 496 7 view .LVU297
 970 003c 026C     		ldr	r2, [r0, #64]
 971 003e 22F48852 		bic	r2, r2, #4352
 972 0042 22F00102 		bic	r2, r2, #1
 973 0046 42F00102 		orr	r2, r2, #1
 974 004a 0264     		str	r2, [r0, #64]
 468:Drivers/STM32F4xx_HAL_Driver/Src/stm32f4xx_hal_adc_ex.c ****   
 975              		.loc 1 468 21 is_stmt 0 view .LVU298
 976 004c 0020     		movs	r0, #0
 977              	.LVL74:
 468:Drivers/STM32F4xx_HAL_Driver/Src/stm32f4xx_hal_adc_ex.c ****   
 978              		.loc 1 468 21 view .LVU299
 979 004e 04E0     		b	.L70
 980              	.LVL75:
 981              	.L69:
 504:Drivers/STM32F4xx_HAL_Driver/Src/stm32f4xx_hal_adc_ex.c ****       
 982              		.loc 1 504 5 is_stmt 1 view .LVU300
 983 0050 1A6C     		ldr	r2, [r3, #64]
 984 0052 42F02002 		orr	r2, r2, #32
 985 0056 1A64     		str	r2, [r3, #64]
 506:Drivers/STM32F4xx_HAL_Driver/Src/stm32f4xx_hal_adc_ex.c ****   }
 986              		.loc 1 506 5 view .LVU301
 987              	.LVL76:
 506:Drivers/STM32F4xx_HAL_Driver/Src/stm32f4xx_hal_adc_ex.c ****   }
 988              		.loc 1 506 20 is_stmt 0 view .LVU302
 989 0058 0120     		movs	r0, #1
ARM GAS  C:\Users\LENOVO\AppData\Local\Temp\ccLbhjnu.s 			page 42


 990              	.LVL77:
 991              	.L70:
 510:Drivers/STM32F4xx_HAL_Driver/Src/stm32f4xx_hal_adc_ex.c ****   
 992              		.loc 1 510 3 is_stmt 1 view .LVU303
 510:Drivers/STM32F4xx_HAL_Driver/Src/stm32f4xx_hal_adc_ex.c ****   
 993              		.loc 1 510 3 view .LVU304
 994 005a 0022     		movs	r2, #0
 995 005c 83F83C20 		strb	r2, [r3, #60]
 510:Drivers/STM32F4xx_HAL_Driver/Src/stm32f4xx_hal_adc_ex.c ****   
 996              		.loc 1 510 3 view .LVU305
 513:Drivers/STM32F4xx_HAL_Driver/Src/stm32f4xx_hal_adc_ex.c **** }
 997              		.loc 1 513 3 view .LVU306
 513:Drivers/STM32F4xx_HAL_Driver/Src/stm32f4xx_hal_adc_ex.c **** }
 998              		.loc 1 513 10 is_stmt 0 view .LVU307
 999 0060 7047     		bx	lr
 1000              	.LVL78:
 1001              	.L72:
 468:Drivers/STM32F4xx_HAL_Driver/Src/stm32f4xx_hal_adc_ex.c ****   
 1002              		.loc 1 468 21 view .LVU308
 1003 0062 0020     		movs	r0, #0
 1004              	.LVL79:
 468:Drivers/STM32F4xx_HAL_Driver/Src/stm32f4xx_hal_adc_ex.c ****   
 1005              		.loc 1 468 21 view .LVU309
 1006 0064 F9E7     		b	.L70
 1007              	.LVL80:
 1008              	.L71:
 474:Drivers/STM32F4xx_HAL_Driver/Src/stm32f4xx_hal_adc_ex.c ****     
 1009              		.loc 1 474 3 discriminator 1 view .LVU310
 1010 0066 0220     		movs	r0, #2
 1011              	.LVL81:
 514:Drivers/STM32F4xx_HAL_Driver/Src/stm32f4xx_hal_adc_ex.c **** 
 1012              		.loc 1 514 1 view .LVU311
 1013 0068 7047     		bx	lr
 1014              		.cfi_endproc
 1015              	.LFE134:
 1017              		.section	.text.HAL_ADCEx_InjectedGetValue,"ax",%progbits
 1018              		.align	1
 1019              		.global	HAL_ADCEx_InjectedGetValue
 1020              		.syntax unified
 1021              		.thumb
 1022              		.thumb_func
 1024              	HAL_ADCEx_InjectedGetValue:
 1025              	.LVL82:
 1026              	.LFB135:
 529:Drivers/STM32F4xx_HAL_Driver/Src/stm32f4xx_hal_adc_ex.c ****   __IO uint32_t tmp = 0U;
 1027              		.loc 1 529 1 is_stmt 1 view -0
 1028              		.cfi_startproc
 1029              		@ args = 0, pretend = 0, frame = 8
 1030              		@ frame_needed = 0, uses_anonymous_args = 0
 1031              		@ link register save eliminated.
 529:Drivers/STM32F4xx_HAL_Driver/Src/stm32f4xx_hal_adc_ex.c ****   __IO uint32_t tmp = 0U;
 1032              		.loc 1 529 1 is_stmt 0 view .LVU313
 1033 0000 82B0     		sub	sp, sp, #8
 1034              	.LCFI10:
 1035              		.cfi_def_cfa_offset 8
 530:Drivers/STM32F4xx_HAL_Driver/Src/stm32f4xx_hal_adc_ex.c ****   
 1036              		.loc 1 530 3 is_stmt 1 view .LVU314
ARM GAS  C:\Users\LENOVO\AppData\Local\Temp\ccLbhjnu.s 			page 43


 530:Drivers/STM32F4xx_HAL_Driver/Src/stm32f4xx_hal_adc_ex.c ****   
 1037              		.loc 1 530 17 is_stmt 0 view .LVU315
 1038 0002 0023     		movs	r3, #0
 1039 0004 0193     		str	r3, [sp, #4]
 533:Drivers/STM32F4xx_HAL_Driver/Src/stm32f4xx_hal_adc_ex.c ****   
 1040              		.loc 1 533 3 is_stmt 1 view .LVU316
 537:Drivers/STM32F4xx_HAL_Driver/Src/stm32f4xx_hal_adc_ex.c ****   
 1041              		.loc 1 537 3 view .LVU317
 1042 0006 0368     		ldr	r3, [r0]
 1043 0008 6FF00402 		mvn	r2, #4
 1044 000c 1A60     		str	r2, [r3]
 540:Drivers/STM32F4xx_HAL_Driver/Src/stm32f4xx_hal_adc_ex.c ****   {  
 1045              		.loc 1 540 3 view .LVU318
 1046 000e 0139     		subs	r1, r1, #1
 1047              	.LVL83:
 540:Drivers/STM32F4xx_HAL_Driver/Src/stm32f4xx_hal_adc_ex.c ****   {  
 1048              		.loc 1 540 3 is_stmt 0 view .LVU319
 1049 0010 0329     		cmp	r1, #3
 1050 0012 06D8     		bhi	.L74
 1051 0014 DFE801F0 		tbb	[pc, r1]
 1052              	.L76:
 1053 0018 10       		.byte	(.L79-.L76)/2
 1054 0019 0C       		.byte	(.L78-.L76)/2
 1055 001a 08       		.byte	(.L77-.L76)/2
 1056 001b 02       		.byte	(.L75-.L76)/2
 1057              		.p2align 1
 1058              	.L75:
 544:Drivers/STM32F4xx_HAL_Driver/Src/stm32f4xx_hal_adc_ex.c ****     }  
 1059              		.loc 1 544 7 is_stmt 1 view .LVU320
 544:Drivers/STM32F4xx_HAL_Driver/Src/stm32f4xx_hal_adc_ex.c ****     }  
 1060              		.loc 1 544 18 is_stmt 0 view .LVU321
 1061 001c 0368     		ldr	r3, [r0]
 544:Drivers/STM32F4xx_HAL_Driver/Src/stm32f4xx_hal_adc_ex.c ****     }  
 1062              		.loc 1 544 28 view .LVU322
 1063 001e 9B6C     		ldr	r3, [r3, #72]
 544:Drivers/STM32F4xx_HAL_Driver/Src/stm32f4xx_hal_adc_ex.c ****     }  
 1064              		.loc 1 544 11 view .LVU323
 1065 0020 0193     		str	r3, [sp, #4]
 546:Drivers/STM32F4xx_HAL_Driver/Src/stm32f4xx_hal_adc_ex.c ****     case ADC_INJECTED_RANK_3: 
 1066              		.loc 1 546 5 is_stmt 1 view .LVU324
 1067              	.L74:
 565:Drivers/STM32F4xx_HAL_Driver/Src/stm32f4xx_hal_adc_ex.c **** }
 1068              		.loc 1 565 3 view .LVU325
 565:Drivers/STM32F4xx_HAL_Driver/Src/stm32f4xx_hal_adc_ex.c **** }
 1069              		.loc 1 565 10 is_stmt 0 view .LVU326
 1070 0022 0198     		ldr	r0, [sp, #4]
 1071              	.LVL84:
 566:Drivers/STM32F4xx_HAL_Driver/Src/stm32f4xx_hal_adc_ex.c **** 
 1072              		.loc 1 566 1 view .LVU327
 1073 0024 02B0     		add	sp, sp, #8
 1074              	.LCFI11:
 1075              		.cfi_remember_state
 1076              		.cfi_def_cfa_offset 0
 1077              		@ sp needed
 1078 0026 7047     		bx	lr
 1079              	.LVL85:
 1080              	.L77:
ARM GAS  C:\Users\LENOVO\AppData\Local\Temp\ccLbhjnu.s 			page 44


 1081              	.LCFI12:
 1082              		.cfi_restore_state
 549:Drivers/STM32F4xx_HAL_Driver/Src/stm32f4xx_hal_adc_ex.c ****     }  
 1083              		.loc 1 549 7 is_stmt 1 view .LVU328
 549:Drivers/STM32F4xx_HAL_Driver/Src/stm32f4xx_hal_adc_ex.c ****     }  
 1084              		.loc 1 549 18 is_stmt 0 view .LVU329
 1085 0028 0368     		ldr	r3, [r0]
 549:Drivers/STM32F4xx_HAL_Driver/Src/stm32f4xx_hal_adc_ex.c ****     }  
 1086              		.loc 1 549 28 view .LVU330
 1087 002a 5B6C     		ldr	r3, [r3, #68]
 549:Drivers/STM32F4xx_HAL_Driver/Src/stm32f4xx_hal_adc_ex.c ****     }  
 1088              		.loc 1 549 11 view .LVU331
 1089 002c 0193     		str	r3, [sp, #4]
 551:Drivers/STM32F4xx_HAL_Driver/Src/stm32f4xx_hal_adc_ex.c ****     case ADC_INJECTED_RANK_2: 
 1090              		.loc 1 551 5 is_stmt 1 view .LVU332
 1091 002e F8E7     		b	.L74
 1092              	.L78:
 554:Drivers/STM32F4xx_HAL_Driver/Src/stm32f4xx_hal_adc_ex.c ****     }
 1093              		.loc 1 554 7 view .LVU333
 554:Drivers/STM32F4xx_HAL_Driver/Src/stm32f4xx_hal_adc_ex.c ****     }
 1094              		.loc 1 554 18 is_stmt 0 view .LVU334
 1095 0030 0368     		ldr	r3, [r0]
 554:Drivers/STM32F4xx_HAL_Driver/Src/stm32f4xx_hal_adc_ex.c ****     }
 1096              		.loc 1 554 28 view .LVU335
 1097 0032 1B6C     		ldr	r3, [r3, #64]
 554:Drivers/STM32F4xx_HAL_Driver/Src/stm32f4xx_hal_adc_ex.c ****     }
 1098              		.loc 1 554 11 view .LVU336
 1099 0034 0193     		str	r3, [sp, #4]
 556:Drivers/STM32F4xx_HAL_Driver/Src/stm32f4xx_hal_adc_ex.c ****     case ADC_INJECTED_RANK_1:
 1100              		.loc 1 556 5 is_stmt 1 view .LVU337
 1101 0036 F4E7     		b	.L74
 1102              	.L79:
 559:Drivers/STM32F4xx_HAL_Driver/Src/stm32f4xx_hal_adc_ex.c ****     }
 1103              		.loc 1 559 7 view .LVU338
 559:Drivers/STM32F4xx_HAL_Driver/Src/stm32f4xx_hal_adc_ex.c ****     }
 1104              		.loc 1 559 18 is_stmt 0 view .LVU339
 1105 0038 0368     		ldr	r3, [r0]
 559:Drivers/STM32F4xx_HAL_Driver/Src/stm32f4xx_hal_adc_ex.c ****     }
 1106              		.loc 1 559 28 view .LVU340
 1107 003a DB6B     		ldr	r3, [r3, #60]
 559:Drivers/STM32F4xx_HAL_Driver/Src/stm32f4xx_hal_adc_ex.c ****     }
 1108              		.loc 1 559 11 view .LVU341
 1109 003c 0193     		str	r3, [sp, #4]
 561:Drivers/STM32F4xx_HAL_Driver/Src/stm32f4xx_hal_adc_ex.c ****     default:
 1110              		.loc 1 561 5 is_stmt 1 view .LVU342
 1111 003e F0E7     		b	.L74
 1112              		.cfi_endproc
 1113              	.LFE135:
 1115              		.section	.text.HAL_ADCEx_MultiModeStart_DMA,"ax",%progbits
 1116              		.align	1
 1117              		.global	HAL_ADCEx_MultiModeStart_DMA
 1118              		.syntax unified
 1119              		.thumb
 1120              		.thumb_func
 1122              	HAL_ADCEx_MultiModeStart_DMA:
 1123              	.LVL86:
 1124              	.LFB136:
ARM GAS  C:\Users\LENOVO\AppData\Local\Temp\ccLbhjnu.s 			page 45


 580:Drivers/STM32F4xx_HAL_Driver/Src/stm32f4xx_hal_adc_ex.c ****   __IO uint32_t counter = 0U;
 1125              		.loc 1 580 1 view -0
 1126              		.cfi_startproc
 1127              		@ args = 0, pretend = 0, frame = 8
 1128              		@ frame_needed = 0, uses_anonymous_args = 0
 580:Drivers/STM32F4xx_HAL_Driver/Src/stm32f4xx_hal_adc_ex.c ****   __IO uint32_t counter = 0U;
 1129              		.loc 1 580 1 is_stmt 0 view .LVU344
 1130 0000 30B5     		push	{r4, r5, lr}
 1131              	.LCFI13:
 1132              		.cfi_def_cfa_offset 12
 1133              		.cfi_offset 4, -12
 1134              		.cfi_offset 5, -8
 1135              		.cfi_offset 14, -4
 1136 0002 83B0     		sub	sp, sp, #12
 1137              	.LCFI14:
 1138              		.cfi_def_cfa_offset 24
 1139 0004 1346     		mov	r3, r2
 581:Drivers/STM32F4xx_HAL_Driver/Src/stm32f4xx_hal_adc_ex.c ****   ADC_Common_TypeDef *tmpADC_Common;
 1140              		.loc 1 581 3 is_stmt 1 view .LVU345
 581:Drivers/STM32F4xx_HAL_Driver/Src/stm32f4xx_hal_adc_ex.c ****   ADC_Common_TypeDef *tmpADC_Common;
 1141              		.loc 1 581 17 is_stmt 0 view .LVU346
 1142 0006 0022     		movs	r2, #0
 1143              	.LVL87:
 581:Drivers/STM32F4xx_HAL_Driver/Src/stm32f4xx_hal_adc_ex.c ****   ADC_Common_TypeDef *tmpADC_Common;
 1144              		.loc 1 581 17 view .LVU347
 1145 0008 0192     		str	r2, [sp, #4]
 582:Drivers/STM32F4xx_HAL_Driver/Src/stm32f4xx_hal_adc_ex.c ****   
 1146              		.loc 1 582 3 is_stmt 1 view .LVU348
 585:Drivers/STM32F4xx_HAL_Driver/Src/stm32f4xx_hal_adc_ex.c ****   assert_param(IS_ADC_EXT_TRIG_EDGE(hadc->Init.ExternalTrigConvEdge));
 1147              		.loc 1 585 3 view .LVU349
 586:Drivers/STM32F4xx_HAL_Driver/Src/stm32f4xx_hal_adc_ex.c ****   assert_param(IS_FUNCTIONAL_STATE(hadc->Init.DMAContinuousRequests));
 1148              		.loc 1 586 3 view .LVU350
 587:Drivers/STM32F4xx_HAL_Driver/Src/stm32f4xx_hal_adc_ex.c ****   
 1149              		.loc 1 587 3 view .LVU351
 590:Drivers/STM32F4xx_HAL_Driver/Src/stm32f4xx_hal_adc_ex.c ****   
 1150              		.loc 1 590 3 view .LVU352
 590:Drivers/STM32F4xx_HAL_Driver/Src/stm32f4xx_hal_adc_ex.c ****   
 1151              		.loc 1 590 3 view .LVU353
 1152 000a 90F83C20 		ldrb	r2, [r0, #60]	@ zero_extendqisi2
 1153 000e 012A     		cmp	r2, #1
 1154 0010 71D0     		beq	.L92
 1155 0012 0546     		mov	r5, r0
 590:Drivers/STM32F4xx_HAL_Driver/Src/stm32f4xx_hal_adc_ex.c ****   
 1156              		.loc 1 590 3 discriminator 2 view .LVU354
 1157 0014 0122     		movs	r2, #1
 1158 0016 80F83C20 		strb	r2, [r0, #60]
 590:Drivers/STM32F4xx_HAL_Driver/Src/stm32f4xx_hal_adc_ex.c ****   
 1159              		.loc 1 590 3 discriminator 2 view .LVU355
 594:Drivers/STM32F4xx_HAL_Driver/Src/stm32f4xx_hal_adc_ex.c ****   {  
 1160              		.loc 1 594 3 view .LVU356
 594:Drivers/STM32F4xx_HAL_Driver/Src/stm32f4xx_hal_adc_ex.c ****   {  
 1161              		.loc 1 594 11 is_stmt 0 view .LVU357
 1162 001a 0268     		ldr	r2, [r0]
 594:Drivers/STM32F4xx_HAL_Driver/Src/stm32f4xx_hal_adc_ex.c ****   {  
 1163              		.loc 1 594 21 view .LVU358
 1164 001c 9068     		ldr	r0, [r2, #8]
 1165              	.LVL88:
ARM GAS  C:\Users\LENOVO\AppData\Local\Temp\ccLbhjnu.s 			page 46


 594:Drivers/STM32F4xx_HAL_Driver/Src/stm32f4xx_hal_adc_ex.c ****   {  
 1166              		.loc 1 594 5 view .LVU359
 1167 001e 10F0010F 		tst	r0, #1
 1168 0022 13D1     		bne	.L84
 597:Drivers/STM32F4xx_HAL_Driver/Src/stm32f4xx_hal_adc_ex.c ****     
 1169              		.loc 1 597 5 is_stmt 1 view .LVU360
 1170 0024 9068     		ldr	r0, [r2, #8]
 1171 0026 40F00100 		orr	r0, r0, #1
 1172 002a 9060     		str	r0, [r2, #8]
 601:Drivers/STM32F4xx_HAL_Driver/Src/stm32f4xx_hal_adc_ex.c ****     while(counter != 0U)
 1173              		.loc 1 601 5 view .LVU361
 601:Drivers/STM32F4xx_HAL_Driver/Src/stm32f4xx_hal_adc_ex.c ****     while(counter != 0U)
 1174              		.loc 1 601 53 is_stmt 0 view .LVU362
 1175 002c 354A     		ldr	r2, .L96
 1176 002e 1068     		ldr	r0, [r2]
 1177 0030 354A     		ldr	r2, .L96+4
 1178 0032 A2FB0020 		umull	r2, r0, r2, r0
 1179 0036 800C     		lsrs	r0, r0, #18
 601:Drivers/STM32F4xx_HAL_Driver/Src/stm32f4xx_hal_adc_ex.c ****     while(counter != 0U)
 1180              		.loc 1 601 34 view .LVU363
 1181 0038 00EB4000 		add	r0, r0, r0, lsl #1
 601:Drivers/STM32F4xx_HAL_Driver/Src/stm32f4xx_hal_adc_ex.c ****     while(counter != 0U)
 1182              		.loc 1 601 13 view .LVU364
 1183 003c 0190     		str	r0, [sp, #4]
 602:Drivers/STM32F4xx_HAL_Driver/Src/stm32f4xx_hal_adc_ex.c ****     {
 1184              		.loc 1 602 5 is_stmt 1 view .LVU365
 602:Drivers/STM32F4xx_HAL_Driver/Src/stm32f4xx_hal_adc_ex.c ****     {
 1185              		.loc 1 602 10 is_stmt 0 view .LVU366
 1186 003e 02E0     		b	.L85
 1187              	.L86:
 604:Drivers/STM32F4xx_HAL_Driver/Src/stm32f4xx_hal_adc_ex.c ****     }
 1188              		.loc 1 604 7 is_stmt 1 view .LVU367
 604:Drivers/STM32F4xx_HAL_Driver/Src/stm32f4xx_hal_adc_ex.c ****     }
 1189              		.loc 1 604 14 is_stmt 0 view .LVU368
 1190 0040 019C     		ldr	r4, [sp, #4]
 1191 0042 013C     		subs	r4, r4, #1
 1192 0044 0194     		str	r4, [sp, #4]
 1193              	.L85:
 602:Drivers/STM32F4xx_HAL_Driver/Src/stm32f4xx_hal_adc_ex.c ****     {
 1194              		.loc 1 602 19 is_stmt 1 view .LVU369
 1195 0046 0198     		ldr	r0, [sp, #4]
 1196 0048 0028     		cmp	r0, #0
 1197 004a F9D1     		bne	.L86
 1198              	.L84:
 609:Drivers/STM32F4xx_HAL_Driver/Src/stm32f4xx_hal_adc_ex.c ****   {
 1199              		.loc 1 609 3 view .LVU370
 609:Drivers/STM32F4xx_HAL_Driver/Src/stm32f4xx_hal_adc_ex.c ****   {
 1200              		.loc 1 609 6 is_stmt 0 view .LVU371
 1201 004c 2A68     		ldr	r2, [r5]
 1202 004e 9068     		ldr	r0, [r2, #8]
 609:Drivers/STM32F4xx_HAL_Driver/Src/stm32f4xx_hal_adc_ex.c ****   {
 1203              		.loc 1 609 5 view .LVU372
 1204 0050 10F0010F 		tst	r0, #1
 1205 0054 51D0     		beq	.L93
 614:Drivers/STM32F4xx_HAL_Driver/Src/stm32f4xx_hal_adc_ex.c ****                       HAL_ADC_STATE_READY | HAL_ADC_STATE_REG_EOC | HAL_ADC_STATE_REG_OVR,
 1206              		.loc 1 614 5 is_stmt 1 view .LVU373
 1207 0056 286C     		ldr	r0, [r5, #64]
ARM GAS  C:\Users\LENOVO\AppData\Local\Temp\ccLbhjnu.s 			page 47


 1208 0058 20F4E060 		bic	r0, r0, #1792
 1209 005c 20F00100 		bic	r0, r0, #1
 1210 0060 40F48070 		orr	r0, r0, #256
 1211 0064 2864     		str	r0, [r5, #64]
 620:Drivers/STM32F4xx_HAL_Driver/Src/stm32f4xx_hal_adc_ex.c ****     {
 1212              		.loc 1 620 5 view .LVU374
 620:Drivers/STM32F4xx_HAL_Driver/Src/stm32f4xx_hal_adc_ex.c ****     {
 1213              		.loc 1 620 9 is_stmt 0 view .LVU375
 1214 0066 5268     		ldr	r2, [r2, #4]
 620:Drivers/STM32F4xx_HAL_Driver/Src/stm32f4xx_hal_adc_ex.c ****     {
 1215              		.loc 1 620 8 view .LVU376
 1216 0068 12F4806F 		tst	r2, #1024
 1217 006c 05D0     		beq	.L87
 622:Drivers/STM32F4xx_HAL_Driver/Src/stm32f4xx_hal_adc_ex.c ****     }
 1218              		.loc 1 622 7 is_stmt 1 view .LVU377
 1219 006e 2A6C     		ldr	r2, [r5, #64]
 1220 0070 22F44052 		bic	r2, r2, #12288
 1221 0074 42F48052 		orr	r2, r2, #4096
 1222 0078 2A64     		str	r2, [r5, #64]
 1223              	.L87:
 626:Drivers/STM32F4xx_HAL_Driver/Src/stm32f4xx_hal_adc_ex.c ****     {
 1224              		.loc 1 626 5 view .LVU378
 626:Drivers/STM32F4xx_HAL_Driver/Src/stm32f4xx_hal_adc_ex.c ****     {
 1225              		.loc 1 626 9 is_stmt 0 view .LVU379
 1226 007a 2A6C     		ldr	r2, [r5, #64]
 626:Drivers/STM32F4xx_HAL_Driver/Src/stm32f4xx_hal_adc_ex.c ****     {
 1227              		.loc 1 626 8 view .LVU380
 1228 007c 12F4805F 		tst	r2, #4096
 1229 0080 30D0     		beq	.L88
 629:Drivers/STM32F4xx_HAL_Driver/Src/stm32f4xx_hal_adc_ex.c ****     }
 1230              		.loc 1 629 7 is_stmt 1 view .LVU381
 1231 0082 6A6C     		ldr	r2, [r5, #68]
 1232 0084 22F00602 		bic	r2, r2, #6
 1233 0088 6A64     		str	r2, [r5, #68]
 1234              	.L89:
 640:Drivers/STM32F4xx_HAL_Driver/Src/stm32f4xx_hal_adc_ex.c ****     
 1235              		.loc 1 640 5 view .LVU382
 640:Drivers/STM32F4xx_HAL_Driver/Src/stm32f4xx_hal_adc_ex.c ****     
 1236              		.loc 1 640 5 view .LVU383
 1237 008a 0022     		movs	r2, #0
 1238 008c 85F83C20 		strb	r2, [r5, #60]
 640:Drivers/STM32F4xx_HAL_Driver/Src/stm32f4xx_hal_adc_ex.c ****     
 1239              		.loc 1 640 5 view .LVU384
 643:Drivers/STM32F4xx_HAL_Driver/Src/stm32f4xx_hal_adc_ex.c ****     
 1240              		.loc 1 643 5 view .LVU385
 643:Drivers/STM32F4xx_HAL_Driver/Src/stm32f4xx_hal_adc_ex.c ****     
 1241              		.loc 1 643 9 is_stmt 0 view .LVU386
 1242 0090 AA6B     		ldr	r2, [r5, #56]
 643:Drivers/STM32F4xx_HAL_Driver/Src/stm32f4xx_hal_adc_ex.c ****     
 1243              		.loc 1 643 40 view .LVU387
 1244 0092 1E48     		ldr	r0, .L96+8
 1245 0094 D063     		str	r0, [r2, #60]
 646:Drivers/STM32F4xx_HAL_Driver/Src/stm32f4xx_hal_adc_ex.c ****     
 1246              		.loc 1 646 5 is_stmt 1 view .LVU388
 646:Drivers/STM32F4xx_HAL_Driver/Src/stm32f4xx_hal_adc_ex.c ****     
 1247              		.loc 1 646 9 is_stmt 0 view .LVU389
 1248 0096 AA6B     		ldr	r2, [r5, #56]
ARM GAS  C:\Users\LENOVO\AppData\Local\Temp\ccLbhjnu.s 			page 48


 646:Drivers/STM32F4xx_HAL_Driver/Src/stm32f4xx_hal_adc_ex.c ****     
 1249              		.loc 1 646 44 view .LVU390
 1250 0098 1D48     		ldr	r0, .L96+12
 1251 009a 1064     		str	r0, [r2, #64]
 649:Drivers/STM32F4xx_HAL_Driver/Src/stm32f4xx_hal_adc_ex.c ****     
 1252              		.loc 1 649 5 is_stmt 1 view .LVU391
 649:Drivers/STM32F4xx_HAL_Driver/Src/stm32f4xx_hal_adc_ex.c ****     
 1253              		.loc 1 649 9 is_stmt 0 view .LVU392
 1254 009c AA6B     		ldr	r2, [r5, #56]
 649:Drivers/STM32F4xx_HAL_Driver/Src/stm32f4xx_hal_adc_ex.c ****     
 1255              		.loc 1 649 41 view .LVU393
 1256 009e 1D48     		ldr	r0, .L96+16
 1257 00a0 D064     		str	r0, [r2, #76]
 656:Drivers/STM32F4xx_HAL_Driver/Src/stm32f4xx_hal_adc_ex.c **** 
 1258              		.loc 1 656 5 is_stmt 1 view .LVU394
 1259 00a2 2A68     		ldr	r2, [r5]
 1260 00a4 6FF00200 		mvn	r0, #2
 1261 00a8 1060     		str	r0, [r2]
 659:Drivers/STM32F4xx_HAL_Driver/Src/stm32f4xx_hal_adc_ex.c **** 
 1262              		.loc 1 659 5 view .LVU395
 1263 00aa 2868     		ldr	r0, [r5]
 1264 00ac 4268     		ldr	r2, [r0, #4]
 1265 00ae 42F08062 		orr	r2, r2, #67108864
 1266 00b2 4260     		str	r2, [r0, #4]
 664:Drivers/STM32F4xx_HAL_Driver/Src/stm32f4xx_hal_adc_ex.c **** 
 1267              		.loc 1 664 5 view .LVU396
 1268              	.LVL89:
 666:Drivers/STM32F4xx_HAL_Driver/Src/stm32f4xx_hal_adc_ex.c ****     {
 1269              		.loc 1 666 5 view .LVU397
 666:Drivers/STM32F4xx_HAL_Driver/Src/stm32f4xx_hal_adc_ex.c ****     {
 1270              		.loc 1 666 19 is_stmt 0 view .LVU398
 1271 00b4 95F83020 		ldrb	r2, [r5, #48]	@ zero_extendqisi2
 666:Drivers/STM32F4xx_HAL_Driver/Src/stm32f4xx_hal_adc_ex.c ****     {
 1272              		.loc 1 666 8 view .LVU399
 1273 00b8 BAB1     		cbz	r2, .L90
 669:Drivers/STM32F4xx_HAL_Driver/Src/stm32f4xx_hal_adc_ex.c ****     }
 1274              		.loc 1 669 7 is_stmt 1 view .LVU400
 669:Drivers/STM32F4xx_HAL_Driver/Src/stm32f4xx_hal_adc_ex.c ****     }
 1275              		.loc 1 669 20 is_stmt 0 view .LVU401
 1276 00ba 1748     		ldr	r0, .L96+20
 1277 00bc 4268     		ldr	r2, [r0, #4]
 669:Drivers/STM32F4xx_HAL_Driver/Src/stm32f4xx_hal_adc_ex.c ****     }
 1278              		.loc 1 669 26 view .LVU402
 1279 00be 42F40052 		orr	r2, r2, #8192
 1280 00c2 4260     		str	r2, [r0, #4]
 1281              	.L91:
 678:Drivers/STM32F4xx_HAL_Driver/Src/stm32f4xx_hal_adc_ex.c ****     
 1282              		.loc 1 678 5 is_stmt 1 view .LVU403
 1283 00c4 0A46     		mov	r2, r1
 1284 00c6 1549     		ldr	r1, .L96+24
 1285              	.LVL90:
 678:Drivers/STM32F4xx_HAL_Driver/Src/stm32f4xx_hal_adc_ex.c ****     
 1286              		.loc 1 678 5 is_stmt 0 view .LVU404
 1287 00c8 A86B     		ldr	r0, [r5, #56]
 1288 00ca FFF7FEFF 		bl	HAL_DMA_Start_IT
 1289              	.LVL91:
 681:Drivers/STM32F4xx_HAL_Driver/Src/stm32f4xx_hal_adc_ex.c ****     {
ARM GAS  C:\Users\LENOVO\AppData\Local\Temp\ccLbhjnu.s 			page 49


 1290              		.loc 1 681 5 is_stmt 1 view .LVU405
 681:Drivers/STM32F4xx_HAL_Driver/Src/stm32f4xx_hal_adc_ex.c ****     {
 1291              		.loc 1 681 13 is_stmt 0 view .LVU406
 1292 00ce 2B68     		ldr	r3, [r5]
 681:Drivers/STM32F4xx_HAL_Driver/Src/stm32f4xx_hal_adc_ex.c ****     {
 1293              		.loc 1 681 23 view .LVU407
 1294 00d0 9A68     		ldr	r2, [r3, #8]
 681:Drivers/STM32F4xx_HAL_Driver/Src/stm32f4xx_hal_adc_ex.c ****     {
 1295              		.loc 1 681 7 view .LVU408
 1296 00d2 12F0405F 		tst	r2, #805306368
 1297 00d6 13D1     		bne	.L94
 684:Drivers/STM32F4xx_HAL_Driver/Src/stm32f4xx_hal_adc_ex.c ****     }
 1298              		.loc 1 684 7 is_stmt 1 view .LVU409
 684:Drivers/STM32F4xx_HAL_Driver/Src/stm32f4xx_hal_adc_ex.c ****     }
 1299              		.loc 1 684 21 is_stmt 0 view .LVU410
 1300 00d8 9A68     		ldr	r2, [r3, #8]
 684:Drivers/STM32F4xx_HAL_Driver/Src/stm32f4xx_hal_adc_ex.c ****     }
 1301              		.loc 1 684 27 view .LVU411
 1302 00da 42F08042 		orr	r2, r2, #1073741824
 1303 00de 9A60     		str	r2, [r3, #8]
 689:Drivers/STM32F4xx_HAL_Driver/Src/stm32f4xx_hal_adc_ex.c **** }
 1304              		.loc 1 689 10 view .LVU412
 1305 00e0 0020     		movs	r0, #0
 1306 00e2 0BE0     		b	.L83
 1307              	.LVL92:
 1308              	.L88:
 634:Drivers/STM32F4xx_HAL_Driver/Src/stm32f4xx_hal_adc_ex.c ****     }
 1309              		.loc 1 634 7 is_stmt 1 view .LVU413
 1310 00e4 0022     		movs	r2, #0
 1311 00e6 6A64     		str	r2, [r5, #68]
 1312 00e8 CFE7     		b	.L89
 1313              	.LVL93:
 1314              	.L90:
 674:Drivers/STM32F4xx_HAL_Driver/Src/stm32f4xx_hal_adc_ex.c ****     }
 1315              		.loc 1 674 7 view .LVU414
 674:Drivers/STM32F4xx_HAL_Driver/Src/stm32f4xx_hal_adc_ex.c ****     }
 1316              		.loc 1 674 20 is_stmt 0 view .LVU415
 1317 00ea 0B48     		ldr	r0, .L96+20
 1318 00ec 4268     		ldr	r2, [r0, #4]
 674:Drivers/STM32F4xx_HAL_Driver/Src/stm32f4xx_hal_adc_ex.c ****     }
 1319              		.loc 1 674 26 view .LVU416
 1320 00ee 22F40052 		bic	r2, r2, #8192
 1321 00f2 4260     		str	r2, [r0, #4]
 1322 00f4 E6E7     		b	.L91
 1323              	.LVL94:
 1324              	.L92:
 590:Drivers/STM32F4xx_HAL_Driver/Src/stm32f4xx_hal_adc_ex.c ****   
 1325              		.loc 1 590 3 discriminator 1 view .LVU417
 1326 00f6 0220     		movs	r0, #2
 1327              	.LVL95:
 590:Drivers/STM32F4xx_HAL_Driver/Src/stm32f4xx_hal_adc_ex.c ****   
 1328              		.loc 1 590 3 discriminator 1 view .LVU418
 1329 00f8 00E0     		b	.L83
 1330              	.LVL96:
 1331              	.L93:
 689:Drivers/STM32F4xx_HAL_Driver/Src/stm32f4xx_hal_adc_ex.c **** }
 1332              		.loc 1 689 10 view .LVU419
ARM GAS  C:\Users\LENOVO\AppData\Local\Temp\ccLbhjnu.s 			page 50


 1333 00fa 0020     		movs	r0, #0
 1334              	.LVL97:
 1335              	.L83:
 690:Drivers/STM32F4xx_HAL_Driver/Src/stm32f4xx_hal_adc_ex.c **** 
 1336              		.loc 1 690 1 view .LVU420
 1337 00fc 03B0     		add	sp, sp, #12
 1338              	.LCFI15:
 1339              		.cfi_remember_state
 1340              		.cfi_def_cfa_offset 12
 1341              		@ sp needed
 1342 00fe 30BD     		pop	{r4, r5, pc}
 1343              	.LVL98:
 1344              	.L94:
 1345              	.LCFI16:
 1346              		.cfi_restore_state
 689:Drivers/STM32F4xx_HAL_Driver/Src/stm32f4xx_hal_adc_ex.c **** }
 1347              		.loc 1 689 10 view .LVU421
 1348 0100 0020     		movs	r0, #0
 1349 0102 FBE7     		b	.L83
 1350              	.L97:
 1351              		.align	2
 1352              	.L96:
 1353 0104 00000000 		.word	SystemCoreClock
 1354 0108 83DE1B43 		.word	1125899907
 1355 010c 00000000 		.word	ADC_MultiModeDMAConvCplt
 1356 0110 00000000 		.word	ADC_MultiModeDMAHalfConvCplt
 1357 0114 00000000 		.word	ADC_MultiModeDMAError
 1358 0118 00230140 		.word	1073816320
 1359 011c 08230140 		.word	1073816328
 1360              		.cfi_endproc
 1361              	.LFE136:
 1363              		.section	.text.HAL_ADCEx_MultiModeStop_DMA,"ax",%progbits
 1364              		.align	1
 1365              		.global	HAL_ADCEx_MultiModeStop_DMA
 1366              		.syntax unified
 1367              		.thumb
 1368              		.thumb_func
 1370              	HAL_ADCEx_MultiModeStop_DMA:
 1371              	.LVL99:
 1372              	.LFB137:
 699:Drivers/STM32F4xx_HAL_Driver/Src/stm32f4xx_hal_adc_ex.c ****   HAL_StatusTypeDef tmp_hal_status = HAL_OK;
 1373              		.loc 1 699 1 is_stmt 1 view -0
 1374              		.cfi_startproc
 1375              		@ args = 0, pretend = 0, frame = 0
 1376              		@ frame_needed = 0, uses_anonymous_args = 0
 700:Drivers/STM32F4xx_HAL_Driver/Src/stm32f4xx_hal_adc_ex.c ****   ADC_Common_TypeDef *tmpADC_Common;
 1377              		.loc 1 700 3 view .LVU423
 701:Drivers/STM32F4xx_HAL_Driver/Src/stm32f4xx_hal_adc_ex.c ****   
 1378              		.loc 1 701 3 view .LVU424
 704:Drivers/STM32F4xx_HAL_Driver/Src/stm32f4xx_hal_adc_ex.c ****   
 1379              		.loc 1 704 3 view .LVU425
 707:Drivers/STM32F4xx_HAL_Driver/Src/stm32f4xx_hal_adc_ex.c ****   
 1380              		.loc 1 707 3 view .LVU426
 707:Drivers/STM32F4xx_HAL_Driver/Src/stm32f4xx_hal_adc_ex.c ****   
 1381              		.loc 1 707 3 view .LVU427
 1382 0000 90F83C30 		ldrb	r3, [r0, #60]	@ zero_extendqisi2
 1383 0004 012B     		cmp	r3, #1
ARM GAS  C:\Users\LENOVO\AppData\Local\Temp\ccLbhjnu.s 			page 51


 1384 0006 29D0     		beq	.L101
 699:Drivers/STM32F4xx_HAL_Driver/Src/stm32f4xx_hal_adc_ex.c ****   HAL_StatusTypeDef tmp_hal_status = HAL_OK;
 1385              		.loc 1 699 1 is_stmt 0 view .LVU428
 1386 0008 10B5     		push	{r4, lr}
 1387              	.LCFI17:
 1388              		.cfi_def_cfa_offset 8
 1389              		.cfi_offset 4, -8
 1390              		.cfi_offset 14, -4
 1391 000a 0446     		mov	r4, r0
 707:Drivers/STM32F4xx_HAL_Driver/Src/stm32f4xx_hal_adc_ex.c ****   
 1392              		.loc 1 707 3 is_stmt 1 discriminator 2 view .LVU429
 1393 000c 0123     		movs	r3, #1
 1394 000e 80F83C30 		strb	r3, [r0, #60]
 707:Drivers/STM32F4xx_HAL_Driver/Src/stm32f4xx_hal_adc_ex.c ****   
 1395              		.loc 1 707 3 discriminator 2 view .LVU430
 711:Drivers/STM32F4xx_HAL_Driver/Src/stm32f4xx_hal_adc_ex.c **** 
 1396              		.loc 1 711 3 view .LVU431
 1397 0012 0268     		ldr	r2, [r0]
 1398 0014 9368     		ldr	r3, [r2, #8]
 1399 0016 23F00103 		bic	r3, r3, #1
 1400 001a 9360     		str	r3, [r2, #8]
 716:Drivers/STM32F4xx_HAL_Driver/Src/stm32f4xx_hal_adc_ex.c **** 
 1401              		.loc 1 716 3 view .LVU432
 1402              	.LVL100:
 719:Drivers/STM32F4xx_HAL_Driver/Src/stm32f4xx_hal_adc_ex.c ****   {
 1403              		.loc 1 719 3 view .LVU433
 719:Drivers/STM32F4xx_HAL_Driver/Src/stm32f4xx_hal_adc_ex.c ****   {
 1404              		.loc 1 719 6 is_stmt 0 view .LVU434
 1405 001c 0368     		ldr	r3, [r0]
 1406 001e 9B68     		ldr	r3, [r3, #8]
 719:Drivers/STM32F4xx_HAL_Driver/Src/stm32f4xx_hal_adc_ex.c ****   {
 1407              		.loc 1 719 5 view .LVU435
 1408 0020 13F0010F 		tst	r3, #1
 1409 0024 04D0     		beq	.L107
 700:Drivers/STM32F4xx_HAL_Driver/Src/stm32f4xx_hal_adc_ex.c ****   ADC_Common_TypeDef *tmpADC_Common;
 1410              		.loc 1 700 21 view .LVU436
 1411 0026 0020     		movs	r0, #0
 1412              	.LVL101:
 1413              	.L100:
 738:Drivers/STM32F4xx_HAL_Driver/Src/stm32f4xx_hal_adc_ex.c ****   
 1414              		.loc 1 738 3 is_stmt 1 view .LVU437
 738:Drivers/STM32F4xx_HAL_Driver/Src/stm32f4xx_hal_adc_ex.c ****   
 1415              		.loc 1 738 3 view .LVU438
 1416 0028 0023     		movs	r3, #0
 1417 002a 84F83C30 		strb	r3, [r4, #60]
 738:Drivers/STM32F4xx_HAL_Driver/Src/stm32f4xx_hal_adc_ex.c ****   
 1418              		.loc 1 738 3 view .LVU439
 741:Drivers/STM32F4xx_HAL_Driver/Src/stm32f4xx_hal_adc_ex.c **** }
 1419              		.loc 1 741 3 view .LVU440
 742:Drivers/STM32F4xx_HAL_Driver/Src/stm32f4xx_hal_adc_ex.c **** 
 1420              		.loc 1 742 1 is_stmt 0 view .LVU441
 1421 002e 10BD     		pop	{r4, pc}
 1422              	.LVL102:
 1423              	.L107:
 722:Drivers/STM32F4xx_HAL_Driver/Src/stm32f4xx_hal_adc_ex.c ****     
 1424              		.loc 1 722 5 is_stmt 1 view .LVU442
 722:Drivers/STM32F4xx_HAL_Driver/Src/stm32f4xx_hal_adc_ex.c ****     
ARM GAS  C:\Users\LENOVO\AppData\Local\Temp\ccLbhjnu.s 			page 52


 1425              		.loc 1 722 18 is_stmt 0 view .LVU443
 1426 0030 0B4A     		ldr	r2, .L108
 1427 0032 5368     		ldr	r3, [r2, #4]
 722:Drivers/STM32F4xx_HAL_Driver/Src/stm32f4xx_hal_adc_ex.c ****     
 1428              		.loc 1 722 24 view .LVU444
 1429 0034 23F40053 		bic	r3, r3, #8192
 1430 0038 5360     		str	r3, [r2, #4]
 726:Drivers/STM32F4xx_HAL_Driver/Src/stm32f4xx_hal_adc_ex.c ****     
 1431              		.loc 1 726 5 is_stmt 1 view .LVU445
 726:Drivers/STM32F4xx_HAL_Driver/Src/stm32f4xx_hal_adc_ex.c ****     
 1432              		.loc 1 726 22 is_stmt 0 view .LVU446
 1433 003a 806B     		ldr	r0, [r0, #56]
 1434              	.LVL103:
 726:Drivers/STM32F4xx_HAL_Driver/Src/stm32f4xx_hal_adc_ex.c ****     
 1435              		.loc 1 726 22 view .LVU447
 1436 003c FFF7FEFF 		bl	HAL_DMA_Abort
 1437              	.LVL104:
 729:Drivers/STM32F4xx_HAL_Driver/Src/stm32f4xx_hal_adc_ex.c ****     
 1438              		.loc 1 729 5 is_stmt 1 view .LVU448
 1439 0040 2268     		ldr	r2, [r4]
 1440 0042 5368     		ldr	r3, [r2, #4]
 1441 0044 23F08063 		bic	r3, r3, #67108864
 1442 0048 5360     		str	r3, [r2, #4]
 732:Drivers/STM32F4xx_HAL_Driver/Src/stm32f4xx_hal_adc_ex.c ****                       HAL_ADC_STATE_REG_BUSY | HAL_ADC_STATE_INJ_BUSY,
 1443              		.loc 1 732 5 view .LVU449
 1444 004a 236C     		ldr	r3, [r4, #64]
 1445 004c 23F48853 		bic	r3, r3, #4352
 1446 0050 23F00103 		bic	r3, r3, #1
 1447 0054 43F00103 		orr	r3, r3, #1
 1448 0058 2364     		str	r3, [r4, #64]
 1449 005a E5E7     		b	.L100
 1450              	.LVL105:
 1451              	.L101:
 1452              	.LCFI18:
 1453              		.cfi_def_cfa_offset 0
 1454              		.cfi_restore 4
 1455              		.cfi_restore 14
 707:Drivers/STM32F4xx_HAL_Driver/Src/stm32f4xx_hal_adc_ex.c ****   
 1456              		.loc 1 707 3 is_stmt 0 discriminator 1 view .LVU450
 1457 005c 0220     		movs	r0, #2
 1458              	.LVL106:
 742:Drivers/STM32F4xx_HAL_Driver/Src/stm32f4xx_hal_adc_ex.c **** 
 1459              		.loc 1 742 1 view .LVU451
 1460 005e 7047     		bx	lr
 1461              	.L109:
 1462              		.align	2
 1463              	.L108:
 1464 0060 00230140 		.word	1073816320
 1465              		.cfi_endproc
 1466              	.LFE137:
 1468              		.section	.text.HAL_ADCEx_MultiModeGetValue,"ax",%progbits
 1469              		.align	1
 1470              		.global	HAL_ADCEx_MultiModeGetValue
 1471              		.syntax unified
 1472              		.thumb
 1473              		.thumb_func
 1475              	HAL_ADCEx_MultiModeGetValue:
ARM GAS  C:\Users\LENOVO\AppData\Local\Temp\ccLbhjnu.s 			page 53


 1476              	.LVL107:
 1477              	.LFB138:
 752:Drivers/STM32F4xx_HAL_Driver/Src/stm32f4xx_hal_adc_ex.c ****   ADC_Common_TypeDef *tmpADC_Common;
 1478              		.loc 1 752 1 is_stmt 1 view -0
 1479              		.cfi_startproc
 1480              		@ args = 0, pretend = 0, frame = 0
 1481              		@ frame_needed = 0, uses_anonymous_args = 0
 1482              		@ link register save eliminated.
 753:Drivers/STM32F4xx_HAL_Driver/Src/stm32f4xx_hal_adc_ex.c **** 
 1483              		.loc 1 753 3 view .LVU453
 758:Drivers/STM32F4xx_HAL_Driver/Src/stm32f4xx_hal_adc_ex.c **** 
 1484              		.loc 1 758 3 view .LVU454
 761:Drivers/STM32F4xx_HAL_Driver/Src/stm32f4xx_hal_adc_ex.c **** }
 1485              		.loc 1 761 3 view .LVU455
 761:Drivers/STM32F4xx_HAL_Driver/Src/stm32f4xx_hal_adc_ex.c **** }
 1486              		.loc 1 761 23 is_stmt 0 view .LVU456
 1487 0000 014B     		ldr	r3, .L111
 1488 0002 9868     		ldr	r0, [r3, #8]
 1489              	.LVL108:
 762:Drivers/STM32F4xx_HAL_Driver/Src/stm32f4xx_hal_adc_ex.c **** 
 1490              		.loc 1 762 1 view .LVU457
 1491 0004 7047     		bx	lr
 1492              	.L112:
 1493 0006 00BF     		.align	2
 1494              	.L111:
 1495 0008 00230140 		.word	1073816320
 1496              		.cfi_endproc
 1497              	.LFE138:
 1499              		.section	.text.HAL_ADCEx_InjectedConvCpltCallback,"ax",%progbits
 1500              		.align	1
 1501              		.weak	HAL_ADCEx_InjectedConvCpltCallback
 1502              		.syntax unified
 1503              		.thumb
 1504              		.thumb_func
 1506              	HAL_ADCEx_InjectedConvCpltCallback:
 1507              	.LVL109:
 1508              	.LFB139:
 771:Drivers/STM32F4xx_HAL_Driver/Src/stm32f4xx_hal_adc_ex.c ****   /* Prevent unused argument(s) compilation warning */
 1509              		.loc 1 771 1 is_stmt 1 view -0
 1510              		.cfi_startproc
 1511              		@ args = 0, pretend = 0, frame = 0
 1512              		@ frame_needed = 0, uses_anonymous_args = 0
 1513              		@ link register save eliminated.
 773:Drivers/STM32F4xx_HAL_Driver/Src/stm32f4xx_hal_adc_ex.c ****   /* NOTE : This function Should not be modified, when the callback is needed,
 1514              		.loc 1 773 3 view .LVU459
 777:Drivers/STM32F4xx_HAL_Driver/Src/stm32f4xx_hal_adc_ex.c **** 
 1515              		.loc 1 777 1 is_stmt 0 view .LVU460
 1516 0000 7047     		bx	lr
 1517              		.cfi_endproc
 1518              	.LFE139:
 1520              		.section	.text.HAL_ADCEx_InjectedConfigChannel,"ax",%progbits
 1521              		.align	1
 1522              		.global	HAL_ADCEx_InjectedConfigChannel
 1523              		.syntax unified
 1524              		.thumb
 1525              		.thumb_func
 1527              	HAL_ADCEx_InjectedConfigChannel:
ARM GAS  C:\Users\LENOVO\AppData\Local\Temp\ccLbhjnu.s 			page 54


 1528              	.LVL110:
 1529              	.LFB140:
 788:Drivers/STM32F4xx_HAL_Driver/Src/stm32f4xx_hal_adc_ex.c ****   
 1530              		.loc 1 788 1 is_stmt 1 view -0
 1531              		.cfi_startproc
 1532              		@ args = 0, pretend = 0, frame = 0
 1533              		@ frame_needed = 0, uses_anonymous_args = 0
 1534              		@ link register save eliminated.
 795:Drivers/STM32F4xx_HAL_Driver/Src/stm32f4xx_hal_adc_ex.c **** 
 1535              		.loc 1 795 3 view .LVU462
 798:Drivers/STM32F4xx_HAL_Driver/Src/stm32f4xx_hal_adc_ex.c ****   assert_param(IS_ADC_INJECTED_RANK(sConfigInjected->InjectedRank));
 1536              		.loc 1 798 3 view .LVU463
 799:Drivers/STM32F4xx_HAL_Driver/Src/stm32f4xx_hal_adc_ex.c ****   assert_param(IS_ADC_SAMPLE_TIME(sConfigInjected->InjectedSamplingTime));
 1537              		.loc 1 799 3 view .LVU464
 800:Drivers/STM32F4xx_HAL_Driver/Src/stm32f4xx_hal_adc_ex.c ****   assert_param(IS_ADC_EXT_INJEC_TRIG(sConfigInjected->ExternalTrigInjecConv));
 1538              		.loc 1 800 3 view .LVU465
 801:Drivers/STM32F4xx_HAL_Driver/Src/stm32f4xx_hal_adc_ex.c ****   assert_param(IS_ADC_INJECTED_LENGTH(sConfigInjected->InjectedNbrOfConversion));
 1539              		.loc 1 801 3 view .LVU466
 802:Drivers/STM32F4xx_HAL_Driver/Src/stm32f4xx_hal_adc_ex.c ****   assert_param(IS_FUNCTIONAL_STATE(sConfigInjected->AutoInjectedConv));
 1540              		.loc 1 802 3 view .LVU467
 803:Drivers/STM32F4xx_HAL_Driver/Src/stm32f4xx_hal_adc_ex.c ****   assert_param(IS_FUNCTIONAL_STATE(sConfigInjected->InjectedDiscontinuousConvMode));
 1541              		.loc 1 803 3 view .LVU468
 804:Drivers/STM32F4xx_HAL_Driver/Src/stm32f4xx_hal_adc_ex.c **** 
 1542              		.loc 1 804 3 view .LVU469
 811:Drivers/STM32F4xx_HAL_Driver/Src/stm32f4xx_hal_adc_ex.c ****   {
 1543              		.loc 1 811 3 view .LVU470
 813:Drivers/STM32F4xx_HAL_Driver/Src/stm32f4xx_hal_adc_ex.c ****   }
 1544              		.loc 1 813 5 view .LVU471
 817:Drivers/STM32F4xx_HAL_Driver/Src/stm32f4xx_hal_adc_ex.c ****   
 1545              		.loc 1 817 3 view .LVU472
 817:Drivers/STM32F4xx_HAL_Driver/Src/stm32f4xx_hal_adc_ex.c ****   
 1546              		.loc 1 817 3 view .LVU473
 1547 0000 90F83C20 		ldrb	r2, [r0, #60]	@ zero_extendqisi2
 1548 0004 012A     		cmp	r2, #1
 1549 0006 00F0F280 		beq	.L130
 788:Drivers/STM32F4xx_HAL_Driver/Src/stm32f4xx_hal_adc_ex.c ****   
 1550              		.loc 1 788 1 is_stmt 0 view .LVU474
 1551 000a 30B4     		push	{r4, r5}
 1552              	.LCFI19:
 1553              		.cfi_def_cfa_offset 8
 1554              		.cfi_offset 4, -8
 1555              		.cfi_offset 5, -4
 1556 000c 0346     		mov	r3, r0
 817:Drivers/STM32F4xx_HAL_Driver/Src/stm32f4xx_hal_adc_ex.c ****   
 1557              		.loc 1 817 3 is_stmt 1 discriminator 2 view .LVU475
 1558 000e 0122     		movs	r2, #1
 1559 0010 80F83C20 		strb	r2, [r0, #60]
 817:Drivers/STM32F4xx_HAL_Driver/Src/stm32f4xx_hal_adc_ex.c ****   
 1560              		.loc 1 817 3 discriminator 2 view .LVU476
 820:Drivers/STM32F4xx_HAL_Driver/Src/stm32f4xx_hal_adc_ex.c ****   {
 1561              		.loc 1 820 3 view .LVU477
 820:Drivers/STM32F4xx_HAL_Driver/Src/stm32f4xx_hal_adc_ex.c ****   {
 1562              		.loc 1 820 22 is_stmt 0 view .LVU478
 1563 0014 0A68     		ldr	r2, [r1]
 820:Drivers/STM32F4xx_HAL_Driver/Src/stm32f4xx_hal_adc_ex.c ****   {
 1564              		.loc 1 820 6 view .LVU479
 1565 0016 092A     		cmp	r2, #9
ARM GAS  C:\Users\LENOVO\AppData\Local\Temp\ccLbhjnu.s 			page 55


 1566 0018 40F28980 		bls	.L116
 823:Drivers/STM32F4xx_HAL_Driver/Src/stm32f4xx_hal_adc_ex.c ****     
 1567              		.loc 1 823 5 is_stmt 1 view .LVU480
 823:Drivers/STM32F4xx_HAL_Driver/Src/stm32f4xx_hal_adc_ex.c ****     
 1568              		.loc 1 823 9 is_stmt 0 view .LVU481
 1569 001c 0568     		ldr	r5, [r0]
 823:Drivers/STM32F4xx_HAL_Driver/Src/stm32f4xx_hal_adc_ex.c ****     
 1570              		.loc 1 823 19 view .LVU482
 1571 001e E868     		ldr	r0, [r5, #12]
 1572              	.LVL111:
 823:Drivers/STM32F4xx_HAL_Driver/Src/stm32f4xx_hal_adc_ex.c ****     
 1573              		.loc 1 823 31 view .LVU483
 1574 0020 92B2     		uxth	r2, r2
 1575 0022 02EB4202 		add	r2, r2, r2, lsl #1
 1576 0026 1E3A     		subs	r2, r2, #30
 1577 0028 0724     		movs	r4, #7
 1578 002a 04FA02F2 		lsl	r2, r4, r2
 823:Drivers/STM32F4xx_HAL_Driver/Src/stm32f4xx_hal_adc_ex.c ****     
 1579              		.loc 1 823 27 view .LVU484
 1580 002e 20EA0202 		bic	r2, r0, r2
 1581 0032 EA60     		str	r2, [r5, #12]
 826:Drivers/STM32F4xx_HAL_Driver/Src/stm32f4xx_hal_adc_ex.c ****   }
 1582              		.loc 1 826 5 is_stmt 1 view .LVU485
 826:Drivers/STM32F4xx_HAL_Driver/Src/stm32f4xx_hal_adc_ex.c ****   }
 1583              		.loc 1 826 9 is_stmt 0 view .LVU486
 1584 0034 1D68     		ldr	r5, [r3]
 826:Drivers/STM32F4xx_HAL_Driver/Src/stm32f4xx_hal_adc_ex.c ****   }
 1585              		.loc 1 826 19 view .LVU487
 1586 0036 E868     		ldr	r0, [r5, #12]
 826:Drivers/STM32F4xx_HAL_Driver/Src/stm32f4xx_hal_adc_ex.c ****   }
 1587              		.loc 1 826 30 view .LVU488
 1588 0038 8C68     		ldr	r4, [r1, #8]
 1589 003a 0A88     		ldrh	r2, [r1]
 1590 003c 02EB4202 		add	r2, r2, r2, lsl #1
 1591 0040 1E3A     		subs	r2, r2, #30
 1592 0042 9440     		lsls	r4, r4, r2
 826:Drivers/STM32F4xx_HAL_Driver/Src/stm32f4xx_hal_adc_ex.c ****   }
 1593              		.loc 1 826 27 view .LVU489
 1594 0044 2043     		orrs	r0, r0, r4
 1595 0046 E860     		str	r0, [r5, #12]
 1596              	.L117:
 838:Drivers/STM32F4xx_HAL_Driver/Src/stm32f4xx_hal_adc_ex.c ****   hadc->Instance->JSQR |=  ADC_SQR1(sConfigInjected->InjectedNbrOfConversion);
 1597              		.loc 1 838 3 is_stmt 1 view .LVU490
 838:Drivers/STM32F4xx_HAL_Driver/Src/stm32f4xx_hal_adc_ex.c ****   hadc->Instance->JSQR |=  ADC_SQR1(sConfigInjected->InjectedNbrOfConversion);
 1598              		.loc 1 838 7 is_stmt 0 view .LVU491
 1599 0048 1868     		ldr	r0, [r3]
 838:Drivers/STM32F4xx_HAL_Driver/Src/stm32f4xx_hal_adc_ex.c ****   hadc->Instance->JSQR |=  ADC_SQR1(sConfigInjected->InjectedNbrOfConversion);
 1600              		.loc 1 838 17 view .LVU492
 1601 004a 826B     		ldr	r2, [r0, #56]
 838:Drivers/STM32F4xx_HAL_Driver/Src/stm32f4xx_hal_adc_ex.c ****   hadc->Instance->JSQR |=  ADC_SQR1(sConfigInjected->InjectedNbrOfConversion);
 1602              		.loc 1 838 24 view .LVU493
 1603 004c 22F44012 		bic	r2, r2, #3145728
 1604 0050 8263     		str	r2, [r0, #56]
 839:Drivers/STM32F4xx_HAL_Driver/Src/stm32f4xx_hal_adc_ex.c ****   
 1605              		.loc 1 839 3 is_stmt 1 view .LVU494
 839:Drivers/STM32F4xx_HAL_Driver/Src/stm32f4xx_hal_adc_ex.c ****   
 1606              		.loc 1 839 7 is_stmt 0 view .LVU495
ARM GAS  C:\Users\LENOVO\AppData\Local\Temp\ccLbhjnu.s 			page 56


 1607 0052 1C68     		ldr	r4, [r3]
 839:Drivers/STM32F4xx_HAL_Driver/Src/stm32f4xx_hal_adc_ex.c ****   
 1608              		.loc 1 839 17 view .LVU496
 1609 0054 A26B     		ldr	r2, [r4, #56]
 839:Drivers/STM32F4xx_HAL_Driver/Src/stm32f4xx_hal_adc_ex.c ****   
 1610              		.loc 1 839 28 view .LVU497
 1611 0056 0869     		ldr	r0, [r1, #16]
 1612 0058 0138     		subs	r0, r0, #1
 839:Drivers/STM32F4xx_HAL_Driver/Src/stm32f4xx_hal_adc_ex.c ****   
 1613              		.loc 1 839 24 view .LVU498
 1614 005a 42EA0052 		orr	r2, r2, r0, lsl #20
 1615 005e A263     		str	r2, [r4, #56]
 844:Drivers/STM32F4xx_HAL_Driver/Src/stm32f4xx_hal_adc_ex.c ****    
 1616              		.loc 1 844 3 is_stmt 1 view .LVU499
 844:Drivers/STM32F4xx_HAL_Driver/Src/stm32f4xx_hal_adc_ex.c ****    
 1617              		.loc 1 844 7 is_stmt 0 view .LVU500
 1618 0060 1C68     		ldr	r4, [r3]
 844:Drivers/STM32F4xx_HAL_Driver/Src/stm32f4xx_hal_adc_ex.c ****    
 1619              		.loc 1 844 17 view .LVU501
 1620 0062 A06B     		ldr	r0, [r4, #56]
 844:Drivers/STM32F4xx_HAL_Driver/Src/stm32f4xx_hal_adc_ex.c ****    
 1621              		.loc 1 844 28 view .LVU502
 1622 0064 4A68     		ldr	r2, [r1, #4]
 1623 0066 0D69     		ldr	r5, [r1, #16]
 1624 0068 521B     		subs	r2, r2, r5
 1625 006a D2B2     		uxtb	r2, r2
 1626 006c 0332     		adds	r2, r2, #3
 1627 006e D2B2     		uxtb	r2, r2
 1628 0070 02EB8202 		add	r2, r2, r2, lsl #2
 1629 0074 4FF01F0C 		mov	ip, #31
 1630 0078 0CFA02F2 		lsl	r2, ip, r2
 844:Drivers/STM32F4xx_HAL_Driver/Src/stm32f4xx_hal_adc_ex.c ****    
 1631              		.loc 1 844 24 view .LVU503
 1632 007c 20EA0202 		bic	r2, r0, r2
 1633 0080 A263     		str	r2, [r4, #56]
 847:Drivers/STM32F4xx_HAL_Driver/Src/stm32f4xx_hal_adc_ex.c **** 
 1634              		.loc 1 847 3 is_stmt 1 view .LVU504
 847:Drivers/STM32F4xx_HAL_Driver/Src/stm32f4xx_hal_adc_ex.c **** 
 1635              		.loc 1 847 7 is_stmt 0 view .LVU505
 1636 0082 1C68     		ldr	r4, [r3]
 847:Drivers/STM32F4xx_HAL_Driver/Src/stm32f4xx_hal_adc_ex.c **** 
 1637              		.loc 1 847 17 view .LVU506
 1638 0084 A06B     		ldr	r0, [r4, #56]
 847:Drivers/STM32F4xx_HAL_Driver/Src/stm32f4xx_hal_adc_ex.c **** 
 1639              		.loc 1 847 27 view .LVU507
 1640 0086 4A68     		ldr	r2, [r1, #4]
 1641 0088 0D69     		ldr	r5, [r1, #16]
 1642 008a 521B     		subs	r2, r2, r5
 1643 008c D2B2     		uxtb	r2, r2
 1644 008e 0332     		adds	r2, r2, #3
 1645 0090 D2B2     		uxtb	r2, r2
 1646 0092 02EB8202 		add	r2, r2, r2, lsl #2
 1647 0096 B1F800C0 		ldrh	ip, [r1]
 1648 009a 0CFA02F2 		lsl	r2, ip, r2
 847:Drivers/STM32F4xx_HAL_Driver/Src/stm32f4xx_hal_adc_ex.c **** 
 1649              		.loc 1 847 24 view .LVU508
 1650 009e 0243     		orrs	r2, r2, r0
ARM GAS  C:\Users\LENOVO\AppData\Local\Temp\ccLbhjnu.s 			page 57


 1651 00a0 A263     		str	r2, [r4, #56]
 854:Drivers/STM32F4xx_HAL_Driver/Src/stm32f4xx_hal_adc_ex.c ****   {  
 1652              		.loc 1 854 3 is_stmt 1 view .LVU509
 854:Drivers/STM32F4xx_HAL_Driver/Src/stm32f4xx_hal_adc_ex.c ****   {  
 1653              		.loc 1 854 21 is_stmt 0 view .LVU510
 1654 00a2 8869     		ldr	r0, [r1, #24]
 854:Drivers/STM32F4xx_HAL_Driver/Src/stm32f4xx_hal_adc_ex.c ****   {  
 1655              		.loc 1 854 5 view .LVU511
 1656 00a4 534A     		ldr	r2, .L137
 1657 00a6 9042     		cmp	r0, r2
 1658 00a8 56D0     		beq	.L118
 857:Drivers/STM32F4xx_HAL_Driver/Src/stm32f4xx_hal_adc_ex.c ****     hadc->Instance->CR2 |=  sConfigInjected->ExternalTrigInjecConv;
 1659              		.loc 1 857 5 is_stmt 1 view .LVU512
 857:Drivers/STM32F4xx_HAL_Driver/Src/stm32f4xx_hal_adc_ex.c ****     hadc->Instance->CR2 |=  sConfigInjected->ExternalTrigInjecConv;
 1660              		.loc 1 857 9 is_stmt 0 view .LVU513
 1661 00aa 1868     		ldr	r0, [r3]
 857:Drivers/STM32F4xx_HAL_Driver/Src/stm32f4xx_hal_adc_ex.c ****     hadc->Instance->CR2 |=  sConfigInjected->ExternalTrigInjecConv;
 1662              		.loc 1 857 19 view .LVU514
 1663 00ac 8268     		ldr	r2, [r0, #8]
 857:Drivers/STM32F4xx_HAL_Driver/Src/stm32f4xx_hal_adc_ex.c ****     hadc->Instance->CR2 |=  sConfigInjected->ExternalTrigInjecConv;
 1664              		.loc 1 857 25 view .LVU515
 1665 00ae 22F47022 		bic	r2, r2, #983040
 1666 00b2 8260     		str	r2, [r0, #8]
 858:Drivers/STM32F4xx_HAL_Driver/Src/stm32f4xx_hal_adc_ex.c ****     
 1667              		.loc 1 858 5 is_stmt 1 view .LVU516
 858:Drivers/STM32F4xx_HAL_Driver/Src/stm32f4xx_hal_adc_ex.c ****     
 1668              		.loc 1 858 9 is_stmt 0 view .LVU517
 1669 00b4 1868     		ldr	r0, [r3]
 858:Drivers/STM32F4xx_HAL_Driver/Src/stm32f4xx_hal_adc_ex.c ****     
 1670              		.loc 1 858 19 view .LVU518
 1671 00b6 8268     		ldr	r2, [r0, #8]
 858:Drivers/STM32F4xx_HAL_Driver/Src/stm32f4xx_hal_adc_ex.c ****     
 1672              		.loc 1 858 44 view .LVU519
 1673 00b8 8C69     		ldr	r4, [r1, #24]
 858:Drivers/STM32F4xx_HAL_Driver/Src/stm32f4xx_hal_adc_ex.c ****     
 1674              		.loc 1 858 25 view .LVU520
 1675 00ba 2243     		orrs	r2, r2, r4
 1676 00bc 8260     		str	r2, [r0, #8]
 861:Drivers/STM32F4xx_HAL_Driver/Src/stm32f4xx_hal_adc_ex.c ****     hadc->Instance->CR2 |= sConfigInjected->ExternalTrigInjecConvEdge;
 1677              		.loc 1 861 5 is_stmt 1 view .LVU521
 861:Drivers/STM32F4xx_HAL_Driver/Src/stm32f4xx_hal_adc_ex.c ****     hadc->Instance->CR2 |= sConfigInjected->ExternalTrigInjecConvEdge;
 1678              		.loc 1 861 9 is_stmt 0 view .LVU522
 1679 00be 1868     		ldr	r0, [r3]
 861:Drivers/STM32F4xx_HAL_Driver/Src/stm32f4xx_hal_adc_ex.c ****     hadc->Instance->CR2 |= sConfigInjected->ExternalTrigInjecConvEdge;
 1680              		.loc 1 861 19 view .LVU523
 1681 00c0 8268     		ldr	r2, [r0, #8]
 861:Drivers/STM32F4xx_HAL_Driver/Src/stm32f4xx_hal_adc_ex.c ****     hadc->Instance->CR2 |= sConfigInjected->ExternalTrigInjecConvEdge;
 1682              		.loc 1 861 25 view .LVU524
 1683 00c2 22F44012 		bic	r2, r2, #3145728
 1684 00c6 8260     		str	r2, [r0, #8]
 862:Drivers/STM32F4xx_HAL_Driver/Src/stm32f4xx_hal_adc_ex.c ****   }
 1685              		.loc 1 862 5 is_stmt 1 view .LVU525
 862:Drivers/STM32F4xx_HAL_Driver/Src/stm32f4xx_hal_adc_ex.c ****   }
 1686              		.loc 1 862 9 is_stmt 0 view .LVU526
 1687 00c8 1868     		ldr	r0, [r3]
 862:Drivers/STM32F4xx_HAL_Driver/Src/stm32f4xx_hal_adc_ex.c ****   }
 1688              		.loc 1 862 19 view .LVU527
ARM GAS  C:\Users\LENOVO\AppData\Local\Temp\ccLbhjnu.s 			page 58


 1689 00ca 8268     		ldr	r2, [r0, #8]
 862:Drivers/STM32F4xx_HAL_Driver/Src/stm32f4xx_hal_adc_ex.c ****   }
 1690              		.loc 1 862 43 view .LVU528
 1691 00cc CC69     		ldr	r4, [r1, #28]
 862:Drivers/STM32F4xx_HAL_Driver/Src/stm32f4xx_hal_adc_ex.c ****   }
 1692              		.loc 1 862 25 view .LVU529
 1693 00ce 2243     		orrs	r2, r2, r4
 1694 00d0 8260     		str	r2, [r0, #8]
 1695              	.L119:
 871:Drivers/STM32F4xx_HAL_Driver/Src/stm32f4xx_hal_adc_ex.c ****   {
 1696              		.loc 1 871 3 is_stmt 1 view .LVU530
 871:Drivers/STM32F4xx_HAL_Driver/Src/stm32f4xx_hal_adc_ex.c ****   {
 1697              		.loc 1 871 22 is_stmt 0 view .LVU531
 1698 00d2 4A7D     		ldrb	r2, [r1, #21]	@ zero_extendqisi2
 871:Drivers/STM32F4xx_HAL_Driver/Src/stm32f4xx_hal_adc_ex.c ****   {
 1699              		.loc 1 871 6 view .LVU532
 1700 00d4 002A     		cmp	r2, #0
 1701 00d6 4AD0     		beq	.L120
 874:Drivers/STM32F4xx_HAL_Driver/Src/stm32f4xx_hal_adc_ex.c ****   }
 1702              		.loc 1 874 5 is_stmt 1 view .LVU533
 874:Drivers/STM32F4xx_HAL_Driver/Src/stm32f4xx_hal_adc_ex.c ****   }
 1703              		.loc 1 874 9 is_stmt 0 view .LVU534
 1704 00d8 1868     		ldr	r0, [r3]
 874:Drivers/STM32F4xx_HAL_Driver/Src/stm32f4xx_hal_adc_ex.c ****   }
 1705              		.loc 1 874 19 view .LVU535
 1706 00da 4268     		ldr	r2, [r0, #4]
 874:Drivers/STM32F4xx_HAL_Driver/Src/stm32f4xx_hal_adc_ex.c ****   }
 1707              		.loc 1 874 25 view .LVU536
 1708 00dc 42F48062 		orr	r2, r2, #1024
 1709 00e0 4260     		str	r2, [r0, #4]
 1710              	.L121:
 882:Drivers/STM32F4xx_HAL_Driver/Src/stm32f4xx_hal_adc_ex.c ****   {
 1711              		.loc 1 882 3 is_stmt 1 view .LVU537
 882:Drivers/STM32F4xx_HAL_Driver/Src/stm32f4xx_hal_adc_ex.c ****   {
 1712              		.loc 1 882 22 is_stmt 0 view .LVU538
 1713 00e2 0A7D     		ldrb	r2, [r1, #20]	@ zero_extendqisi2
 882:Drivers/STM32F4xx_HAL_Driver/Src/stm32f4xx_hal_adc_ex.c ****   {
 1714              		.loc 1 882 6 view .LVU539
 1715 00e4 002A     		cmp	r2, #0
 1716 00e6 48D0     		beq	.L122
 885:Drivers/STM32F4xx_HAL_Driver/Src/stm32f4xx_hal_adc_ex.c ****   }
 1717              		.loc 1 885 5 is_stmt 1 view .LVU540
 885:Drivers/STM32F4xx_HAL_Driver/Src/stm32f4xx_hal_adc_ex.c ****   }
 1718              		.loc 1 885 9 is_stmt 0 view .LVU541
 1719 00e8 1868     		ldr	r0, [r3]
 885:Drivers/STM32F4xx_HAL_Driver/Src/stm32f4xx_hal_adc_ex.c ****   }
 1720              		.loc 1 885 19 view .LVU542
 1721 00ea 4268     		ldr	r2, [r0, #4]
 885:Drivers/STM32F4xx_HAL_Driver/Src/stm32f4xx_hal_adc_ex.c ****   }
 1722              		.loc 1 885 25 view .LVU543
 1723 00ec 42F48052 		orr	r2, r2, #4096
 1724 00f0 4260     		str	r2, [r0, #4]
 1725              	.L123:
 893:Drivers/STM32F4xx_HAL_Driver/Src/stm32f4xx_hal_adc_ex.c ****   {
 1726              		.loc 1 893 3 is_stmt 1 view .LVU544
 893:Drivers/STM32F4xx_HAL_Driver/Src/stm32f4xx_hal_adc_ex.c ****   {
 1727              		.loc 1 893 25 is_stmt 0 view .LVU545
ARM GAS  C:\Users\LENOVO\AppData\Local\Temp\ccLbhjnu.s 			page 59


 1728 00f2 4A68     		ldr	r2, [r1, #4]
 893:Drivers/STM32F4xx_HAL_Driver/Src/stm32f4xx_hal_adc_ex.c ****   {
 1729              		.loc 1 893 3 view .LVU546
 1730 00f4 022A     		cmp	r2, #2
 1731 00f6 46D0     		beq	.L124
 1732 00f8 032A     		cmp	r2, #3
 1733 00fa 4FD0     		beq	.L125
 1734 00fc 012A     		cmp	r2, #1
 1735 00fe 58D1     		bne	.L126
 897:Drivers/STM32F4xx_HAL_Driver/Src/stm32f4xx_hal_adc_ex.c ****       hadc->Instance->JOFR1 |= sConfigInjected->InjectedOffset;
 1736              		.loc 1 897 7 is_stmt 1 view .LVU547
 897:Drivers/STM32F4xx_HAL_Driver/Src/stm32f4xx_hal_adc_ex.c ****       hadc->Instance->JOFR1 |= sConfigInjected->InjectedOffset;
 1737              		.loc 1 897 11 is_stmt 0 view .LVU548
 1738 0100 1868     		ldr	r0, [r3]
 897:Drivers/STM32F4xx_HAL_Driver/Src/stm32f4xx_hal_adc_ex.c ****       hadc->Instance->JOFR1 |= sConfigInjected->InjectedOffset;
 1739              		.loc 1 897 21 view .LVU549
 1740 0102 4269     		ldr	r2, [r0, #20]
 897:Drivers/STM32F4xx_HAL_Driver/Src/stm32f4xx_hal_adc_ex.c ****       hadc->Instance->JOFR1 |= sConfigInjected->InjectedOffset;
 1741              		.loc 1 897 29 view .LVU550
 1742 0104 6FF30B02 		bfc	r2, #0, #12
 1743 0108 4261     		str	r2, [r0, #20]
 898:Drivers/STM32F4xx_HAL_Driver/Src/stm32f4xx_hal_adc_ex.c ****       break;
 1744              		.loc 1 898 7 is_stmt 1 view .LVU551
 898:Drivers/STM32F4xx_HAL_Driver/Src/stm32f4xx_hal_adc_ex.c ****       break;
 1745              		.loc 1 898 11 is_stmt 0 view .LVU552
 1746 010a 1868     		ldr	r0, [r3]
 898:Drivers/STM32F4xx_HAL_Driver/Src/stm32f4xx_hal_adc_ex.c ****       break;
 1747              		.loc 1 898 21 view .LVU553
 1748 010c 4269     		ldr	r2, [r0, #20]
 898:Drivers/STM32F4xx_HAL_Driver/Src/stm32f4xx_hal_adc_ex.c ****       break;
 1749              		.loc 1 898 47 view .LVU554
 1750 010e CC68     		ldr	r4, [r1, #12]
 898:Drivers/STM32F4xx_HAL_Driver/Src/stm32f4xx_hal_adc_ex.c ****       break;
 1751              		.loc 1 898 29 view .LVU555
 1752 0110 2243     		orrs	r2, r2, r4
 1753 0112 4261     		str	r2, [r0, #20]
 899:Drivers/STM32F4xx_HAL_Driver/Src/stm32f4xx_hal_adc_ex.c ****     case 2U:
 1754              		.loc 1 899 7 is_stmt 1 view .LVU556
 1755              	.L127:
 920:Drivers/STM32F4xx_HAL_Driver/Src/stm32f4xx_hal_adc_ex.c **** 
 1756              		.loc 1 920 5 view .LVU557
 1757              	.LVL112:
 923:Drivers/STM32F4xx_HAL_Driver/Src/stm32f4xx_hal_adc_ex.c ****   {
 1758              		.loc 1 923 3 view .LVU558
 923:Drivers/STM32F4xx_HAL_Driver/Src/stm32f4xx_hal_adc_ex.c ****   {
 1759              		.loc 1 923 12 is_stmt 0 view .LVU559
 1760 0114 1868     		ldr	r0, [r3]
 923:Drivers/STM32F4xx_HAL_Driver/Src/stm32f4xx_hal_adc_ex.c ****   {
 1761              		.loc 1 923 6 view .LVU560
 1762 0116 384A     		ldr	r2, .L137+4
 1763 0118 9042     		cmp	r0, r2
 1764 011a 55D0     		beq	.L135
 1765              	.L128:
 930:Drivers/STM32F4xx_HAL_Driver/Src/stm32f4xx_hal_adc_ex.c ****   {
 1766              		.loc 1 930 3 is_stmt 1 view .LVU561
 930:Drivers/STM32F4xx_HAL_Driver/Src/stm32f4xx_hal_adc_ex.c ****   {
 1767              		.loc 1 930 12 is_stmt 0 view .LVU562
ARM GAS  C:\Users\LENOVO\AppData\Local\Temp\ccLbhjnu.s 			page 60


 1768 011c 1868     		ldr	r0, [r3]
 930:Drivers/STM32F4xx_HAL_Driver/Src/stm32f4xx_hal_adc_ex.c ****   {
 1769              		.loc 1 930 6 view .LVU563
 1770 011e 364A     		ldr	r2, .L137+4
 1771 0120 9042     		cmp	r0, r2
 1772 0122 5AD0     		beq	.L136
 1773              	.LVL113:
 1774              	.L129:
 937:Drivers/STM32F4xx_HAL_Driver/Src/stm32f4xx_hal_adc_ex.c ****   
 1775              		.loc 1 937 3 is_stmt 1 view .LVU564
 937:Drivers/STM32F4xx_HAL_Driver/Src/stm32f4xx_hal_adc_ex.c ****   
 1776              		.loc 1 937 3 view .LVU565
 1777 0124 0020     		movs	r0, #0
 1778 0126 83F83C00 		strb	r0, [r3, #60]
 937:Drivers/STM32F4xx_HAL_Driver/Src/stm32f4xx_hal_adc_ex.c ****   
 1779              		.loc 1 937 3 view .LVU566
 940:Drivers/STM32F4xx_HAL_Driver/Src/stm32f4xx_hal_adc_ex.c **** }
 1780              		.loc 1 940 3 view .LVU567
 941:Drivers/STM32F4xx_HAL_Driver/Src/stm32f4xx_hal_adc_ex.c **** 
 1781              		.loc 1 941 1 is_stmt 0 view .LVU568
 1782 012a 30BC     		pop	{r4, r5}
 1783              	.LCFI20:
 1784              		.cfi_remember_state
 1785              		.cfi_restore 5
 1786              		.cfi_restore 4
 1787              		.cfi_def_cfa_offset 0
 1788 012c 7047     		bx	lr
 1789              	.LVL114:
 1790              	.L116:
 1791              	.LCFI21:
 1792              		.cfi_restore_state
 831:Drivers/STM32F4xx_HAL_Driver/Src/stm32f4xx_hal_adc_ex.c ****     
 1793              		.loc 1 831 5 is_stmt 1 view .LVU569
 831:Drivers/STM32F4xx_HAL_Driver/Src/stm32f4xx_hal_adc_ex.c ****     
 1794              		.loc 1 831 9 is_stmt 0 view .LVU570
 1795 012e 0568     		ldr	r5, [r0]
 831:Drivers/STM32F4xx_HAL_Driver/Src/stm32f4xx_hal_adc_ex.c ****     
 1796              		.loc 1 831 19 view .LVU571
 1797 0130 2869     		ldr	r0, [r5, #16]
 1798              	.LVL115:
 831:Drivers/STM32F4xx_HAL_Driver/Src/stm32f4xx_hal_adc_ex.c ****     
 1799              		.loc 1 831 31 view .LVU572
 1800 0132 92B2     		uxth	r2, r2
 1801 0134 02EB4202 		add	r2, r2, r2, lsl #1
 1802 0138 0724     		movs	r4, #7
 1803 013a 04FA02F2 		lsl	r2, r4, r2
 831:Drivers/STM32F4xx_HAL_Driver/Src/stm32f4xx_hal_adc_ex.c ****     
 1804              		.loc 1 831 27 view .LVU573
 1805 013e 20EA0202 		bic	r2, r0, r2
 1806 0142 2A61     		str	r2, [r5, #16]
 834:Drivers/STM32F4xx_HAL_Driver/Src/stm32f4xx_hal_adc_ex.c ****   }
 1807              		.loc 1 834 5 is_stmt 1 view .LVU574
 834:Drivers/STM32F4xx_HAL_Driver/Src/stm32f4xx_hal_adc_ex.c ****   }
 1808              		.loc 1 834 9 is_stmt 0 view .LVU575
 1809 0144 1D68     		ldr	r5, [r3]
 834:Drivers/STM32F4xx_HAL_Driver/Src/stm32f4xx_hal_adc_ex.c ****   }
 1810              		.loc 1 834 19 view .LVU576
ARM GAS  C:\Users\LENOVO\AppData\Local\Temp\ccLbhjnu.s 			page 61


 1811 0146 2869     		ldr	r0, [r5, #16]
 834:Drivers/STM32F4xx_HAL_Driver/Src/stm32f4xx_hal_adc_ex.c ****   }
 1812              		.loc 1 834 30 view .LVU577
 1813 0148 8C68     		ldr	r4, [r1, #8]
 1814 014a 0A88     		ldrh	r2, [r1]
 1815 014c 02EB4202 		add	r2, r2, r2, lsl #1
 1816 0150 9440     		lsls	r4, r4, r2
 834:Drivers/STM32F4xx_HAL_Driver/Src/stm32f4xx_hal_adc_ex.c ****   }
 1817              		.loc 1 834 27 view .LVU578
 1818 0152 2043     		orrs	r0, r0, r4
 1819 0154 2861     		str	r0, [r5, #16]
 1820 0156 77E7     		b	.L117
 1821              	.L118:
 867:Drivers/STM32F4xx_HAL_Driver/Src/stm32f4xx_hal_adc_ex.c ****     hadc->Instance->CR2 &= ~(ADC_CR2_JEXTEN);  
 1822              		.loc 1 867 5 is_stmt 1 view .LVU579
 867:Drivers/STM32F4xx_HAL_Driver/Src/stm32f4xx_hal_adc_ex.c ****     hadc->Instance->CR2 &= ~(ADC_CR2_JEXTEN);  
 1823              		.loc 1 867 9 is_stmt 0 view .LVU580
 1824 0158 1868     		ldr	r0, [r3]
 867:Drivers/STM32F4xx_HAL_Driver/Src/stm32f4xx_hal_adc_ex.c ****     hadc->Instance->CR2 &= ~(ADC_CR2_JEXTEN);  
 1825              		.loc 1 867 19 view .LVU581
 1826 015a 8268     		ldr	r2, [r0, #8]
 867:Drivers/STM32F4xx_HAL_Driver/Src/stm32f4xx_hal_adc_ex.c ****     hadc->Instance->CR2 &= ~(ADC_CR2_JEXTEN);  
 1827              		.loc 1 867 25 view .LVU582
 1828 015c 22F47022 		bic	r2, r2, #983040
 1829 0160 8260     		str	r2, [r0, #8]
 868:Drivers/STM32F4xx_HAL_Driver/Src/stm32f4xx_hal_adc_ex.c ****   }
 1830              		.loc 1 868 5 is_stmt 1 view .LVU583
 868:Drivers/STM32F4xx_HAL_Driver/Src/stm32f4xx_hal_adc_ex.c ****   }
 1831              		.loc 1 868 9 is_stmt 0 view .LVU584
 1832 0162 1868     		ldr	r0, [r3]
 868:Drivers/STM32F4xx_HAL_Driver/Src/stm32f4xx_hal_adc_ex.c ****   }
 1833              		.loc 1 868 19 view .LVU585
 1834 0164 8268     		ldr	r2, [r0, #8]
 868:Drivers/STM32F4xx_HAL_Driver/Src/stm32f4xx_hal_adc_ex.c ****   }
 1835              		.loc 1 868 25 view .LVU586
 1836 0166 22F44012 		bic	r2, r2, #3145728
 1837 016a 8260     		str	r2, [r0, #8]
 1838 016c B1E7     		b	.L119
 1839              	.L120:
 879:Drivers/STM32F4xx_HAL_Driver/Src/stm32f4xx_hal_adc_ex.c ****   }
 1840              		.loc 1 879 5 is_stmt 1 view .LVU587
 879:Drivers/STM32F4xx_HAL_Driver/Src/stm32f4xx_hal_adc_ex.c ****   }
 1841              		.loc 1 879 9 is_stmt 0 view .LVU588
 1842 016e 1868     		ldr	r0, [r3]
 879:Drivers/STM32F4xx_HAL_Driver/Src/stm32f4xx_hal_adc_ex.c ****   }
 1843              		.loc 1 879 19 view .LVU589
 1844 0170 4268     		ldr	r2, [r0, #4]
 879:Drivers/STM32F4xx_HAL_Driver/Src/stm32f4xx_hal_adc_ex.c ****   }
 1845              		.loc 1 879 25 view .LVU590
 1846 0172 22F48062 		bic	r2, r2, #1024
 1847 0176 4260     		str	r2, [r0, #4]
 1848 0178 B3E7     		b	.L121
 1849              	.L122:
 890:Drivers/STM32F4xx_HAL_Driver/Src/stm32f4xx_hal_adc_ex.c ****   }
 1850              		.loc 1 890 5 is_stmt 1 view .LVU591
 890:Drivers/STM32F4xx_HAL_Driver/Src/stm32f4xx_hal_adc_ex.c ****   }
 1851              		.loc 1 890 9 is_stmt 0 view .LVU592
ARM GAS  C:\Users\LENOVO\AppData\Local\Temp\ccLbhjnu.s 			page 62


 1852 017a 1868     		ldr	r0, [r3]
 890:Drivers/STM32F4xx_HAL_Driver/Src/stm32f4xx_hal_adc_ex.c ****   }
 1853              		.loc 1 890 19 view .LVU593
 1854 017c 4268     		ldr	r2, [r0, #4]
 890:Drivers/STM32F4xx_HAL_Driver/Src/stm32f4xx_hal_adc_ex.c ****   }
 1855              		.loc 1 890 25 view .LVU594
 1856 017e 22F48052 		bic	r2, r2, #4096
 1857 0182 4260     		str	r2, [r0, #4]
 1858 0184 B5E7     		b	.L123
 1859              	.L124:
 902:Drivers/STM32F4xx_HAL_Driver/Src/stm32f4xx_hal_adc_ex.c ****       hadc->Instance->JOFR2 |= sConfigInjected->InjectedOffset;
 1860              		.loc 1 902 7 is_stmt 1 view .LVU595
 902:Drivers/STM32F4xx_HAL_Driver/Src/stm32f4xx_hal_adc_ex.c ****       hadc->Instance->JOFR2 |= sConfigInjected->InjectedOffset;
 1861              		.loc 1 902 11 is_stmt 0 view .LVU596
 1862 0186 1868     		ldr	r0, [r3]
 902:Drivers/STM32F4xx_HAL_Driver/Src/stm32f4xx_hal_adc_ex.c ****       hadc->Instance->JOFR2 |= sConfigInjected->InjectedOffset;
 1863              		.loc 1 902 21 view .LVU597
 1864 0188 8269     		ldr	r2, [r0, #24]
 902:Drivers/STM32F4xx_HAL_Driver/Src/stm32f4xx_hal_adc_ex.c ****       hadc->Instance->JOFR2 |= sConfigInjected->InjectedOffset;
 1865              		.loc 1 902 29 view .LVU598
 1866 018a 6FF30B02 		bfc	r2, #0, #12
 1867 018e 8261     		str	r2, [r0, #24]
 903:Drivers/STM32F4xx_HAL_Driver/Src/stm32f4xx_hal_adc_ex.c ****       break;
 1868              		.loc 1 903 7 is_stmt 1 view .LVU599
 903:Drivers/STM32F4xx_HAL_Driver/Src/stm32f4xx_hal_adc_ex.c ****       break;
 1869              		.loc 1 903 11 is_stmt 0 view .LVU600
 1870 0190 1868     		ldr	r0, [r3]
 903:Drivers/STM32F4xx_HAL_Driver/Src/stm32f4xx_hal_adc_ex.c ****       break;
 1871              		.loc 1 903 21 view .LVU601
 1872 0192 8269     		ldr	r2, [r0, #24]
 903:Drivers/STM32F4xx_HAL_Driver/Src/stm32f4xx_hal_adc_ex.c ****       break;
 1873              		.loc 1 903 47 view .LVU602
 1874 0194 CC68     		ldr	r4, [r1, #12]
 903:Drivers/STM32F4xx_HAL_Driver/Src/stm32f4xx_hal_adc_ex.c ****       break;
 1875              		.loc 1 903 29 view .LVU603
 1876 0196 2243     		orrs	r2, r2, r4
 1877 0198 8261     		str	r2, [r0, #24]
 904:Drivers/STM32F4xx_HAL_Driver/Src/stm32f4xx_hal_adc_ex.c ****     case 3U:
 1878              		.loc 1 904 7 is_stmt 1 view .LVU604
 1879 019a BBE7     		b	.L127
 1880              	.L125:
 907:Drivers/STM32F4xx_HAL_Driver/Src/stm32f4xx_hal_adc_ex.c ****       hadc->Instance->JOFR3 |= sConfigInjected->InjectedOffset;
 1881              		.loc 1 907 7 view .LVU605
 907:Drivers/STM32F4xx_HAL_Driver/Src/stm32f4xx_hal_adc_ex.c ****       hadc->Instance->JOFR3 |= sConfigInjected->InjectedOffset;
 1882              		.loc 1 907 11 is_stmt 0 view .LVU606
 1883 019c 1868     		ldr	r0, [r3]
 907:Drivers/STM32F4xx_HAL_Driver/Src/stm32f4xx_hal_adc_ex.c ****       hadc->Instance->JOFR3 |= sConfigInjected->InjectedOffset;
 1884              		.loc 1 907 21 view .LVU607
 1885 019e C269     		ldr	r2, [r0, #28]
 907:Drivers/STM32F4xx_HAL_Driver/Src/stm32f4xx_hal_adc_ex.c ****       hadc->Instance->JOFR3 |= sConfigInjected->InjectedOffset;
 1886              		.loc 1 907 29 view .LVU608
 1887 01a0 6FF30B02 		bfc	r2, #0, #12
 1888 01a4 C261     		str	r2, [r0, #28]
 908:Drivers/STM32F4xx_HAL_Driver/Src/stm32f4xx_hal_adc_ex.c ****       break;
 1889              		.loc 1 908 7 is_stmt 1 view .LVU609
 908:Drivers/STM32F4xx_HAL_Driver/Src/stm32f4xx_hal_adc_ex.c ****       break;
 1890              		.loc 1 908 11 is_stmt 0 view .LVU610
ARM GAS  C:\Users\LENOVO\AppData\Local\Temp\ccLbhjnu.s 			page 63


 1891 01a6 1868     		ldr	r0, [r3]
 908:Drivers/STM32F4xx_HAL_Driver/Src/stm32f4xx_hal_adc_ex.c ****       break;
 1892              		.loc 1 908 21 view .LVU611
 1893 01a8 C269     		ldr	r2, [r0, #28]
 908:Drivers/STM32F4xx_HAL_Driver/Src/stm32f4xx_hal_adc_ex.c ****       break;
 1894              		.loc 1 908 47 view .LVU612
 1895 01aa CC68     		ldr	r4, [r1, #12]
 908:Drivers/STM32F4xx_HAL_Driver/Src/stm32f4xx_hal_adc_ex.c ****       break;
 1896              		.loc 1 908 29 view .LVU613
 1897 01ac 2243     		orrs	r2, r2, r4
 1898 01ae C261     		str	r2, [r0, #28]
 909:Drivers/STM32F4xx_HAL_Driver/Src/stm32f4xx_hal_adc_ex.c ****     default:
 1899              		.loc 1 909 7 is_stmt 1 view .LVU614
 1900 01b0 B0E7     		b	.L127
 1901              	.L126:
 912:Drivers/STM32F4xx_HAL_Driver/Src/stm32f4xx_hal_adc_ex.c ****       hadc->Instance->JOFR4 |= sConfigInjected->InjectedOffset;
 1902              		.loc 1 912 7 view .LVU615
 912:Drivers/STM32F4xx_HAL_Driver/Src/stm32f4xx_hal_adc_ex.c ****       hadc->Instance->JOFR4 |= sConfigInjected->InjectedOffset;
 1903              		.loc 1 912 11 is_stmt 0 view .LVU616
 1904 01b2 1868     		ldr	r0, [r3]
 912:Drivers/STM32F4xx_HAL_Driver/Src/stm32f4xx_hal_adc_ex.c ****       hadc->Instance->JOFR4 |= sConfigInjected->InjectedOffset;
 1905              		.loc 1 912 21 view .LVU617
 1906 01b4 026A     		ldr	r2, [r0, #32]
 912:Drivers/STM32F4xx_HAL_Driver/Src/stm32f4xx_hal_adc_ex.c ****       hadc->Instance->JOFR4 |= sConfigInjected->InjectedOffset;
 1907              		.loc 1 912 29 view .LVU618
 1908 01b6 6FF30B02 		bfc	r2, #0, #12
 1909 01ba 0262     		str	r2, [r0, #32]
 913:Drivers/STM32F4xx_HAL_Driver/Src/stm32f4xx_hal_adc_ex.c ****       break;
 1910              		.loc 1 913 7 is_stmt 1 view .LVU619
 913:Drivers/STM32F4xx_HAL_Driver/Src/stm32f4xx_hal_adc_ex.c ****       break;
 1911              		.loc 1 913 11 is_stmt 0 view .LVU620
 1912 01bc 1868     		ldr	r0, [r3]
 913:Drivers/STM32F4xx_HAL_Driver/Src/stm32f4xx_hal_adc_ex.c ****       break;
 1913              		.loc 1 913 21 view .LVU621
 1914 01be 026A     		ldr	r2, [r0, #32]
 913:Drivers/STM32F4xx_HAL_Driver/Src/stm32f4xx_hal_adc_ex.c ****       break;
 1915              		.loc 1 913 47 view .LVU622
 1916 01c0 CC68     		ldr	r4, [r1, #12]
 913:Drivers/STM32F4xx_HAL_Driver/Src/stm32f4xx_hal_adc_ex.c ****       break;
 1917              		.loc 1 913 29 view .LVU623
 1918 01c2 2243     		orrs	r2, r2, r4
 1919 01c4 0262     		str	r2, [r0, #32]
 914:Drivers/STM32F4xx_HAL_Driver/Src/stm32f4xx_hal_adc_ex.c ****   }
 1920              		.loc 1 914 7 is_stmt 1 view .LVU624
 1921 01c6 A5E7     		b	.L127
 1922              	.LVL116:
 1923              	.L135:
 923:Drivers/STM32F4xx_HAL_Driver/Src/stm32f4xx_hal_adc_ex.c ****   {
 1924              		.loc 1 923 51 is_stmt 0 discriminator 1 view .LVU625
 1925 01c8 0A68     		ldr	r2, [r1]
 923:Drivers/STM32F4xx_HAL_Driver/Src/stm32f4xx_hal_adc_ex.c ****   {
 1926              		.loc 1 923 32 discriminator 1 view .LVU626
 1927 01ca 122A     		cmp	r2, #18
 1928 01cc A6D1     		bne	.L128
 926:Drivers/STM32F4xx_HAL_Driver/Src/stm32f4xx_hal_adc_ex.c ****   }
 1929              		.loc 1 926 5 is_stmt 1 view .LVU627
 926:Drivers/STM32F4xx_HAL_Driver/Src/stm32f4xx_hal_adc_ex.c ****   }
ARM GAS  C:\Users\LENOVO\AppData\Local\Temp\ccLbhjnu.s 			page 64


 1930              		.loc 1 926 18 is_stmt 0 view .LVU628
 1931 01ce 0B48     		ldr	r0, .L137+8
 1932 01d0 4268     		ldr	r2, [r0, #4]
 926:Drivers/STM32F4xx_HAL_Driver/Src/stm32f4xx_hal_adc_ex.c ****   }
 1933              		.loc 1 926 24 view .LVU629
 1934 01d2 42F48002 		orr	r2, r2, #4194304
 1935 01d6 4260     		str	r2, [r0, #4]
 1936 01d8 A0E7     		b	.L128
 1937              	.L136:
 930:Drivers/STM32F4xx_HAL_Driver/Src/stm32f4xx_hal_adc_ex.c ****   {
 1938              		.loc 1 930 52 discriminator 1 view .LVU630
 1939 01da 0A68     		ldr	r2, [r1]
 930:Drivers/STM32F4xx_HAL_Driver/Src/stm32f4xx_hal_adc_ex.c ****   {
 1940              		.loc 1 930 97 discriminator 1 view .LVU631
 1941 01dc 103A     		subs	r2, r2, #16
 930:Drivers/STM32F4xx_HAL_Driver/Src/stm32f4xx_hal_adc_ex.c ****   {
 1942              		.loc 1 930 32 discriminator 1 view .LVU632
 1943 01de 012A     		cmp	r2, #1
 1944 01e0 A0D8     		bhi	.L129
 933:Drivers/STM32F4xx_HAL_Driver/Src/stm32f4xx_hal_adc_ex.c ****   }
 1945              		.loc 1 933 5 is_stmt 1 view .LVU633
 933:Drivers/STM32F4xx_HAL_Driver/Src/stm32f4xx_hal_adc_ex.c ****   }
 1946              		.loc 1 933 18 is_stmt 0 view .LVU634
 1947 01e2 0649     		ldr	r1, .L137+8
 1948              	.LVL117:
 933:Drivers/STM32F4xx_HAL_Driver/Src/stm32f4xx_hal_adc_ex.c ****   }
 1949              		.loc 1 933 18 view .LVU635
 1950 01e4 4A68     		ldr	r2, [r1, #4]
 933:Drivers/STM32F4xx_HAL_Driver/Src/stm32f4xx_hal_adc_ex.c ****   }
 1951              		.loc 1 933 24 view .LVU636
 1952 01e6 42F40002 		orr	r2, r2, #8388608
 1953 01ea 4A60     		str	r2, [r1, #4]
 1954 01ec 9AE7     		b	.L129
 1955              	.LVL118:
 1956              	.L130:
 1957              	.LCFI22:
 1958              		.cfi_def_cfa_offset 0
 1959              		.cfi_restore 4
 1960              		.cfi_restore 5
 817:Drivers/STM32F4xx_HAL_Driver/Src/stm32f4xx_hal_adc_ex.c ****   
 1961              		.loc 1 817 3 discriminator 1 view .LVU637
 1962 01ee 0220     		movs	r0, #2
 1963              	.LVL119:
 941:Drivers/STM32F4xx_HAL_Driver/Src/stm32f4xx_hal_adc_ex.c **** 
 1964              		.loc 1 941 1 view .LVU638
 1965 01f0 7047     		bx	lr
 1966              	.L138:
 1967 01f2 00BF     		.align	2
 1968              	.L137:
 1969 01f4 01000F00 		.word	983041
 1970 01f8 00200140 		.word	1073815552
 1971 01fc 00230140 		.word	1073816320
 1972              		.cfi_endproc
 1973              	.LFE140:
 1975              		.section	.text.HAL_ADCEx_MultiModeConfigChannel,"ax",%progbits
 1976              		.align	1
 1977              		.global	HAL_ADCEx_MultiModeConfigChannel
ARM GAS  C:\Users\LENOVO\AppData\Local\Temp\ccLbhjnu.s 			page 65


 1978              		.syntax unified
 1979              		.thumb
 1980              		.thumb_func
 1982              	HAL_ADCEx_MultiModeConfigChannel:
 1983              	.LVL120:
 1984              	.LFB141:
 952:Drivers/STM32F4xx_HAL_Driver/Src/stm32f4xx_hal_adc_ex.c **** 
 1985              		.loc 1 952 1 is_stmt 1 view -0
 1986              		.cfi_startproc
 1987              		@ args = 0, pretend = 0, frame = 0
 1988              		@ frame_needed = 0, uses_anonymous_args = 0
 1989              		@ link register save eliminated.
 954:Drivers/STM32F4xx_HAL_Driver/Src/stm32f4xx_hal_adc_ex.c **** 
 1990              		.loc 1 954 3 view .LVU640
 957:Drivers/STM32F4xx_HAL_Driver/Src/stm32f4xx_hal_adc_ex.c ****   assert_param(IS_ADC_DMA_ACCESS_MODE(multimode->DMAAccessMode));
 1991              		.loc 1 957 3 view .LVU641
 958:Drivers/STM32F4xx_HAL_Driver/Src/stm32f4xx_hal_adc_ex.c ****   assert_param(IS_ADC_SAMPLING_DELAY(multimode->TwoSamplingDelay));
 1992              		.loc 1 958 3 view .LVU642
 959:Drivers/STM32F4xx_HAL_Driver/Src/stm32f4xx_hal_adc_ex.c ****   
 1993              		.loc 1 959 3 view .LVU643
 962:Drivers/STM32F4xx_HAL_Driver/Src/stm32f4xx_hal_adc_ex.c **** 
 1994              		.loc 1 962 3 view .LVU644
 962:Drivers/STM32F4xx_HAL_Driver/Src/stm32f4xx_hal_adc_ex.c **** 
 1995              		.loc 1 962 3 view .LVU645
 1996 0000 90F83C30 		ldrb	r3, [r0, #60]	@ zero_extendqisi2
 1997 0004 012B     		cmp	r3, #1
 1998 0006 23D0     		beq	.L141
 952:Drivers/STM32F4xx_HAL_Driver/Src/stm32f4xx_hal_adc_ex.c **** 
 1999              		.loc 1 952 1 is_stmt 0 view .LVU646
 2000 0008 10B4     		push	{r4}
 2001              	.LCFI23:
 2002              		.cfi_def_cfa_offset 4
 2003              		.cfi_offset 4, -4
 2004 000a 0246     		mov	r2, r0
 962:Drivers/STM32F4xx_HAL_Driver/Src/stm32f4xx_hal_adc_ex.c **** 
 2005              		.loc 1 962 3 is_stmt 1 discriminator 2 view .LVU647
 2006 000c 0123     		movs	r3, #1
 2007 000e 80F83C30 		strb	r3, [r0, #60]
 962:Drivers/STM32F4xx_HAL_Driver/Src/stm32f4xx_hal_adc_ex.c **** 
 2008              		.loc 1 962 3 discriminator 2 view .LVU648
 967:Drivers/STM32F4xx_HAL_Driver/Src/stm32f4xx_hal_adc_ex.c **** 
 2009              		.loc 1 967 3 view .LVU649
 2010              	.LVL121:
 970:Drivers/STM32F4xx_HAL_Driver/Src/stm32f4xx_hal_adc_ex.c ****   tmpADC_Common->CCR |= multimode->Mode;
 2011              		.loc 1 970 3 view .LVU650
 970:Drivers/STM32F4xx_HAL_Driver/Src/stm32f4xx_hal_adc_ex.c ****   tmpADC_Common->CCR |= multimode->Mode;
 2012              		.loc 1 970 16 is_stmt 0 view .LVU651
 2013 0012 104B     		ldr	r3, .L146
 2014 0014 5868     		ldr	r0, [r3, #4]
 2015              	.LVL122:
 970:Drivers/STM32F4xx_HAL_Driver/Src/stm32f4xx_hal_adc_ex.c ****   tmpADC_Common->CCR |= multimode->Mode;
 2016              		.loc 1 970 22 view .LVU652
 2017 0016 20F01F00 		bic	r0, r0, #31
 2018 001a 5860     		str	r0, [r3, #4]
 971:Drivers/STM32F4xx_HAL_Driver/Src/stm32f4xx_hal_adc_ex.c ****   
 2019              		.loc 1 971 3 is_stmt 1 view .LVU653
 971:Drivers/STM32F4xx_HAL_Driver/Src/stm32f4xx_hal_adc_ex.c ****   
ARM GAS  C:\Users\LENOVO\AppData\Local\Temp\ccLbhjnu.s 			page 66


 2020              		.loc 1 971 16 is_stmt 0 view .LVU654
 2021 001c 5868     		ldr	r0, [r3, #4]
 971:Drivers/STM32F4xx_HAL_Driver/Src/stm32f4xx_hal_adc_ex.c ****   
 2022              		.loc 1 971 22 view .LVU655
 2023 001e 0C68     		ldr	r4, [r1]
 2024 0020 2043     		orrs	r0, r0, r4
 2025 0022 5860     		str	r0, [r3, #4]
 974:Drivers/STM32F4xx_HAL_Driver/Src/stm32f4xx_hal_adc_ex.c ****   tmpADC_Common->CCR |= multimode->DMAAccessMode;
 2026              		.loc 1 974 3 is_stmt 1 view .LVU656
 974:Drivers/STM32F4xx_HAL_Driver/Src/stm32f4xx_hal_adc_ex.c ****   tmpADC_Common->CCR |= multimode->DMAAccessMode;
 2027              		.loc 1 974 16 is_stmt 0 view .LVU657
 2028 0024 5868     		ldr	r0, [r3, #4]
 974:Drivers/STM32F4xx_HAL_Driver/Src/stm32f4xx_hal_adc_ex.c ****   tmpADC_Common->CCR |= multimode->DMAAccessMode;
 2029              		.loc 1 974 22 view .LVU658
 2030 0026 20F44040 		bic	r0, r0, #49152
 2031 002a 5860     		str	r0, [r3, #4]
 975:Drivers/STM32F4xx_HAL_Driver/Src/stm32f4xx_hal_adc_ex.c ****   
 2032              		.loc 1 975 3 is_stmt 1 view .LVU659
 975:Drivers/STM32F4xx_HAL_Driver/Src/stm32f4xx_hal_adc_ex.c ****   
 2033              		.loc 1 975 16 is_stmt 0 view .LVU660
 2034 002c 5868     		ldr	r0, [r3, #4]
 975:Drivers/STM32F4xx_HAL_Driver/Src/stm32f4xx_hal_adc_ex.c ****   
 2035              		.loc 1 975 22 view .LVU661
 2036 002e 4C68     		ldr	r4, [r1, #4]
 2037 0030 2043     		orrs	r0, r0, r4
 2038 0032 5860     		str	r0, [r3, #4]
 978:Drivers/STM32F4xx_HAL_Driver/Src/stm32f4xx_hal_adc_ex.c ****   tmpADC_Common->CCR |= multimode->TwoSamplingDelay;
 2039              		.loc 1 978 3 is_stmt 1 view .LVU662
 978:Drivers/STM32F4xx_HAL_Driver/Src/stm32f4xx_hal_adc_ex.c ****   tmpADC_Common->CCR |= multimode->TwoSamplingDelay;
 2040              		.loc 1 978 16 is_stmt 0 view .LVU663
 2041 0034 5868     		ldr	r0, [r3, #4]
 978:Drivers/STM32F4xx_HAL_Driver/Src/stm32f4xx_hal_adc_ex.c ****   tmpADC_Common->CCR |= multimode->TwoSamplingDelay;
 2042              		.loc 1 978 22 view .LVU664
 2043 0036 20F47060 		bic	r0, r0, #3840
 2044 003a 5860     		str	r0, [r3, #4]
 979:Drivers/STM32F4xx_HAL_Driver/Src/stm32f4xx_hal_adc_ex.c ****   
 2045              		.loc 1 979 3 is_stmt 1 view .LVU665
 979:Drivers/STM32F4xx_HAL_Driver/Src/stm32f4xx_hal_adc_ex.c ****   
 2046              		.loc 1 979 16 is_stmt 0 view .LVU666
 2047 003c 5868     		ldr	r0, [r3, #4]
 979:Drivers/STM32F4xx_HAL_Driver/Src/stm32f4xx_hal_adc_ex.c ****   
 2048              		.loc 1 979 34 view .LVU667
 2049 003e 8968     		ldr	r1, [r1, #8]
 2050              	.LVL123:
 979:Drivers/STM32F4xx_HAL_Driver/Src/stm32f4xx_hal_adc_ex.c ****   
 2051              		.loc 1 979 22 view .LVU668
 2052 0040 0143     		orrs	r1, r1, r0
 2053 0042 5960     		str	r1, [r3, #4]
 982:Drivers/STM32F4xx_HAL_Driver/Src/stm32f4xx_hal_adc_ex.c ****   
 2054              		.loc 1 982 3 is_stmt 1 view .LVU669
 982:Drivers/STM32F4xx_HAL_Driver/Src/stm32f4xx_hal_adc_ex.c ****   
 2055              		.loc 1 982 3 view .LVU670
 2056 0044 0020     		movs	r0, #0
 2057 0046 82F83C00 		strb	r0, [r2, #60]
 982:Drivers/STM32F4xx_HAL_Driver/Src/stm32f4xx_hal_adc_ex.c ****   
 2058              		.loc 1 982 3 view .LVU671
 985:Drivers/STM32F4xx_HAL_Driver/Src/stm32f4xx_hal_adc_ex.c **** }
ARM GAS  C:\Users\LENOVO\AppData\Local\Temp\ccLbhjnu.s 			page 67


 2059              		.loc 1 985 3 view .LVU672
 986:Drivers/STM32F4xx_HAL_Driver/Src/stm32f4xx_hal_adc_ex.c **** 
 2060              		.loc 1 986 1 is_stmt 0 view .LVU673
 2061 004a 5DF8044B 		ldr	r4, [sp], #4
 2062              	.LCFI24:
 2063              		.cfi_restore 4
 2064              		.cfi_def_cfa_offset 0
 2065 004e 7047     		bx	lr
 2066              	.LVL124:
 2067              	.L141:
 962:Drivers/STM32F4xx_HAL_Driver/Src/stm32f4xx_hal_adc_ex.c **** 
 2068              		.loc 1 962 3 discriminator 1 view .LVU674
 2069 0050 0220     		movs	r0, #2
 2070              	.LVL125:
 986:Drivers/STM32F4xx_HAL_Driver/Src/stm32f4xx_hal_adc_ex.c **** 
 2071              		.loc 1 986 1 view .LVU675
 2072 0052 7047     		bx	lr
 2073              	.L147:
 2074              		.align	2
 2075              	.L146:
 2076 0054 00230140 		.word	1073816320
 2077              		.cfi_endproc
 2078              	.LFE141:
 2080              		.text
 2081              	.Letext0:
 2082              		.file 2 "C:/msys64/mingw64/arm-none-eabi/include/machine/_default_types.h"
 2083              		.file 3 "C:/msys64/mingw64/arm-none-eabi/include/sys/_stdint.h"
 2084              		.file 4 "Drivers/CMSIS/Device/ST/STM32F4xx/Include/stm32f407xx.h"
 2085              		.file 5 "Drivers/CMSIS/Device/ST/STM32F4xx/Include/stm32f4xx.h"
 2086              		.file 6 "Drivers/STM32F4xx_HAL_Driver/Inc/stm32f4xx_hal_def.h"
 2087              		.file 7 "Drivers/STM32F4xx_HAL_Driver/Inc/stm32f4xx_hal_dma.h"
 2088              		.file 8 "Drivers/STM32F4xx_HAL_Driver/Inc/stm32f4xx_hal_adc.h"
 2089              		.file 9 "Drivers/STM32F4xx_HAL_Driver/Inc/stm32f4xx_hal_adc_ex.h"
 2090              		.file 10 "Drivers/CMSIS/Device/ST/STM32F4xx/Include/system_stm32f4xx.h"
 2091              		.file 11 "Drivers/STM32F4xx_HAL_Driver/Inc/stm32f4xx_hal.h"
ARM GAS  C:\Users\LENOVO\AppData\Local\Temp\ccLbhjnu.s 			page 68


DEFINED SYMBOLS
                            *ABS*:00000000 stm32f4xx_hal_adc_ex.c
C:\Users\LENOVO\AppData\Local\Temp\ccLbhjnu.s:21     .text.ADC_MultiModeDMAError:00000000 $t
C:\Users\LENOVO\AppData\Local\Temp\ccLbhjnu.s:26     .text.ADC_MultiModeDMAError:00000000 ADC_MultiModeDMAError
C:\Users\LENOVO\AppData\Local\Temp\ccLbhjnu.s:62     .text.ADC_MultiModeDMAHalfConvCplt:00000000 $t
C:\Users\LENOVO\AppData\Local\Temp\ccLbhjnu.s:67     .text.ADC_MultiModeDMAHalfConvCplt:00000000 ADC_MultiModeDMAHalfConvCplt
C:\Users\LENOVO\AppData\Local\Temp\ccLbhjnu.s:94     .text.ADC_MultiModeDMAConvCplt:00000000 $t
C:\Users\LENOVO\AppData\Local\Temp\ccLbhjnu.s:99     .text.ADC_MultiModeDMAConvCplt:00000000 ADC_MultiModeDMAConvCplt
C:\Users\LENOVO\AppData\Local\Temp\ccLbhjnu.s:193    .text.HAL_ADCEx_InjectedStart:00000000 $t
C:\Users\LENOVO\AppData\Local\Temp\ccLbhjnu.s:199    .text.HAL_ADCEx_InjectedStart:00000000 HAL_ADCEx_InjectedStart
C:\Users\LENOVO\AppData\Local\Temp\ccLbhjnu.s:418    .text.HAL_ADCEx_InjectedStart:000000e4 $d
C:\Users\LENOVO\AppData\Local\Temp\ccLbhjnu.s:426    .text.HAL_ADCEx_InjectedStart_IT:00000000 $t
C:\Users\LENOVO\AppData\Local\Temp\ccLbhjnu.s:432    .text.HAL_ADCEx_InjectedStart_IT:00000000 HAL_ADCEx_InjectedStart_IT
C:\Users\LENOVO\AppData\Local\Temp\ccLbhjnu.s:656    .text.HAL_ADCEx_InjectedStart_IT:000000ec $d
C:\Users\LENOVO\AppData\Local\Temp\ccLbhjnu.s:664    .text.HAL_ADCEx_InjectedStop:00000000 $t
C:\Users\LENOVO\AppData\Local\Temp\ccLbhjnu.s:670    .text.HAL_ADCEx_InjectedStop:00000000 HAL_ADCEx_InjectedStop
C:\Users\LENOVO\AppData\Local\Temp\ccLbhjnu.s:764    .text.HAL_ADCEx_InjectedPollForConversion:00000000 $t
C:\Users\LENOVO\AppData\Local\Temp\ccLbhjnu.s:770    .text.HAL_ADCEx_InjectedPollForConversion:00000000 HAL_ADCEx_InjectedPollForConversion
C:\Users\LENOVO\AppData\Local\Temp\ccLbhjnu.s:914    .text.HAL_ADCEx_InjectedStop_IT:00000000 $t
C:\Users\LENOVO\AppData\Local\Temp\ccLbhjnu.s:920    .text.HAL_ADCEx_InjectedStop_IT:00000000 HAL_ADCEx_InjectedStop_IT
C:\Users\LENOVO\AppData\Local\Temp\ccLbhjnu.s:1018   .text.HAL_ADCEx_InjectedGetValue:00000000 $t
C:\Users\LENOVO\AppData\Local\Temp\ccLbhjnu.s:1024   .text.HAL_ADCEx_InjectedGetValue:00000000 HAL_ADCEx_InjectedGetValue
C:\Users\LENOVO\AppData\Local\Temp\ccLbhjnu.s:1053   .text.HAL_ADCEx_InjectedGetValue:00000018 $d
C:\Users\LENOVO\AppData\Local\Temp\ccLbhjnu.s:1057   .text.HAL_ADCEx_InjectedGetValue:0000001c $t
C:\Users\LENOVO\AppData\Local\Temp\ccLbhjnu.s:1116   .text.HAL_ADCEx_MultiModeStart_DMA:00000000 $t
C:\Users\LENOVO\AppData\Local\Temp\ccLbhjnu.s:1122   .text.HAL_ADCEx_MultiModeStart_DMA:00000000 HAL_ADCEx_MultiModeStart_DMA
C:\Users\LENOVO\AppData\Local\Temp\ccLbhjnu.s:1353   .text.HAL_ADCEx_MultiModeStart_DMA:00000104 $d
C:\Users\LENOVO\AppData\Local\Temp\ccLbhjnu.s:1364   .text.HAL_ADCEx_MultiModeStop_DMA:00000000 $t
C:\Users\LENOVO\AppData\Local\Temp\ccLbhjnu.s:1370   .text.HAL_ADCEx_MultiModeStop_DMA:00000000 HAL_ADCEx_MultiModeStop_DMA
C:\Users\LENOVO\AppData\Local\Temp\ccLbhjnu.s:1464   .text.HAL_ADCEx_MultiModeStop_DMA:00000060 $d
C:\Users\LENOVO\AppData\Local\Temp\ccLbhjnu.s:1469   .text.HAL_ADCEx_MultiModeGetValue:00000000 $t
C:\Users\LENOVO\AppData\Local\Temp\ccLbhjnu.s:1475   .text.HAL_ADCEx_MultiModeGetValue:00000000 HAL_ADCEx_MultiModeGetValue
C:\Users\LENOVO\AppData\Local\Temp\ccLbhjnu.s:1495   .text.HAL_ADCEx_MultiModeGetValue:00000008 $d
C:\Users\LENOVO\AppData\Local\Temp\ccLbhjnu.s:1500   .text.HAL_ADCEx_InjectedConvCpltCallback:00000000 $t
C:\Users\LENOVO\AppData\Local\Temp\ccLbhjnu.s:1506   .text.HAL_ADCEx_InjectedConvCpltCallback:00000000 HAL_ADCEx_InjectedConvCpltCallback
C:\Users\LENOVO\AppData\Local\Temp\ccLbhjnu.s:1521   .text.HAL_ADCEx_InjectedConfigChannel:00000000 $t
C:\Users\LENOVO\AppData\Local\Temp\ccLbhjnu.s:1527   .text.HAL_ADCEx_InjectedConfigChannel:00000000 HAL_ADCEx_InjectedConfigChannel
C:\Users\LENOVO\AppData\Local\Temp\ccLbhjnu.s:1969   .text.HAL_ADCEx_InjectedConfigChannel:000001f4 $d
C:\Users\LENOVO\AppData\Local\Temp\ccLbhjnu.s:1976   .text.HAL_ADCEx_MultiModeConfigChannel:00000000 $t
C:\Users\LENOVO\AppData\Local\Temp\ccLbhjnu.s:1982   .text.HAL_ADCEx_MultiModeConfigChannel:00000000 HAL_ADCEx_MultiModeConfigChannel
C:\Users\LENOVO\AppData\Local\Temp\ccLbhjnu.s:2076   .text.HAL_ADCEx_MultiModeConfigChannel:00000054 $d

UNDEFINED SYMBOLS
HAL_ADC_ErrorCallback
HAL_ADC_ConvHalfCpltCallback
HAL_ADC_ConvCpltCallback
SystemCoreClock
HAL_GetTick
HAL_DMA_Start_IT
HAL_DMA_Abort
