ARM GAS  C:\Users\LENOVO\AppData\Local\Temp\cci8zbF0.s 			page 1


   1              		.cpu cortex-m4
   2              		.arch armv7e-m
   3              		.fpu fpv4-sp-d16
   4              		.eabi_attribute 27, 1
   5              		.eabi_attribute 28, 1
   6              		.eabi_attribute 20, 1
   7              		.eabi_attribute 21, 1
   8              		.eabi_attribute 23, 3
   9              		.eabi_attribute 24, 1
  10              		.eabi_attribute 25, 1
  11              		.eabi_attribute 26, 1
  12              		.eabi_attribute 30, 1
  13              		.eabi_attribute 34, 1
  14              		.eabi_attribute 18, 4
  15              		.file	"usart.c"
  16              		.text
  17              	.Ltext0:
  18              		.cfi_sections	.debug_frame
  19              		.file 1 "Core/Src/usart.c"
  20              		.section	.text.MX_USART1_UART_Init,"ax",%progbits
  21              		.align	1
  22              		.global	MX_USART1_UART_Init
  23              		.syntax unified
  24              		.thumb
  25              		.thumb_func
  27              	MX_USART1_UART_Init:
  28              	.LFB130:
   1:Core/Src/usart.c **** /**
   2:Core/Src/usart.c ****  ******************************************************************************
   3:Core/Src/usart.c ****  * File Name          : USART.c
   4:Core/Src/usart.c ****  * Description        : This file provides code for the configuration
   5:Core/Src/usart.c ****  *                      of the USART instances.
   6:Core/Src/usart.c ****  ******************************************************************************
   7:Core/Src/usart.c ****  * @attention
   8:Core/Src/usart.c ****  *
   9:Core/Src/usart.c ****  * <h2><center>&copy; Copyright (c) 2022 STMicroelectronics.
  10:Core/Src/usart.c ****  * All rights reserved.</center></h2>
  11:Core/Src/usart.c ****  *
  12:Core/Src/usart.c ****  * This software component is licensed by ST under Ultimate Liberty license
  13:Core/Src/usart.c ****  * SLA0044, the "License"; You may not use this file except in compliance with
  14:Core/Src/usart.c ****  * the License. You may obtain a copy of the License at:
  15:Core/Src/usart.c ****  *                             www.st.com/SLA0044
  16:Core/Src/usart.c ****  *
  17:Core/Src/usart.c ****  ******************************************************************************
  18:Core/Src/usart.c ****  */
  19:Core/Src/usart.c **** 
  20:Core/Src/usart.c **** /* Includes ------------------------------------------------------------------*/
  21:Core/Src/usart.c **** #include "usart.h"
  22:Core/Src/usart.c **** 
  23:Core/Src/usart.c **** /* USER CODE BEGIN 0 */
  24:Core/Src/usart.c **** 
  25:Core/Src/usart.c **** /* USER CODE END 0 */
  26:Core/Src/usart.c **** 
  27:Core/Src/usart.c **** UART_HandleTypeDef huart1;
  28:Core/Src/usart.c **** UART_HandleTypeDef huart3;
  29:Core/Src/usart.c **** UART_HandleTypeDef huart6;
  30:Core/Src/usart.c **** DMA_HandleTypeDef hdma_usart1_tx;
ARM GAS  C:\Users\LENOVO\AppData\Local\Temp\cci8zbF0.s 			page 2


  31:Core/Src/usart.c **** DMA_HandleTypeDef hdma_usart1_rx;
  32:Core/Src/usart.c **** DMA_HandleTypeDef hdma_usart3_rx;
  33:Core/Src/usart.c **** DMA_HandleTypeDef hdma_usart6_tx;
  34:Core/Src/usart.c **** DMA_HandleTypeDef hdma_usart6_rx;
  35:Core/Src/usart.c **** 
  36:Core/Src/usart.c **** /* USART1 init function */
  37:Core/Src/usart.c **** 
  38:Core/Src/usart.c **** void MX_USART1_UART_Init(void)
  39:Core/Src/usart.c **** {
  29              		.loc 1 39 1 view -0
  30              		.cfi_startproc
  31              		@ args = 0, pretend = 0, frame = 0
  32              		@ frame_needed = 0, uses_anonymous_args = 0
  33 0000 08B5     		push	{r3, lr}
  34              	.LCFI0:
  35              		.cfi_def_cfa_offset 8
  36              		.cfi_offset 3, -8
  37              		.cfi_offset 14, -4
  40:Core/Src/usart.c **** 
  41:Core/Src/usart.c ****   huart1.Instance = USART1;
  38              		.loc 1 41 3 view .LVU1
  39              		.loc 1 41 19 is_stmt 0 view .LVU2
  40 0002 0A48     		ldr	r0, .L5
  41 0004 0A4B     		ldr	r3, .L5+4
  42 0006 0360     		str	r3, [r0]
  42:Core/Src/usart.c ****   huart1.Init.BaudRate = 115200;
  43              		.loc 1 42 3 is_stmt 1 view .LVU3
  44              		.loc 1 42 24 is_stmt 0 view .LVU4
  45 0008 4FF4E133 		mov	r3, #115200
  46 000c 4360     		str	r3, [r0, #4]
  43:Core/Src/usart.c ****   huart1.Init.WordLength = UART_WORDLENGTH_8B;
  47              		.loc 1 43 3 is_stmt 1 view .LVU5
  48              		.loc 1 43 26 is_stmt 0 view .LVU6
  49 000e 0023     		movs	r3, #0
  50 0010 8360     		str	r3, [r0, #8]
  44:Core/Src/usart.c ****   huart1.Init.StopBits = UART_STOPBITS_1;
  51              		.loc 1 44 3 is_stmt 1 view .LVU7
  52              		.loc 1 44 24 is_stmt 0 view .LVU8
  53 0012 C360     		str	r3, [r0, #12]
  45:Core/Src/usart.c ****   huart1.Init.Parity = UART_PARITY_NONE;
  54              		.loc 1 45 3 is_stmt 1 view .LVU9
  55              		.loc 1 45 22 is_stmt 0 view .LVU10
  56 0014 0361     		str	r3, [r0, #16]
  46:Core/Src/usart.c ****   huart1.Init.Mode = UART_MODE_TX_RX;
  57              		.loc 1 46 3 is_stmt 1 view .LVU11
  58              		.loc 1 46 20 is_stmt 0 view .LVU12
  59 0016 0C22     		movs	r2, #12
  60 0018 4261     		str	r2, [r0, #20]
  47:Core/Src/usart.c ****   huart1.Init.HwFlowCtl = UART_HWCONTROL_NONE;
  61              		.loc 1 47 3 is_stmt 1 view .LVU13
  62              		.loc 1 47 25 is_stmt 0 view .LVU14
  63 001a 8361     		str	r3, [r0, #24]
  48:Core/Src/usart.c ****   huart1.Init.OverSampling = UART_OVERSAMPLING_16;
  64              		.loc 1 48 3 is_stmt 1 view .LVU15
  65              		.loc 1 48 28 is_stmt 0 view .LVU16
  66 001c C361     		str	r3, [r0, #28]
  49:Core/Src/usart.c ****   if (HAL_UART_Init(&huart1) != HAL_OK)
ARM GAS  C:\Users\LENOVO\AppData\Local\Temp\cci8zbF0.s 			page 3


  67              		.loc 1 49 3 is_stmt 1 view .LVU17
  68              		.loc 1 49 7 is_stmt 0 view .LVU18
  69 001e FFF7FEFF 		bl	HAL_UART_Init
  70              	.LVL0:
  71              		.loc 1 49 6 discriminator 1 view .LVU19
  72 0022 00B9     		cbnz	r0, .L4
  73              	.L1:
  50:Core/Src/usart.c ****   {
  51:Core/Src/usart.c ****     Error_Handler();
  52:Core/Src/usart.c ****   }
  53:Core/Src/usart.c **** }
  74              		.loc 1 53 1 view .LVU20
  75 0024 08BD     		pop	{r3, pc}
  76              	.L4:
  51:Core/Src/usart.c ****   }
  77              		.loc 1 51 5 is_stmt 1 view .LVU21
  78 0026 FFF7FEFF 		bl	Error_Handler
  79              	.LVL1:
  80              		.loc 1 53 1 is_stmt 0 view .LVU22
  81 002a FBE7     		b	.L1
  82              	.L6:
  83              		.align	2
  84              	.L5:
  85 002c 00000000 		.word	huart1
  86 0030 00100140 		.word	1073811456
  87              		.cfi_endproc
  88              	.LFE130:
  90              		.section	.text.MX_USART3_UART_Init,"ax",%progbits
  91              		.align	1
  92              		.global	MX_USART3_UART_Init
  93              		.syntax unified
  94              		.thumb
  95              		.thumb_func
  97              	MX_USART3_UART_Init:
  98              	.LFB131:
  54:Core/Src/usart.c **** /* USART3 init function */
  55:Core/Src/usart.c **** 
  56:Core/Src/usart.c **** void MX_USART3_UART_Init(void)
  57:Core/Src/usart.c **** {
  99              		.loc 1 57 1 is_stmt 1 view -0
 100              		.cfi_startproc
 101              		@ args = 0, pretend = 0, frame = 0
 102              		@ frame_needed = 0, uses_anonymous_args = 0
 103 0000 08B5     		push	{r3, lr}
 104              	.LCFI1:
 105              		.cfi_def_cfa_offset 8
 106              		.cfi_offset 3, -8
 107              		.cfi_offset 14, -4
  58:Core/Src/usart.c **** 
  59:Core/Src/usart.c ****   huart3.Instance = USART3;
 108              		.loc 1 59 3 view .LVU24
 109              		.loc 1 59 19 is_stmt 0 view .LVU25
 110 0002 0B48     		ldr	r0, .L11
 111 0004 0B4B     		ldr	r3, .L11+4
 112 0006 0360     		str	r3, [r0]
  60:Core/Src/usart.c ****   huart3.Init.BaudRate = 100000;
 113              		.loc 1 60 3 is_stmt 1 view .LVU26
ARM GAS  C:\Users\LENOVO\AppData\Local\Temp\cci8zbF0.s 			page 4


 114              		.loc 1 60 24 is_stmt 0 view .LVU27
 115 0008 0B4B     		ldr	r3, .L11+8
 116 000a 4360     		str	r3, [r0, #4]
  61:Core/Src/usart.c ****   huart3.Init.WordLength = UART_WORDLENGTH_8B;
 117              		.loc 1 61 3 is_stmt 1 view .LVU28
 118              		.loc 1 61 26 is_stmt 0 view .LVU29
 119 000c 0023     		movs	r3, #0
 120 000e 8360     		str	r3, [r0, #8]
  62:Core/Src/usart.c ****   huart3.Init.StopBits = UART_STOPBITS_1;
 121              		.loc 1 62 3 is_stmt 1 view .LVU30
 122              		.loc 1 62 24 is_stmt 0 view .LVU31
 123 0010 C360     		str	r3, [r0, #12]
  63:Core/Src/usart.c ****   huart3.Init.Parity = UART_PARITY_EVEN;
 124              		.loc 1 63 3 is_stmt 1 view .LVU32
 125              		.loc 1 63 22 is_stmt 0 view .LVU33
 126 0012 4FF48062 		mov	r2, #1024
 127 0016 0261     		str	r2, [r0, #16]
  64:Core/Src/usart.c ****   huart3.Init.Mode = UART_MODE_TX_RX;
 128              		.loc 1 64 3 is_stmt 1 view .LVU34
 129              		.loc 1 64 20 is_stmt 0 view .LVU35
 130 0018 0C22     		movs	r2, #12
 131 001a 4261     		str	r2, [r0, #20]
  65:Core/Src/usart.c ****   huart3.Init.HwFlowCtl = UART_HWCONTROL_NONE;
 132              		.loc 1 65 3 is_stmt 1 view .LVU36
 133              		.loc 1 65 25 is_stmt 0 view .LVU37
 134 001c 8361     		str	r3, [r0, #24]
  66:Core/Src/usart.c ****   huart3.Init.OverSampling = UART_OVERSAMPLING_16;
 135              		.loc 1 66 3 is_stmt 1 view .LVU38
 136              		.loc 1 66 28 is_stmt 0 view .LVU39
 137 001e C361     		str	r3, [r0, #28]
  67:Core/Src/usart.c ****   if (HAL_UART_Init(&huart3) != HAL_OK)
 138              		.loc 1 67 3 is_stmt 1 view .LVU40
 139              		.loc 1 67 7 is_stmt 0 view .LVU41
 140 0020 FFF7FEFF 		bl	HAL_UART_Init
 141              	.LVL2:
 142              		.loc 1 67 6 discriminator 1 view .LVU42
 143 0024 00B9     		cbnz	r0, .L10
 144              	.L7:
  68:Core/Src/usart.c ****   {
  69:Core/Src/usart.c ****     Error_Handler();
  70:Core/Src/usart.c ****   }
  71:Core/Src/usart.c **** }
 145              		.loc 1 71 1 view .LVU43
 146 0026 08BD     		pop	{r3, pc}
 147              	.L10:
  69:Core/Src/usart.c ****   }
 148              		.loc 1 69 5 is_stmt 1 view .LVU44
 149 0028 FFF7FEFF 		bl	Error_Handler
 150              	.LVL3:
 151              		.loc 1 71 1 is_stmt 0 view .LVU45
 152 002c FBE7     		b	.L7
 153              	.L12:
 154 002e 00BF     		.align	2
 155              	.L11:
 156 0030 00000000 		.word	huart3
 157 0034 00480040 		.word	1073760256
 158 0038 A0860100 		.word	100000
ARM GAS  C:\Users\LENOVO\AppData\Local\Temp\cci8zbF0.s 			page 5


 159              		.cfi_endproc
 160              	.LFE131:
 162              		.section	.text.MX_USART6_UART_Init,"ax",%progbits
 163              		.align	1
 164              		.global	MX_USART6_UART_Init
 165              		.syntax unified
 166              		.thumb
 167              		.thumb_func
 169              	MX_USART6_UART_Init:
 170              	.LFB132:
  72:Core/Src/usart.c **** /* USART6 init function */
  73:Core/Src/usart.c **** 
  74:Core/Src/usart.c **** void MX_USART6_UART_Init(void)
  75:Core/Src/usart.c **** {
 171              		.loc 1 75 1 is_stmt 1 view -0
 172              		.cfi_startproc
 173              		@ args = 0, pretend = 0, frame = 0
 174              		@ frame_needed = 0, uses_anonymous_args = 0
 175 0000 08B5     		push	{r3, lr}
 176              	.LCFI2:
 177              		.cfi_def_cfa_offset 8
 178              		.cfi_offset 3, -8
 179              		.cfi_offset 14, -4
  76:Core/Src/usart.c **** 
  77:Core/Src/usart.c ****   huart6.Instance = USART6;
 180              		.loc 1 77 3 view .LVU47
 181              		.loc 1 77 19 is_stmt 0 view .LVU48
 182 0002 0A48     		ldr	r0, .L17
 183 0004 0A4B     		ldr	r3, .L17+4
 184 0006 0360     		str	r3, [r0]
  78:Core/Src/usart.c ****   huart6.Init.BaudRate = 115200;
 185              		.loc 1 78 3 is_stmt 1 view .LVU49
 186              		.loc 1 78 24 is_stmt 0 view .LVU50
 187 0008 4FF4E133 		mov	r3, #115200
 188 000c 4360     		str	r3, [r0, #4]
  79:Core/Src/usart.c ****   huart6.Init.WordLength = UART_WORDLENGTH_8B;
 189              		.loc 1 79 3 is_stmt 1 view .LVU51
 190              		.loc 1 79 26 is_stmt 0 view .LVU52
 191 000e 0023     		movs	r3, #0
 192 0010 8360     		str	r3, [r0, #8]
  80:Core/Src/usart.c ****   huart6.Init.StopBits = UART_STOPBITS_1;
 193              		.loc 1 80 3 is_stmt 1 view .LVU53
 194              		.loc 1 80 24 is_stmt 0 view .LVU54
 195 0012 C360     		str	r3, [r0, #12]
  81:Core/Src/usart.c ****   huart6.Init.Parity = UART_PARITY_NONE;
 196              		.loc 1 81 3 is_stmt 1 view .LVU55
 197              		.loc 1 81 22 is_stmt 0 view .LVU56
 198 0014 0361     		str	r3, [r0, #16]
  82:Core/Src/usart.c ****   huart6.Init.Mode = UART_MODE_TX_RX;
 199              		.loc 1 82 3 is_stmt 1 view .LVU57
 200              		.loc 1 82 20 is_stmt 0 view .LVU58
 201 0016 0C22     		movs	r2, #12
 202 0018 4261     		str	r2, [r0, #20]
  83:Core/Src/usart.c ****   huart6.Init.HwFlowCtl = UART_HWCONTROL_NONE;
 203              		.loc 1 83 3 is_stmt 1 view .LVU59
 204              		.loc 1 83 25 is_stmt 0 view .LVU60
 205 001a 8361     		str	r3, [r0, #24]
ARM GAS  C:\Users\LENOVO\AppData\Local\Temp\cci8zbF0.s 			page 6


  84:Core/Src/usart.c ****   huart6.Init.OverSampling = UART_OVERSAMPLING_16;
 206              		.loc 1 84 3 is_stmt 1 view .LVU61
 207              		.loc 1 84 28 is_stmt 0 view .LVU62
 208 001c C361     		str	r3, [r0, #28]
  85:Core/Src/usart.c ****   if (HAL_UART_Init(&huart6) != HAL_OK)
 209              		.loc 1 85 3 is_stmt 1 view .LVU63
 210              		.loc 1 85 7 is_stmt 0 view .LVU64
 211 001e FFF7FEFF 		bl	HAL_UART_Init
 212              	.LVL4:
 213              		.loc 1 85 6 discriminator 1 view .LVU65
 214 0022 00B9     		cbnz	r0, .L16
 215              	.L13:
  86:Core/Src/usart.c ****   {
  87:Core/Src/usart.c ****     Error_Handler();
  88:Core/Src/usart.c ****   }
  89:Core/Src/usart.c **** }
 216              		.loc 1 89 1 view .LVU66
 217 0024 08BD     		pop	{r3, pc}
 218              	.L16:
  87:Core/Src/usart.c ****   }
 219              		.loc 1 87 5 is_stmt 1 view .LVU67
 220 0026 FFF7FEFF 		bl	Error_Handler
 221              	.LVL5:
 222              		.loc 1 89 1 is_stmt 0 view .LVU68
 223 002a FBE7     		b	.L13
 224              	.L18:
 225              		.align	2
 226              	.L17:
 227 002c 00000000 		.word	huart6
 228 0030 00140140 		.word	1073812480
 229              		.cfi_endproc
 230              	.LFE132:
 232              		.section	.text.HAL_UART_MspInit,"ax",%progbits
 233              		.align	1
 234              		.global	HAL_UART_MspInit
 235              		.syntax unified
 236              		.thumb
 237              		.thumb_func
 239              	HAL_UART_MspInit:
 240              	.LVL6:
 241              	.LFB133:
  90:Core/Src/usart.c **** 
  91:Core/Src/usart.c **** void HAL_UART_MspInit(UART_HandleTypeDef *uartHandle)
  92:Core/Src/usart.c **** {
 242              		.loc 1 92 1 is_stmt 1 view -0
 243              		.cfi_startproc
 244              		@ args = 0, pretend = 0, frame = 48
 245              		@ frame_needed = 0, uses_anonymous_args = 0
 246              		.loc 1 92 1 is_stmt 0 view .LVU70
 247 0000 2DE9F041 		push	{r4, r5, r6, r7, r8, lr}
 248              	.LCFI3:
 249              		.cfi_def_cfa_offset 24
 250              		.cfi_offset 4, -24
 251              		.cfi_offset 5, -20
 252              		.cfi_offset 6, -16
 253              		.cfi_offset 7, -12
 254              		.cfi_offset 8, -8
ARM GAS  C:\Users\LENOVO\AppData\Local\Temp\cci8zbF0.s 			page 7


 255              		.cfi_offset 14, -4
 256 0004 8CB0     		sub	sp, sp, #48
 257              	.LCFI4:
 258              		.cfi_def_cfa_offset 72
 259 0006 0446     		mov	r4, r0
  93:Core/Src/usart.c **** 
  94:Core/Src/usart.c ****   GPIO_InitTypeDef GPIO_InitStruct = {0};
 260              		.loc 1 94 3 is_stmt 1 view .LVU71
 261              		.loc 1 94 20 is_stmt 0 view .LVU72
 262 0008 0023     		movs	r3, #0
 263 000a 0793     		str	r3, [sp, #28]
 264 000c 0893     		str	r3, [sp, #32]
 265 000e 0993     		str	r3, [sp, #36]
 266 0010 0A93     		str	r3, [sp, #40]
 267 0012 0B93     		str	r3, [sp, #44]
  95:Core/Src/usart.c ****   if (uartHandle->Instance == USART1)
 268              		.loc 1 95 3 is_stmt 1 view .LVU73
 269              		.loc 1 95 17 is_stmt 0 view .LVU74
 270 0014 0368     		ldr	r3, [r0]
 271              		.loc 1 95 6 view .LVU75
 272 0016 9B4A     		ldr	r2, .L37
 273 0018 9342     		cmp	r3, r2
 274 001a 0AD0     		beq	.L29
  96:Core/Src/usart.c ****   {
  97:Core/Src/usart.c ****     /* USER CODE BEGIN USART1_MspInit 0 */
  98:Core/Src/usart.c **** 
  99:Core/Src/usart.c ****     /* USER CODE END USART1_MspInit 0 */
 100:Core/Src/usart.c ****     /* USART1 clock enable */
 101:Core/Src/usart.c ****     __HAL_RCC_USART1_CLK_ENABLE();
 102:Core/Src/usart.c **** 
 103:Core/Src/usart.c ****     __HAL_RCC_GPIOB_CLK_ENABLE();
 104:Core/Src/usart.c ****     __HAL_RCC_GPIOA_CLK_ENABLE();
 105:Core/Src/usart.c ****     /**USART1 GPIO Configuration
 106:Core/Src/usart.c ****     PB7     ------> USART1_RX
 107:Core/Src/usart.c ****     PA9     ------> USART1_TX
 108:Core/Src/usart.c ****     */
 109:Core/Src/usart.c ****     GPIO_InitStruct.Pin = GPIO_PIN_7;
 110:Core/Src/usart.c ****     GPIO_InitStruct.Mode = GPIO_MODE_AF_PP;
 111:Core/Src/usart.c ****     GPIO_InitStruct.Pull = GPIO_NOPULL;
 112:Core/Src/usart.c ****     GPIO_InitStruct.Speed = GPIO_SPEED_FREQ_VERY_HIGH;
 113:Core/Src/usart.c ****     GPIO_InitStruct.Alternate = GPIO_AF7_USART1;
 114:Core/Src/usart.c ****     HAL_GPIO_Init(GPIOB, &GPIO_InitStruct);
 115:Core/Src/usart.c **** 
 116:Core/Src/usart.c ****     GPIO_InitStruct.Pin = GPIO_PIN_9;
 117:Core/Src/usart.c ****     GPIO_InitStruct.Mode = GPIO_MODE_AF_PP;
 118:Core/Src/usart.c ****     GPIO_InitStruct.Pull = GPIO_NOPULL;
 119:Core/Src/usart.c ****     GPIO_InitStruct.Speed = GPIO_SPEED_FREQ_VERY_HIGH;
 120:Core/Src/usart.c ****     GPIO_InitStruct.Alternate = GPIO_AF7_USART1;
 121:Core/Src/usart.c ****     HAL_GPIO_Init(GPIOA, &GPIO_InitStruct);
 122:Core/Src/usart.c **** 
 123:Core/Src/usart.c ****     /* USART1 DMA Init */
 124:Core/Src/usart.c ****     /* USART1_TX Init */
 125:Core/Src/usart.c ****     hdma_usart1_tx.Instance = DMA2_Stream7;
 126:Core/Src/usart.c ****     hdma_usart1_tx.Init.Channel = DMA_CHANNEL_4;
 127:Core/Src/usart.c ****     hdma_usart1_tx.Init.Direction = DMA_MEMORY_TO_PERIPH;
 128:Core/Src/usart.c ****     hdma_usart1_tx.Init.PeriphInc = DMA_PINC_DISABLE;
 129:Core/Src/usart.c ****     hdma_usart1_tx.Init.MemInc = DMA_MINC_ENABLE;
ARM GAS  C:\Users\LENOVO\AppData\Local\Temp\cci8zbF0.s 			page 8


 130:Core/Src/usart.c ****     hdma_usart1_tx.Init.PeriphDataAlignment = DMA_PDATAALIGN_BYTE;
 131:Core/Src/usart.c ****     hdma_usart1_tx.Init.MemDataAlignment = DMA_MDATAALIGN_BYTE;
 132:Core/Src/usart.c ****     hdma_usart1_tx.Init.Mode = DMA_NORMAL;
 133:Core/Src/usart.c ****     hdma_usart1_tx.Init.Priority = DMA_PRIORITY_MEDIUM;
 134:Core/Src/usart.c ****     hdma_usart1_tx.Init.FIFOMode = DMA_FIFOMODE_DISABLE;
 135:Core/Src/usart.c ****     if (HAL_DMA_Init(&hdma_usart1_tx) != HAL_OK)
 136:Core/Src/usart.c ****     {
 137:Core/Src/usart.c ****       Error_Handler();
 138:Core/Src/usart.c ****     }
 139:Core/Src/usart.c **** 
 140:Core/Src/usart.c ****     __HAL_LINKDMA(uartHandle, hdmatx, hdma_usart1_tx);
 141:Core/Src/usart.c **** 
 142:Core/Src/usart.c ****     /* USART1_RX Init */
 143:Core/Src/usart.c ****     hdma_usart1_rx.Instance = DMA2_Stream5;
 144:Core/Src/usart.c ****     hdma_usart1_rx.Init.Channel = DMA_CHANNEL_4;
 145:Core/Src/usart.c ****     hdma_usart1_rx.Init.Direction = DMA_PERIPH_TO_MEMORY;
 146:Core/Src/usart.c ****     hdma_usart1_rx.Init.PeriphInc = DMA_PINC_DISABLE;
 147:Core/Src/usart.c ****     hdma_usart1_rx.Init.MemInc = DMA_MINC_ENABLE;
 148:Core/Src/usart.c ****     hdma_usart1_rx.Init.PeriphDataAlignment = DMA_PDATAALIGN_BYTE;
 149:Core/Src/usart.c ****     hdma_usart1_rx.Init.MemDataAlignment = DMA_MDATAALIGN_BYTE;
 150:Core/Src/usart.c ****     hdma_usart1_rx.Init.Mode = DMA_CIRCULAR;
 151:Core/Src/usart.c ****     hdma_usart1_rx.Init.Priority = DMA_PRIORITY_LOW;
 152:Core/Src/usart.c ****     hdma_usart1_rx.Init.FIFOMode = DMA_FIFOMODE_DISABLE;
 153:Core/Src/usart.c ****     if (HAL_DMA_Init(&hdma_usart1_rx) != HAL_OK)
 154:Core/Src/usart.c ****     {
 155:Core/Src/usart.c ****       Error_Handler();
 156:Core/Src/usart.c ****     }
 157:Core/Src/usart.c **** 
 158:Core/Src/usart.c ****     __HAL_LINKDMA(uartHandle, hdmarx, hdma_usart1_rx);
 159:Core/Src/usart.c **** 
 160:Core/Src/usart.c ****     /* USART1 interrupt Init */
 161:Core/Src/usart.c ****     HAL_NVIC_SetPriority(USART1_IRQn, 0, 0);
 162:Core/Src/usart.c ****     HAL_NVIC_EnableIRQ(USART1_IRQn);
 163:Core/Src/usart.c ****     /* USER CODE BEGIN USART1_MspInit 1 */
 164:Core/Src/usart.c **** 
 165:Core/Src/usart.c ****     /* USER CODE END USART1_MspInit 1 */
 166:Core/Src/usart.c ****   }
 167:Core/Src/usart.c ****   else if (uartHandle->Instance == USART3)
 275              		.loc 1 167 8 is_stmt 1 view .LVU76
 276              		.loc 1 167 11 is_stmt 0 view .LVU77
 277 001c 9A4A     		ldr	r2, .L37+4
 278 001e 9342     		cmp	r3, r2
 279 0020 00F08280 		beq	.L30
 168:Core/Src/usart.c ****   {
 169:Core/Src/usart.c ****     /* USER CODE BEGIN USART3_MspInit 0 */
 170:Core/Src/usart.c **** 
 171:Core/Src/usart.c ****     /* USER CODE END USART3_MspInit 0 */
 172:Core/Src/usart.c ****     /* USART3 clock enable */
 173:Core/Src/usart.c ****     __HAL_RCC_USART3_CLK_ENABLE();
 174:Core/Src/usart.c **** 
 175:Core/Src/usart.c ****     __HAL_RCC_GPIOC_CLK_ENABLE();
 176:Core/Src/usart.c ****     /**USART3 GPIO Configuration
 177:Core/Src/usart.c ****     PC11     ------> USART3_RX
 178:Core/Src/usart.c ****     PC10     ------> USART3_TX
 179:Core/Src/usart.c ****     */
 180:Core/Src/usart.c ****     GPIO_InitStruct.Pin = GPIO_PIN_11 | GPIO_PIN_10;
 181:Core/Src/usart.c ****     GPIO_InitStruct.Mode = GPIO_MODE_AF_PP;
ARM GAS  C:\Users\LENOVO\AppData\Local\Temp\cci8zbF0.s 			page 9


 182:Core/Src/usart.c ****     GPIO_InitStruct.Pull = GPIO_NOPULL;
 183:Core/Src/usart.c ****     GPIO_InitStruct.Speed = GPIO_SPEED_FREQ_VERY_HIGH;
 184:Core/Src/usart.c ****     GPIO_InitStruct.Alternate = GPIO_AF7_USART3;
 185:Core/Src/usart.c ****     HAL_GPIO_Init(GPIOC, &GPIO_InitStruct);
 186:Core/Src/usart.c **** 
 187:Core/Src/usart.c ****     /* USART3 DMA Init */
 188:Core/Src/usart.c ****     /* USART3_RX Init */
 189:Core/Src/usart.c ****     hdma_usart3_rx.Instance = DMA1_Stream1;
 190:Core/Src/usart.c ****     hdma_usart3_rx.Init.Channel = DMA_CHANNEL_4;
 191:Core/Src/usart.c ****     hdma_usart3_rx.Init.Direction = DMA_PERIPH_TO_MEMORY;
 192:Core/Src/usart.c ****     hdma_usart3_rx.Init.PeriphInc = DMA_PINC_DISABLE;
 193:Core/Src/usart.c ****     hdma_usart3_rx.Init.MemInc = DMA_MINC_ENABLE;
 194:Core/Src/usart.c ****     hdma_usart3_rx.Init.PeriphDataAlignment = DMA_PDATAALIGN_BYTE;
 195:Core/Src/usart.c ****     hdma_usart3_rx.Init.MemDataAlignment = DMA_MDATAALIGN_BYTE;
 196:Core/Src/usart.c ****     hdma_usart3_rx.Init.Mode = DMA_CIRCULAR;
 197:Core/Src/usart.c ****     hdma_usart3_rx.Init.Priority = DMA_PRIORITY_HIGH;
 198:Core/Src/usart.c ****     hdma_usart3_rx.Init.FIFOMode = DMA_FIFOMODE_DISABLE;
 199:Core/Src/usart.c ****     if (HAL_DMA_Init(&hdma_usart3_rx) != HAL_OK)
 200:Core/Src/usart.c ****     {
 201:Core/Src/usart.c ****       Error_Handler();
 202:Core/Src/usart.c ****     }
 203:Core/Src/usart.c **** 
 204:Core/Src/usart.c ****     __HAL_LINKDMA(uartHandle, hdmarx, hdma_usart3_rx);
 205:Core/Src/usart.c **** 
 206:Core/Src/usart.c ****     /* USART3 interrupt Init */
 207:Core/Src/usart.c ****     HAL_NVIC_SetPriority(USART3_IRQn, 4, 0);
 208:Core/Src/usart.c ****     HAL_NVIC_EnableIRQ(USART3_IRQn);
 209:Core/Src/usart.c ****     /* USER CODE BEGIN USART3_MspInit 1 */
 210:Core/Src/usart.c **** 
 211:Core/Src/usart.c ****     /* USER CODE END USART3_MspInit 1 */
 212:Core/Src/usart.c ****   }
 213:Core/Src/usart.c ****   else if (uartHandle->Instance == USART6)
 280              		.loc 1 213 8 is_stmt 1 view .LVU78
 281              		.loc 1 213 11 is_stmt 0 view .LVU79
 282 0024 994A     		ldr	r2, .L37+8
 283 0026 9342     		cmp	r3, r2
 284 0028 00F0C780 		beq	.L31
 285              	.LVL7:
 286              	.L19:
 214:Core/Src/usart.c ****   {
 215:Core/Src/usart.c ****     /* USER CODE BEGIN USART6_MspInit 0 */
 216:Core/Src/usart.c **** 
 217:Core/Src/usart.c ****     /* USER CODE END USART6_MspInit 0 */
 218:Core/Src/usart.c ****     /* USART6 clock enable */
 219:Core/Src/usart.c ****     __HAL_RCC_USART6_CLK_ENABLE();
 220:Core/Src/usart.c **** 
 221:Core/Src/usart.c ****     __HAL_RCC_GPIOG_CLK_ENABLE();
 222:Core/Src/usart.c ****     /**USART6 GPIO Configuration
 223:Core/Src/usart.c ****     PG14     ------> USART6_TX
 224:Core/Src/usart.c ****     PG9     ------> USART6_RX
 225:Core/Src/usart.c ****     */
 226:Core/Src/usart.c ****     GPIO_InitStruct.Pin = GPIO_PIN_14 | GPIO_PIN_9;
 227:Core/Src/usart.c ****     GPIO_InitStruct.Mode = GPIO_MODE_AF_PP;
 228:Core/Src/usart.c ****     GPIO_InitStruct.Pull = GPIO_NOPULL;
 229:Core/Src/usart.c ****     GPIO_InitStruct.Speed = GPIO_SPEED_FREQ_VERY_HIGH;
 230:Core/Src/usart.c ****     GPIO_InitStruct.Alternate = GPIO_AF8_USART6;
 231:Core/Src/usart.c ****     HAL_GPIO_Init(GPIOG, &GPIO_InitStruct);
ARM GAS  C:\Users\LENOVO\AppData\Local\Temp\cci8zbF0.s 			page 10


 232:Core/Src/usart.c **** 
 233:Core/Src/usart.c ****     /* USART6 DMA Init */
 234:Core/Src/usart.c ****     /* USART6_TX Init */
 235:Core/Src/usart.c ****     hdma_usart6_tx.Instance = DMA2_Stream6;
 236:Core/Src/usart.c ****     hdma_usart6_tx.Init.Channel = DMA_CHANNEL_5;
 237:Core/Src/usart.c ****     hdma_usart6_tx.Init.Direction = DMA_MEMORY_TO_PERIPH;
 238:Core/Src/usart.c ****     hdma_usart6_tx.Init.PeriphInc = DMA_PINC_DISABLE;
 239:Core/Src/usart.c ****     hdma_usart6_tx.Init.MemInc = DMA_MINC_ENABLE;
 240:Core/Src/usart.c ****     hdma_usart6_tx.Init.PeriphDataAlignment = DMA_PDATAALIGN_BYTE;
 241:Core/Src/usart.c ****     hdma_usart6_tx.Init.MemDataAlignment = DMA_MDATAALIGN_BYTE;
 242:Core/Src/usart.c ****     hdma_usart6_tx.Init.Mode = DMA_NORMAL;
 243:Core/Src/usart.c ****     hdma_usart6_tx.Init.Priority = DMA_PRIORITY_MEDIUM;
 244:Core/Src/usart.c ****     hdma_usart6_tx.Init.FIFOMode = DMA_FIFOMODE_DISABLE;
 245:Core/Src/usart.c ****     if (HAL_DMA_Init(&hdma_usart6_tx) != HAL_OK)
 246:Core/Src/usart.c ****     {
 247:Core/Src/usart.c ****       Error_Handler();
 248:Core/Src/usart.c ****     }
 249:Core/Src/usart.c **** 
 250:Core/Src/usart.c ****     __HAL_LINKDMA(uartHandle, hdmatx, hdma_usart6_tx);
 251:Core/Src/usart.c **** 
 252:Core/Src/usart.c ****     /* USART6_RX Init */
 253:Core/Src/usart.c ****     hdma_usart6_rx.Instance = DMA2_Stream1;
 254:Core/Src/usart.c ****     hdma_usart6_rx.Init.Channel = DMA_CHANNEL_5;
 255:Core/Src/usart.c ****     hdma_usart6_rx.Init.Direction = DMA_PERIPH_TO_MEMORY;
 256:Core/Src/usart.c ****     hdma_usart6_rx.Init.PeriphInc = DMA_PINC_DISABLE;
 257:Core/Src/usart.c ****     hdma_usart6_rx.Init.MemInc = DMA_MINC_ENABLE;
 258:Core/Src/usart.c ****     hdma_usart6_rx.Init.PeriphDataAlignment = DMA_PDATAALIGN_BYTE;
 259:Core/Src/usart.c ****     hdma_usart6_rx.Init.MemDataAlignment = DMA_MDATAALIGN_BYTE;
 260:Core/Src/usart.c ****     hdma_usart6_rx.Init.Mode = DMA_CIRCULAR;
 261:Core/Src/usart.c ****     hdma_usart6_rx.Init.Priority = DMA_PRIORITY_LOW;
 262:Core/Src/usart.c ****     hdma_usart6_rx.Init.FIFOMode = DMA_FIFOMODE_DISABLE;
 263:Core/Src/usart.c ****     if (HAL_DMA_Init(&hdma_usart6_rx) != HAL_OK)
 264:Core/Src/usart.c ****     {
 265:Core/Src/usart.c ****       Error_Handler();
 266:Core/Src/usart.c ****     }
 267:Core/Src/usart.c **** 
 268:Core/Src/usart.c ****     __HAL_LINKDMA(uartHandle, hdmarx, hdma_usart6_rx);
 269:Core/Src/usart.c **** 
 270:Core/Src/usart.c ****     /* USART6 interrupt Init */
 271:Core/Src/usart.c ****     HAL_NVIC_SetPriority(USART6_IRQn, 5, 0);
 272:Core/Src/usart.c ****     HAL_NVIC_EnableIRQ(USART6_IRQn);
 273:Core/Src/usart.c ****     /* USER CODE BEGIN USART6_MspInit 1 */
 274:Core/Src/usart.c **** 
 275:Core/Src/usart.c ****     /* USER CODE END USART6_MspInit 1 */
 276:Core/Src/usart.c ****   }
 277:Core/Src/usart.c **** }
 287              		.loc 1 277 1 view .LVU80
 288 002c 0CB0     		add	sp, sp, #48
 289              	.LCFI5:
 290              		.cfi_remember_state
 291              		.cfi_def_cfa_offset 24
 292              		@ sp needed
 293 002e BDE8F081 		pop	{r4, r5, r6, r7, r8, pc}
 294              	.LVL8:
 295              	.L29:
 296              	.LCFI6:
 297              		.cfi_restore_state
ARM GAS  C:\Users\LENOVO\AppData\Local\Temp\cci8zbF0.s 			page 11


 101:Core/Src/usart.c **** 
 298              		.loc 1 101 5 is_stmt 1 view .LVU81
 299              	.LBB2:
 101:Core/Src/usart.c **** 
 300              		.loc 1 101 5 view .LVU82
 301 0032 0025     		movs	r5, #0
 302 0034 0095     		str	r5, [sp]
 101:Core/Src/usart.c **** 
 303              		.loc 1 101 5 view .LVU83
 304 0036 964B     		ldr	r3, .L37+12
 305 0038 5A6C     		ldr	r2, [r3, #68]
 306 003a 42F01002 		orr	r2, r2, #16
 307 003e 5A64     		str	r2, [r3, #68]
 101:Core/Src/usart.c **** 
 308              		.loc 1 101 5 view .LVU84
 309 0040 5A6C     		ldr	r2, [r3, #68]
 310 0042 02F01002 		and	r2, r2, #16
 311 0046 0092     		str	r2, [sp]
 101:Core/Src/usart.c **** 
 312              		.loc 1 101 5 view .LVU85
 313 0048 009A     		ldr	r2, [sp]
 314              	.LBE2:
 101:Core/Src/usart.c **** 
 315              		.loc 1 101 5 view .LVU86
 103:Core/Src/usart.c ****     __HAL_RCC_GPIOA_CLK_ENABLE();
 316              		.loc 1 103 5 view .LVU87
 317              	.LBB3:
 103:Core/Src/usart.c ****     __HAL_RCC_GPIOA_CLK_ENABLE();
 318              		.loc 1 103 5 view .LVU88
 319 004a 0195     		str	r5, [sp, #4]
 103:Core/Src/usart.c ****     __HAL_RCC_GPIOA_CLK_ENABLE();
 320              		.loc 1 103 5 view .LVU89
 321 004c 1A6B     		ldr	r2, [r3, #48]
 322 004e 42F00202 		orr	r2, r2, #2
 323 0052 1A63     		str	r2, [r3, #48]
 103:Core/Src/usart.c ****     __HAL_RCC_GPIOA_CLK_ENABLE();
 324              		.loc 1 103 5 view .LVU90
 325 0054 1A6B     		ldr	r2, [r3, #48]
 326 0056 02F00202 		and	r2, r2, #2
 327 005a 0192     		str	r2, [sp, #4]
 103:Core/Src/usart.c ****     __HAL_RCC_GPIOA_CLK_ENABLE();
 328              		.loc 1 103 5 view .LVU91
 329 005c 019A     		ldr	r2, [sp, #4]
 330              	.LBE3:
 103:Core/Src/usart.c ****     __HAL_RCC_GPIOA_CLK_ENABLE();
 331              		.loc 1 103 5 view .LVU92
 104:Core/Src/usart.c ****     /**USART1 GPIO Configuration
 332              		.loc 1 104 5 view .LVU93
 333              	.LBB4:
 104:Core/Src/usart.c ****     /**USART1 GPIO Configuration
 334              		.loc 1 104 5 view .LVU94
 335 005e 0295     		str	r5, [sp, #8]
 104:Core/Src/usart.c ****     /**USART1 GPIO Configuration
 336              		.loc 1 104 5 view .LVU95
 337 0060 1A6B     		ldr	r2, [r3, #48]
 338 0062 42F00102 		orr	r2, r2, #1
 339 0066 1A63     		str	r2, [r3, #48]
ARM GAS  C:\Users\LENOVO\AppData\Local\Temp\cci8zbF0.s 			page 12


 104:Core/Src/usart.c ****     /**USART1 GPIO Configuration
 340              		.loc 1 104 5 view .LVU96
 341 0068 1B6B     		ldr	r3, [r3, #48]
 342 006a 03F00103 		and	r3, r3, #1
 343 006e 0293     		str	r3, [sp, #8]
 104:Core/Src/usart.c ****     /**USART1 GPIO Configuration
 344              		.loc 1 104 5 view .LVU97
 345 0070 029B     		ldr	r3, [sp, #8]
 346              	.LBE4:
 104:Core/Src/usart.c ****     /**USART1 GPIO Configuration
 347              		.loc 1 104 5 view .LVU98
 109:Core/Src/usart.c ****     GPIO_InitStruct.Mode = GPIO_MODE_AF_PP;
 348              		.loc 1 109 5 view .LVU99
 109:Core/Src/usart.c ****     GPIO_InitStruct.Mode = GPIO_MODE_AF_PP;
 349              		.loc 1 109 25 is_stmt 0 view .LVU100
 350 0072 8023     		movs	r3, #128
 351 0074 0793     		str	r3, [sp, #28]
 110:Core/Src/usart.c ****     GPIO_InitStruct.Pull = GPIO_NOPULL;
 352              		.loc 1 110 5 is_stmt 1 view .LVU101
 110:Core/Src/usart.c ****     GPIO_InitStruct.Pull = GPIO_NOPULL;
 353              		.loc 1 110 26 is_stmt 0 view .LVU102
 354 0076 4FF00208 		mov	r8, #2
 355 007a CDF82080 		str	r8, [sp, #32]
 111:Core/Src/usart.c ****     GPIO_InitStruct.Speed = GPIO_SPEED_FREQ_VERY_HIGH;
 356              		.loc 1 111 5 is_stmt 1 view .LVU103
 112:Core/Src/usart.c ****     GPIO_InitStruct.Alternate = GPIO_AF7_USART1;
 357              		.loc 1 112 5 view .LVU104
 112:Core/Src/usart.c ****     GPIO_InitStruct.Alternate = GPIO_AF7_USART1;
 358              		.loc 1 112 27 is_stmt 0 view .LVU105
 359 007e 0327     		movs	r7, #3
 360 0080 0A97     		str	r7, [sp, #40]
 113:Core/Src/usart.c ****     HAL_GPIO_Init(GPIOB, &GPIO_InitStruct);
 361              		.loc 1 113 5 is_stmt 1 view .LVU106
 113:Core/Src/usart.c ****     HAL_GPIO_Init(GPIOB, &GPIO_InitStruct);
 362              		.loc 1 113 31 is_stmt 0 view .LVU107
 363 0082 0726     		movs	r6, #7
 364 0084 0B96     		str	r6, [sp, #44]
 114:Core/Src/usart.c **** 
 365              		.loc 1 114 5 is_stmt 1 view .LVU108
 366 0086 07A9     		add	r1, sp, #28
 367 0088 8248     		ldr	r0, .L37+16
 368              	.LVL9:
 114:Core/Src/usart.c **** 
 369              		.loc 1 114 5 is_stmt 0 view .LVU109
 370 008a FFF7FEFF 		bl	HAL_GPIO_Init
 371              	.LVL10:
 116:Core/Src/usart.c ****     GPIO_InitStruct.Mode = GPIO_MODE_AF_PP;
 372              		.loc 1 116 5 is_stmt 1 view .LVU110
 116:Core/Src/usart.c ****     GPIO_InitStruct.Mode = GPIO_MODE_AF_PP;
 373              		.loc 1 116 25 is_stmt 0 view .LVU111
 374 008e 4FF40073 		mov	r3, #512
 375 0092 0793     		str	r3, [sp, #28]
 117:Core/Src/usart.c ****     GPIO_InitStruct.Pull = GPIO_NOPULL;
 376              		.loc 1 117 5 is_stmt 1 view .LVU112
 117:Core/Src/usart.c ****     GPIO_InitStruct.Pull = GPIO_NOPULL;
 377              		.loc 1 117 26 is_stmt 0 view .LVU113
 378 0094 CDF82080 		str	r8, [sp, #32]
ARM GAS  C:\Users\LENOVO\AppData\Local\Temp\cci8zbF0.s 			page 13


 118:Core/Src/usart.c ****     GPIO_InitStruct.Speed = GPIO_SPEED_FREQ_VERY_HIGH;
 379              		.loc 1 118 5 is_stmt 1 view .LVU114
 118:Core/Src/usart.c ****     GPIO_InitStruct.Speed = GPIO_SPEED_FREQ_VERY_HIGH;
 380              		.loc 1 118 26 is_stmt 0 view .LVU115
 381 0098 0995     		str	r5, [sp, #36]
 119:Core/Src/usart.c ****     GPIO_InitStruct.Alternate = GPIO_AF7_USART1;
 382              		.loc 1 119 5 is_stmt 1 view .LVU116
 119:Core/Src/usart.c ****     GPIO_InitStruct.Alternate = GPIO_AF7_USART1;
 383              		.loc 1 119 27 is_stmt 0 view .LVU117
 384 009a 0A97     		str	r7, [sp, #40]
 120:Core/Src/usart.c ****     HAL_GPIO_Init(GPIOA, &GPIO_InitStruct);
 385              		.loc 1 120 5 is_stmt 1 view .LVU118
 120:Core/Src/usart.c ****     HAL_GPIO_Init(GPIOA, &GPIO_InitStruct);
 386              		.loc 1 120 31 is_stmt 0 view .LVU119
 387 009c 0B96     		str	r6, [sp, #44]
 121:Core/Src/usart.c **** 
 388              		.loc 1 121 5 is_stmt 1 view .LVU120
 389 009e 07A9     		add	r1, sp, #28
 390 00a0 7D48     		ldr	r0, .L37+20
 391 00a2 FFF7FEFF 		bl	HAL_GPIO_Init
 392              	.LVL11:
 125:Core/Src/usart.c ****     hdma_usart1_tx.Init.Channel = DMA_CHANNEL_4;
 393              		.loc 1 125 5 view .LVU121
 125:Core/Src/usart.c ****     hdma_usart1_tx.Init.Channel = DMA_CHANNEL_4;
 394              		.loc 1 125 29 is_stmt 0 view .LVU122
 395 00a6 7D48     		ldr	r0, .L37+24
 396 00a8 7D4B     		ldr	r3, .L37+28
 397 00aa 0360     		str	r3, [r0]
 126:Core/Src/usart.c ****     hdma_usart1_tx.Init.Direction = DMA_MEMORY_TO_PERIPH;
 398              		.loc 1 126 5 is_stmt 1 view .LVU123
 126:Core/Src/usart.c ****     hdma_usart1_tx.Init.Direction = DMA_MEMORY_TO_PERIPH;
 399              		.loc 1 126 33 is_stmt 0 view .LVU124
 400 00ac 4FF00063 		mov	r3, #134217728
 401 00b0 4360     		str	r3, [r0, #4]
 127:Core/Src/usart.c ****     hdma_usart1_tx.Init.PeriphInc = DMA_PINC_DISABLE;
 402              		.loc 1 127 5 is_stmt 1 view .LVU125
 127:Core/Src/usart.c ****     hdma_usart1_tx.Init.PeriphInc = DMA_PINC_DISABLE;
 403              		.loc 1 127 35 is_stmt 0 view .LVU126
 404 00b2 4023     		movs	r3, #64
 405 00b4 8360     		str	r3, [r0, #8]
 128:Core/Src/usart.c ****     hdma_usart1_tx.Init.MemInc = DMA_MINC_ENABLE;
 406              		.loc 1 128 5 is_stmt 1 view .LVU127
 128:Core/Src/usart.c ****     hdma_usart1_tx.Init.MemInc = DMA_MINC_ENABLE;
 407              		.loc 1 128 35 is_stmt 0 view .LVU128
 408 00b6 C560     		str	r5, [r0, #12]
 129:Core/Src/usart.c ****     hdma_usart1_tx.Init.PeriphDataAlignment = DMA_PDATAALIGN_BYTE;
 409              		.loc 1 129 5 is_stmt 1 view .LVU129
 129:Core/Src/usart.c ****     hdma_usart1_tx.Init.PeriphDataAlignment = DMA_PDATAALIGN_BYTE;
 410              		.loc 1 129 32 is_stmt 0 view .LVU130
 411 00b8 4FF48063 		mov	r3, #1024
 412 00bc 0361     		str	r3, [r0, #16]
 130:Core/Src/usart.c ****     hdma_usart1_tx.Init.MemDataAlignment = DMA_MDATAALIGN_BYTE;
 413              		.loc 1 130 5 is_stmt 1 view .LVU131
 130:Core/Src/usart.c ****     hdma_usart1_tx.Init.MemDataAlignment = DMA_MDATAALIGN_BYTE;
 414              		.loc 1 130 45 is_stmt 0 view .LVU132
 415 00be 4561     		str	r5, [r0, #20]
 131:Core/Src/usart.c ****     hdma_usart1_tx.Init.Mode = DMA_NORMAL;
ARM GAS  C:\Users\LENOVO\AppData\Local\Temp\cci8zbF0.s 			page 14


 416              		.loc 1 131 5 is_stmt 1 view .LVU133
 131:Core/Src/usart.c ****     hdma_usart1_tx.Init.Mode = DMA_NORMAL;
 417              		.loc 1 131 42 is_stmt 0 view .LVU134
 418 00c0 8561     		str	r5, [r0, #24]
 132:Core/Src/usart.c ****     hdma_usart1_tx.Init.Priority = DMA_PRIORITY_MEDIUM;
 419              		.loc 1 132 5 is_stmt 1 view .LVU135
 132:Core/Src/usart.c ****     hdma_usart1_tx.Init.Priority = DMA_PRIORITY_MEDIUM;
 420              		.loc 1 132 30 is_stmt 0 view .LVU136
 421 00c2 C561     		str	r5, [r0, #28]
 133:Core/Src/usart.c ****     hdma_usart1_tx.Init.FIFOMode = DMA_FIFOMODE_DISABLE;
 422              		.loc 1 133 5 is_stmt 1 view .LVU137
 133:Core/Src/usart.c ****     hdma_usart1_tx.Init.FIFOMode = DMA_FIFOMODE_DISABLE;
 423              		.loc 1 133 34 is_stmt 0 view .LVU138
 424 00c4 4FF48033 		mov	r3, #65536
 425 00c8 0362     		str	r3, [r0, #32]
 134:Core/Src/usart.c ****     if (HAL_DMA_Init(&hdma_usart1_tx) != HAL_OK)
 426              		.loc 1 134 5 is_stmt 1 view .LVU139
 134:Core/Src/usart.c ****     if (HAL_DMA_Init(&hdma_usart1_tx) != HAL_OK)
 427              		.loc 1 134 34 is_stmt 0 view .LVU140
 428 00ca 4562     		str	r5, [r0, #36]
 135:Core/Src/usart.c ****     {
 429              		.loc 1 135 5 is_stmt 1 view .LVU141
 135:Core/Src/usart.c ****     {
 430              		.loc 1 135 9 is_stmt 0 view .LVU142
 431 00cc FFF7FEFF 		bl	HAL_DMA_Init
 432              	.LVL12:
 135:Core/Src/usart.c ****     {
 433              		.loc 1 135 8 discriminator 1 view .LVU143
 434 00d0 20BB     		cbnz	r0, .L32
 435              	.L21:
 140:Core/Src/usart.c **** 
 436              		.loc 1 140 5 is_stmt 1 view .LVU144
 140:Core/Src/usart.c **** 
 437              		.loc 1 140 5 view .LVU145
 438 00d2 724B     		ldr	r3, .L37+24
 439 00d4 2363     		str	r3, [r4, #48]
 140:Core/Src/usart.c **** 
 440              		.loc 1 140 5 view .LVU146
 441 00d6 9C63     		str	r4, [r3, #56]
 140:Core/Src/usart.c **** 
 442              		.loc 1 140 5 view .LVU147
 143:Core/Src/usart.c ****     hdma_usart1_rx.Init.Channel = DMA_CHANNEL_4;
 443              		.loc 1 143 5 view .LVU148
 143:Core/Src/usart.c ****     hdma_usart1_rx.Init.Channel = DMA_CHANNEL_4;
 444              		.loc 1 143 29 is_stmt 0 view .LVU149
 445 00d8 7248     		ldr	r0, .L37+32
 446 00da 734B     		ldr	r3, .L37+36
 447 00dc 0360     		str	r3, [r0]
 144:Core/Src/usart.c ****     hdma_usart1_rx.Init.Direction = DMA_PERIPH_TO_MEMORY;
 448              		.loc 1 144 5 is_stmt 1 view .LVU150
 144:Core/Src/usart.c ****     hdma_usart1_rx.Init.Direction = DMA_PERIPH_TO_MEMORY;
 449              		.loc 1 144 33 is_stmt 0 view .LVU151
 450 00de 4FF00063 		mov	r3, #134217728
 451 00e2 4360     		str	r3, [r0, #4]
 145:Core/Src/usart.c ****     hdma_usart1_rx.Init.PeriphInc = DMA_PINC_DISABLE;
 452              		.loc 1 145 5 is_stmt 1 view .LVU152
 145:Core/Src/usart.c ****     hdma_usart1_rx.Init.PeriphInc = DMA_PINC_DISABLE;
ARM GAS  C:\Users\LENOVO\AppData\Local\Temp\cci8zbF0.s 			page 15


 453              		.loc 1 145 35 is_stmt 0 view .LVU153
 454 00e4 0023     		movs	r3, #0
 455 00e6 8360     		str	r3, [r0, #8]
 146:Core/Src/usart.c ****     hdma_usart1_rx.Init.MemInc = DMA_MINC_ENABLE;
 456              		.loc 1 146 5 is_stmt 1 view .LVU154
 146:Core/Src/usart.c ****     hdma_usart1_rx.Init.MemInc = DMA_MINC_ENABLE;
 457              		.loc 1 146 35 is_stmt 0 view .LVU155
 458 00e8 C360     		str	r3, [r0, #12]
 147:Core/Src/usart.c ****     hdma_usart1_rx.Init.PeriphDataAlignment = DMA_PDATAALIGN_BYTE;
 459              		.loc 1 147 5 is_stmt 1 view .LVU156
 147:Core/Src/usart.c ****     hdma_usart1_rx.Init.PeriphDataAlignment = DMA_PDATAALIGN_BYTE;
 460              		.loc 1 147 32 is_stmt 0 view .LVU157
 461 00ea 4FF48062 		mov	r2, #1024
 462 00ee 0261     		str	r2, [r0, #16]
 148:Core/Src/usart.c ****     hdma_usart1_rx.Init.MemDataAlignment = DMA_MDATAALIGN_BYTE;
 463              		.loc 1 148 5 is_stmt 1 view .LVU158
 148:Core/Src/usart.c ****     hdma_usart1_rx.Init.MemDataAlignment = DMA_MDATAALIGN_BYTE;
 464              		.loc 1 148 45 is_stmt 0 view .LVU159
 465 00f0 4361     		str	r3, [r0, #20]
 149:Core/Src/usart.c ****     hdma_usart1_rx.Init.Mode = DMA_CIRCULAR;
 466              		.loc 1 149 5 is_stmt 1 view .LVU160
 149:Core/Src/usart.c ****     hdma_usart1_rx.Init.Mode = DMA_CIRCULAR;
 467              		.loc 1 149 42 is_stmt 0 view .LVU161
 468 00f2 8361     		str	r3, [r0, #24]
 150:Core/Src/usart.c ****     hdma_usart1_rx.Init.Priority = DMA_PRIORITY_LOW;
 469              		.loc 1 150 5 is_stmt 1 view .LVU162
 150:Core/Src/usart.c ****     hdma_usart1_rx.Init.Priority = DMA_PRIORITY_LOW;
 470              		.loc 1 150 30 is_stmt 0 view .LVU163
 471 00f4 4FF48072 		mov	r2, #256
 472 00f8 C261     		str	r2, [r0, #28]
 151:Core/Src/usart.c ****     hdma_usart1_rx.Init.FIFOMode = DMA_FIFOMODE_DISABLE;
 473              		.loc 1 151 5 is_stmt 1 view .LVU164
 151:Core/Src/usart.c ****     hdma_usart1_rx.Init.FIFOMode = DMA_FIFOMODE_DISABLE;
 474              		.loc 1 151 34 is_stmt 0 view .LVU165
 475 00fa 0362     		str	r3, [r0, #32]
 152:Core/Src/usart.c ****     if (HAL_DMA_Init(&hdma_usart1_rx) != HAL_OK)
 476              		.loc 1 152 5 is_stmt 1 view .LVU166
 152:Core/Src/usart.c ****     if (HAL_DMA_Init(&hdma_usart1_rx) != HAL_OK)
 477              		.loc 1 152 34 is_stmt 0 view .LVU167
 478 00fc 4362     		str	r3, [r0, #36]
 153:Core/Src/usart.c ****     {
 479              		.loc 1 153 5 is_stmt 1 view .LVU168
 153:Core/Src/usart.c ****     {
 480              		.loc 1 153 9 is_stmt 0 view .LVU169
 481 00fe FFF7FEFF 		bl	HAL_DMA_Init
 482              	.LVL13:
 153:Core/Src/usart.c ****     {
 483              		.loc 1 153 8 discriminator 1 view .LVU170
 484 0102 70B9     		cbnz	r0, .L33
 485              	.L22:
 158:Core/Src/usart.c **** 
 486              		.loc 1 158 5 is_stmt 1 view .LVU171
 158:Core/Src/usart.c **** 
 487              		.loc 1 158 5 view .LVU172
 488 0104 674B     		ldr	r3, .L37+32
 489 0106 6363     		str	r3, [r4, #52]
 158:Core/Src/usart.c **** 
ARM GAS  C:\Users\LENOVO\AppData\Local\Temp\cci8zbF0.s 			page 16


 490              		.loc 1 158 5 view .LVU173
 491 0108 9C63     		str	r4, [r3, #56]
 158:Core/Src/usart.c **** 
 492              		.loc 1 158 5 view .LVU174
 161:Core/Src/usart.c ****     HAL_NVIC_EnableIRQ(USART1_IRQn);
 493              		.loc 1 161 5 view .LVU175
 494 010a 0022     		movs	r2, #0
 495 010c 1146     		mov	r1, r2
 496 010e 2520     		movs	r0, #37
 497 0110 FFF7FEFF 		bl	HAL_NVIC_SetPriority
 498              	.LVL14:
 162:Core/Src/usart.c ****     /* USER CODE BEGIN USART1_MspInit 1 */
 499              		.loc 1 162 5 view .LVU176
 500 0114 2520     		movs	r0, #37
 501 0116 FFF7FEFF 		bl	HAL_NVIC_EnableIRQ
 502              	.LVL15:
 503 011a 87E7     		b	.L19
 504              	.L32:
 137:Core/Src/usart.c ****     }
 505              		.loc 1 137 7 view .LVU177
 506 011c FFF7FEFF 		bl	Error_Handler
 507              	.LVL16:
 508 0120 D7E7     		b	.L21
 509              	.L33:
 155:Core/Src/usart.c ****     }
 510              		.loc 1 155 7 view .LVU178
 511 0122 FFF7FEFF 		bl	Error_Handler
 512              	.LVL17:
 513 0126 EDE7     		b	.L22
 514              	.LVL18:
 515              	.L30:
 173:Core/Src/usart.c **** 
 516              		.loc 1 173 5 view .LVU179
 517              	.LBB5:
 173:Core/Src/usart.c **** 
 518              		.loc 1 173 5 view .LVU180
 519 0128 0025     		movs	r5, #0
 520 012a 0395     		str	r5, [sp, #12]
 173:Core/Src/usart.c **** 
 521              		.loc 1 173 5 view .LVU181
 522 012c 584B     		ldr	r3, .L37+12
 523 012e 1A6C     		ldr	r2, [r3, #64]
 524 0130 42F48022 		orr	r2, r2, #262144
 525 0134 1A64     		str	r2, [r3, #64]
 173:Core/Src/usart.c **** 
 526              		.loc 1 173 5 view .LVU182
 527 0136 1A6C     		ldr	r2, [r3, #64]
 528 0138 02F48022 		and	r2, r2, #262144
 529 013c 0392     		str	r2, [sp, #12]
 173:Core/Src/usart.c **** 
 530              		.loc 1 173 5 view .LVU183
 531 013e 039A     		ldr	r2, [sp, #12]
 532              	.LBE5:
 173:Core/Src/usart.c **** 
 533              		.loc 1 173 5 view .LVU184
 175:Core/Src/usart.c ****     /**USART3 GPIO Configuration
 534              		.loc 1 175 5 view .LVU185
ARM GAS  C:\Users\LENOVO\AppData\Local\Temp\cci8zbF0.s 			page 17


 535              	.LBB6:
 175:Core/Src/usart.c ****     /**USART3 GPIO Configuration
 536              		.loc 1 175 5 view .LVU186
 537 0140 0495     		str	r5, [sp, #16]
 175:Core/Src/usart.c ****     /**USART3 GPIO Configuration
 538              		.loc 1 175 5 view .LVU187
 539 0142 1A6B     		ldr	r2, [r3, #48]
 540 0144 42F00402 		orr	r2, r2, #4
 541 0148 1A63     		str	r2, [r3, #48]
 175:Core/Src/usart.c ****     /**USART3 GPIO Configuration
 542              		.loc 1 175 5 view .LVU188
 543 014a 1B6B     		ldr	r3, [r3, #48]
 544 014c 03F00403 		and	r3, r3, #4
 545 0150 0493     		str	r3, [sp, #16]
 175:Core/Src/usart.c ****     /**USART3 GPIO Configuration
 546              		.loc 1 175 5 view .LVU189
 547 0152 049B     		ldr	r3, [sp, #16]
 548              	.LBE6:
 175:Core/Src/usart.c ****     /**USART3 GPIO Configuration
 549              		.loc 1 175 5 view .LVU190
 180:Core/Src/usart.c ****     GPIO_InitStruct.Mode = GPIO_MODE_AF_PP;
 550              		.loc 1 180 5 view .LVU191
 180:Core/Src/usart.c ****     GPIO_InitStruct.Mode = GPIO_MODE_AF_PP;
 551              		.loc 1 180 25 is_stmt 0 view .LVU192
 552 0154 4FF44063 		mov	r3, #3072
 553 0158 0793     		str	r3, [sp, #28]
 181:Core/Src/usart.c ****     GPIO_InitStruct.Pull = GPIO_NOPULL;
 554              		.loc 1 181 5 is_stmt 1 view .LVU193
 181:Core/Src/usart.c ****     GPIO_InitStruct.Pull = GPIO_NOPULL;
 555              		.loc 1 181 26 is_stmt 0 view .LVU194
 556 015a 0223     		movs	r3, #2
 557 015c 0893     		str	r3, [sp, #32]
 182:Core/Src/usart.c ****     GPIO_InitStruct.Speed = GPIO_SPEED_FREQ_VERY_HIGH;
 558              		.loc 1 182 5 is_stmt 1 view .LVU195
 183:Core/Src/usart.c ****     GPIO_InitStruct.Alternate = GPIO_AF7_USART3;
 559              		.loc 1 183 5 view .LVU196
 183:Core/Src/usart.c ****     GPIO_InitStruct.Alternate = GPIO_AF7_USART3;
 560              		.loc 1 183 27 is_stmt 0 view .LVU197
 561 015e 0323     		movs	r3, #3
 562 0160 0A93     		str	r3, [sp, #40]
 184:Core/Src/usart.c ****     HAL_GPIO_Init(GPIOC, &GPIO_InitStruct);
 563              		.loc 1 184 5 is_stmt 1 view .LVU198
 184:Core/Src/usart.c ****     HAL_GPIO_Init(GPIOC, &GPIO_InitStruct);
 564              		.loc 1 184 31 is_stmt 0 view .LVU199
 565 0162 0723     		movs	r3, #7
 566 0164 0B93     		str	r3, [sp, #44]
 185:Core/Src/usart.c **** 
 567              		.loc 1 185 5 is_stmt 1 view .LVU200
 568 0166 07A9     		add	r1, sp, #28
 569 0168 5048     		ldr	r0, .L37+40
 570              	.LVL19:
 185:Core/Src/usart.c **** 
 571              		.loc 1 185 5 is_stmt 0 view .LVU201
 572 016a FFF7FEFF 		bl	HAL_GPIO_Init
 573              	.LVL20:
 189:Core/Src/usart.c ****     hdma_usart3_rx.Init.Channel = DMA_CHANNEL_4;
 574              		.loc 1 189 5 is_stmt 1 view .LVU202
ARM GAS  C:\Users\LENOVO\AppData\Local\Temp\cci8zbF0.s 			page 18


 189:Core/Src/usart.c ****     hdma_usart3_rx.Init.Channel = DMA_CHANNEL_4;
 575              		.loc 1 189 29 is_stmt 0 view .LVU203
 576 016e 5048     		ldr	r0, .L37+44
 577 0170 504B     		ldr	r3, .L37+48
 578 0172 0360     		str	r3, [r0]
 190:Core/Src/usart.c ****     hdma_usart3_rx.Init.Direction = DMA_PERIPH_TO_MEMORY;
 579              		.loc 1 190 5 is_stmt 1 view .LVU204
 190:Core/Src/usart.c ****     hdma_usart3_rx.Init.Direction = DMA_PERIPH_TO_MEMORY;
 580              		.loc 1 190 33 is_stmt 0 view .LVU205
 581 0174 4FF00063 		mov	r3, #134217728
 582 0178 4360     		str	r3, [r0, #4]
 191:Core/Src/usart.c ****     hdma_usart3_rx.Init.PeriphInc = DMA_PINC_DISABLE;
 583              		.loc 1 191 5 is_stmt 1 view .LVU206
 191:Core/Src/usart.c ****     hdma_usart3_rx.Init.PeriphInc = DMA_PINC_DISABLE;
 584              		.loc 1 191 35 is_stmt 0 view .LVU207
 585 017a 8560     		str	r5, [r0, #8]
 192:Core/Src/usart.c ****     hdma_usart3_rx.Init.MemInc = DMA_MINC_ENABLE;
 586              		.loc 1 192 5 is_stmt 1 view .LVU208
 192:Core/Src/usart.c ****     hdma_usart3_rx.Init.MemInc = DMA_MINC_ENABLE;
 587              		.loc 1 192 35 is_stmt 0 view .LVU209
 588 017c C560     		str	r5, [r0, #12]
 193:Core/Src/usart.c ****     hdma_usart3_rx.Init.PeriphDataAlignment = DMA_PDATAALIGN_BYTE;
 589              		.loc 1 193 5 is_stmt 1 view .LVU210
 193:Core/Src/usart.c ****     hdma_usart3_rx.Init.PeriphDataAlignment = DMA_PDATAALIGN_BYTE;
 590              		.loc 1 193 32 is_stmt 0 view .LVU211
 591 017e 4FF48063 		mov	r3, #1024
 592 0182 0361     		str	r3, [r0, #16]
 194:Core/Src/usart.c ****     hdma_usart3_rx.Init.MemDataAlignment = DMA_MDATAALIGN_BYTE;
 593              		.loc 1 194 5 is_stmt 1 view .LVU212
 194:Core/Src/usart.c ****     hdma_usart3_rx.Init.MemDataAlignment = DMA_MDATAALIGN_BYTE;
 594              		.loc 1 194 45 is_stmt 0 view .LVU213
 595 0184 4561     		str	r5, [r0, #20]
 195:Core/Src/usart.c ****     hdma_usart3_rx.Init.Mode = DMA_CIRCULAR;
 596              		.loc 1 195 5 is_stmt 1 view .LVU214
 195:Core/Src/usart.c ****     hdma_usart3_rx.Init.Mode = DMA_CIRCULAR;
 597              		.loc 1 195 42 is_stmt 0 view .LVU215
 598 0186 8561     		str	r5, [r0, #24]
 196:Core/Src/usart.c ****     hdma_usart3_rx.Init.Priority = DMA_PRIORITY_HIGH;
 599              		.loc 1 196 5 is_stmt 1 view .LVU216
 196:Core/Src/usart.c ****     hdma_usart3_rx.Init.Priority = DMA_PRIORITY_HIGH;
 600              		.loc 1 196 30 is_stmt 0 view .LVU217
 601 0188 4FF48073 		mov	r3, #256
 602 018c C361     		str	r3, [r0, #28]
 197:Core/Src/usart.c ****     hdma_usart3_rx.Init.FIFOMode = DMA_FIFOMODE_DISABLE;
 603              		.loc 1 197 5 is_stmt 1 view .LVU218
 197:Core/Src/usart.c ****     hdma_usart3_rx.Init.FIFOMode = DMA_FIFOMODE_DISABLE;
 604              		.loc 1 197 34 is_stmt 0 view .LVU219
 605 018e 4FF40033 		mov	r3, #131072
 606 0192 0362     		str	r3, [r0, #32]
 198:Core/Src/usart.c ****     if (HAL_DMA_Init(&hdma_usart3_rx) != HAL_OK)
 607              		.loc 1 198 5 is_stmt 1 view .LVU220
 198:Core/Src/usart.c ****     if (HAL_DMA_Init(&hdma_usart3_rx) != HAL_OK)
 608              		.loc 1 198 34 is_stmt 0 view .LVU221
 609 0194 4562     		str	r5, [r0, #36]
 199:Core/Src/usart.c ****     {
 610              		.loc 1 199 5 is_stmt 1 view .LVU222
 199:Core/Src/usart.c ****     {
ARM GAS  C:\Users\LENOVO\AppData\Local\Temp\cci8zbF0.s 			page 19


 611              		.loc 1 199 9 is_stmt 0 view .LVU223
 612 0196 FFF7FEFF 		bl	HAL_DMA_Init
 613              	.LVL21:
 199:Core/Src/usart.c ****     {
 614              		.loc 1 199 8 discriminator 1 view .LVU224
 615 019a 58B9     		cbnz	r0, .L34
 616              	.L25:
 204:Core/Src/usart.c **** 
 617              		.loc 1 204 5 is_stmt 1 view .LVU225
 204:Core/Src/usart.c **** 
 618              		.loc 1 204 5 view .LVU226
 619 019c 444B     		ldr	r3, .L37+44
 620 019e 6363     		str	r3, [r4, #52]
 204:Core/Src/usart.c **** 
 621              		.loc 1 204 5 view .LVU227
 622 01a0 9C63     		str	r4, [r3, #56]
 204:Core/Src/usart.c **** 
 623              		.loc 1 204 5 view .LVU228
 207:Core/Src/usart.c ****     HAL_NVIC_EnableIRQ(USART3_IRQn);
 624              		.loc 1 207 5 view .LVU229
 625 01a2 0022     		movs	r2, #0
 626 01a4 0421     		movs	r1, #4
 627 01a6 2720     		movs	r0, #39
 628 01a8 FFF7FEFF 		bl	HAL_NVIC_SetPriority
 629              	.LVL22:
 208:Core/Src/usart.c ****     /* USER CODE BEGIN USART3_MspInit 1 */
 630              		.loc 1 208 5 view .LVU230
 631 01ac 2720     		movs	r0, #39
 632 01ae FFF7FEFF 		bl	HAL_NVIC_EnableIRQ
 633              	.LVL23:
 634 01b2 3BE7     		b	.L19
 635              	.L34:
 201:Core/Src/usart.c ****     }
 636              		.loc 1 201 7 view .LVU231
 637 01b4 FFF7FEFF 		bl	Error_Handler
 638              	.LVL24:
 639 01b8 F0E7     		b	.L25
 640              	.LVL25:
 641              	.L31:
 219:Core/Src/usart.c **** 
 642              		.loc 1 219 5 view .LVU232
 643              	.LBB7:
 219:Core/Src/usart.c **** 
 644              		.loc 1 219 5 view .LVU233
 645 01ba 0025     		movs	r5, #0
 646 01bc 0595     		str	r5, [sp, #20]
 219:Core/Src/usart.c **** 
 647              		.loc 1 219 5 view .LVU234
 648 01be 344B     		ldr	r3, .L37+12
 649 01c0 5A6C     		ldr	r2, [r3, #68]
 650 01c2 42F02002 		orr	r2, r2, #32
 651 01c6 5A64     		str	r2, [r3, #68]
 219:Core/Src/usart.c **** 
 652              		.loc 1 219 5 view .LVU235
 653 01c8 5A6C     		ldr	r2, [r3, #68]
 654 01ca 02F02002 		and	r2, r2, #32
 655 01ce 0592     		str	r2, [sp, #20]
ARM GAS  C:\Users\LENOVO\AppData\Local\Temp\cci8zbF0.s 			page 20


 219:Core/Src/usart.c **** 
 656              		.loc 1 219 5 view .LVU236
 657 01d0 059A     		ldr	r2, [sp, #20]
 658              	.LBE7:
 219:Core/Src/usart.c **** 
 659              		.loc 1 219 5 view .LVU237
 221:Core/Src/usart.c ****     /**USART6 GPIO Configuration
 660              		.loc 1 221 5 view .LVU238
 661              	.LBB8:
 221:Core/Src/usart.c ****     /**USART6 GPIO Configuration
 662              		.loc 1 221 5 view .LVU239
 663 01d2 0695     		str	r5, [sp, #24]
 221:Core/Src/usart.c ****     /**USART6 GPIO Configuration
 664              		.loc 1 221 5 view .LVU240
 665 01d4 1A6B     		ldr	r2, [r3, #48]
 666 01d6 42F04002 		orr	r2, r2, #64
 667 01da 1A63     		str	r2, [r3, #48]
 221:Core/Src/usart.c ****     /**USART6 GPIO Configuration
 668              		.loc 1 221 5 view .LVU241
 669 01dc 1B6B     		ldr	r3, [r3, #48]
 670 01de 03F04003 		and	r3, r3, #64
 671 01e2 0693     		str	r3, [sp, #24]
 221:Core/Src/usart.c ****     /**USART6 GPIO Configuration
 672              		.loc 1 221 5 view .LVU242
 673 01e4 069B     		ldr	r3, [sp, #24]
 674              	.LBE8:
 221:Core/Src/usart.c ****     /**USART6 GPIO Configuration
 675              		.loc 1 221 5 view .LVU243
 226:Core/Src/usart.c ****     GPIO_InitStruct.Mode = GPIO_MODE_AF_PP;
 676              		.loc 1 226 5 view .LVU244
 226:Core/Src/usart.c ****     GPIO_InitStruct.Mode = GPIO_MODE_AF_PP;
 677              		.loc 1 226 25 is_stmt 0 view .LVU245
 678 01e6 4FF48443 		mov	r3, #16896
 679 01ea 0793     		str	r3, [sp, #28]
 227:Core/Src/usart.c ****     GPIO_InitStruct.Pull = GPIO_NOPULL;
 680              		.loc 1 227 5 is_stmt 1 view .LVU246
 227:Core/Src/usart.c ****     GPIO_InitStruct.Pull = GPIO_NOPULL;
 681              		.loc 1 227 26 is_stmt 0 view .LVU247
 682 01ec 0223     		movs	r3, #2
 683 01ee 0893     		str	r3, [sp, #32]
 228:Core/Src/usart.c ****     GPIO_InitStruct.Speed = GPIO_SPEED_FREQ_VERY_HIGH;
 684              		.loc 1 228 5 is_stmt 1 view .LVU248
 229:Core/Src/usart.c ****     GPIO_InitStruct.Alternate = GPIO_AF8_USART6;
 685              		.loc 1 229 5 view .LVU249
 229:Core/Src/usart.c ****     GPIO_InitStruct.Alternate = GPIO_AF8_USART6;
 686              		.loc 1 229 27 is_stmt 0 view .LVU250
 687 01f0 0323     		movs	r3, #3
 688 01f2 0A93     		str	r3, [sp, #40]
 230:Core/Src/usart.c ****     HAL_GPIO_Init(GPIOG, &GPIO_InitStruct);
 689              		.loc 1 230 5 is_stmt 1 view .LVU251
 230:Core/Src/usart.c ****     HAL_GPIO_Init(GPIOG, &GPIO_InitStruct);
 690              		.loc 1 230 31 is_stmt 0 view .LVU252
 691 01f4 0823     		movs	r3, #8
 692 01f6 0B93     		str	r3, [sp, #44]
 231:Core/Src/usart.c **** 
 693              		.loc 1 231 5 is_stmt 1 view .LVU253
 694 01f8 07A9     		add	r1, sp, #28
ARM GAS  C:\Users\LENOVO\AppData\Local\Temp\cci8zbF0.s 			page 21


 695 01fa 2F48     		ldr	r0, .L37+52
 696              	.LVL26:
 231:Core/Src/usart.c **** 
 697              		.loc 1 231 5 is_stmt 0 view .LVU254
 698 01fc FFF7FEFF 		bl	HAL_GPIO_Init
 699              	.LVL27:
 235:Core/Src/usart.c ****     hdma_usart6_tx.Init.Channel = DMA_CHANNEL_5;
 700              		.loc 1 235 5 is_stmt 1 view .LVU255
 235:Core/Src/usart.c ****     hdma_usart6_tx.Init.Channel = DMA_CHANNEL_5;
 701              		.loc 1 235 29 is_stmt 0 view .LVU256
 702 0200 2E48     		ldr	r0, .L37+56
 703 0202 2F4B     		ldr	r3, .L37+60
 704 0204 0360     		str	r3, [r0]
 236:Core/Src/usart.c ****     hdma_usart6_tx.Init.Direction = DMA_MEMORY_TO_PERIPH;
 705              		.loc 1 236 5 is_stmt 1 view .LVU257
 236:Core/Src/usart.c ****     hdma_usart6_tx.Init.Direction = DMA_MEMORY_TO_PERIPH;
 706              		.loc 1 236 33 is_stmt 0 view .LVU258
 707 0206 4FF02063 		mov	r3, #167772160
 708 020a 4360     		str	r3, [r0, #4]
 237:Core/Src/usart.c ****     hdma_usart6_tx.Init.PeriphInc = DMA_PINC_DISABLE;
 709              		.loc 1 237 5 is_stmt 1 view .LVU259
 237:Core/Src/usart.c ****     hdma_usart6_tx.Init.PeriphInc = DMA_PINC_DISABLE;
 710              		.loc 1 237 35 is_stmt 0 view .LVU260
 711 020c 4023     		movs	r3, #64
 712 020e 8360     		str	r3, [r0, #8]
 238:Core/Src/usart.c ****     hdma_usart6_tx.Init.MemInc = DMA_MINC_ENABLE;
 713              		.loc 1 238 5 is_stmt 1 view .LVU261
 238:Core/Src/usart.c ****     hdma_usart6_tx.Init.MemInc = DMA_MINC_ENABLE;
 714              		.loc 1 238 35 is_stmt 0 view .LVU262
 715 0210 C560     		str	r5, [r0, #12]
 239:Core/Src/usart.c ****     hdma_usart6_tx.Init.PeriphDataAlignment = DMA_PDATAALIGN_BYTE;
 716              		.loc 1 239 5 is_stmt 1 view .LVU263
 239:Core/Src/usart.c ****     hdma_usart6_tx.Init.PeriphDataAlignment = DMA_PDATAALIGN_BYTE;
 717              		.loc 1 239 32 is_stmt 0 view .LVU264
 718 0212 4FF48063 		mov	r3, #1024
 719 0216 0361     		str	r3, [r0, #16]
 240:Core/Src/usart.c ****     hdma_usart6_tx.Init.MemDataAlignment = DMA_MDATAALIGN_BYTE;
 720              		.loc 1 240 5 is_stmt 1 view .LVU265
 240:Core/Src/usart.c ****     hdma_usart6_tx.Init.MemDataAlignment = DMA_MDATAALIGN_BYTE;
 721              		.loc 1 240 45 is_stmt 0 view .LVU266
 722 0218 4561     		str	r5, [r0, #20]
 241:Core/Src/usart.c ****     hdma_usart6_tx.Init.Mode = DMA_NORMAL;
 723              		.loc 1 241 5 is_stmt 1 view .LVU267
 241:Core/Src/usart.c ****     hdma_usart6_tx.Init.Mode = DMA_NORMAL;
 724              		.loc 1 241 42 is_stmt 0 view .LVU268
 725 021a 8561     		str	r5, [r0, #24]
 242:Core/Src/usart.c ****     hdma_usart6_tx.Init.Priority = DMA_PRIORITY_MEDIUM;
 726              		.loc 1 242 5 is_stmt 1 view .LVU269
 242:Core/Src/usart.c ****     hdma_usart6_tx.Init.Priority = DMA_PRIORITY_MEDIUM;
 727              		.loc 1 242 30 is_stmt 0 view .LVU270
 728 021c C561     		str	r5, [r0, #28]
 243:Core/Src/usart.c ****     hdma_usart6_tx.Init.FIFOMode = DMA_FIFOMODE_DISABLE;
 729              		.loc 1 243 5 is_stmt 1 view .LVU271
 243:Core/Src/usart.c ****     hdma_usart6_tx.Init.FIFOMode = DMA_FIFOMODE_DISABLE;
 730              		.loc 1 243 34 is_stmt 0 view .LVU272
 731 021e 4FF48033 		mov	r3, #65536
 732 0222 0362     		str	r3, [r0, #32]
ARM GAS  C:\Users\LENOVO\AppData\Local\Temp\cci8zbF0.s 			page 22


 244:Core/Src/usart.c ****     if (HAL_DMA_Init(&hdma_usart6_tx) != HAL_OK)
 733              		.loc 1 244 5 is_stmt 1 view .LVU273
 244:Core/Src/usart.c ****     if (HAL_DMA_Init(&hdma_usart6_tx) != HAL_OK)
 734              		.loc 1 244 34 is_stmt 0 view .LVU274
 735 0224 4562     		str	r5, [r0, #36]
 245:Core/Src/usart.c ****     {
 736              		.loc 1 245 5 is_stmt 1 view .LVU275
 245:Core/Src/usart.c ****     {
 737              		.loc 1 245 9 is_stmt 0 view .LVU276
 738 0226 FFF7FEFF 		bl	HAL_DMA_Init
 739              	.LVL28:
 245:Core/Src/usart.c ****     {
 740              		.loc 1 245 8 discriminator 1 view .LVU277
 741 022a 20BB     		cbnz	r0, .L35
 742              	.L26:
 250:Core/Src/usart.c **** 
 743              		.loc 1 250 5 is_stmt 1 view .LVU278
 250:Core/Src/usart.c **** 
 744              		.loc 1 250 5 view .LVU279
 745 022c 234B     		ldr	r3, .L37+56
 746 022e 2363     		str	r3, [r4, #48]
 250:Core/Src/usart.c **** 
 747              		.loc 1 250 5 view .LVU280
 748 0230 9C63     		str	r4, [r3, #56]
 250:Core/Src/usart.c **** 
 749              		.loc 1 250 5 view .LVU281
 253:Core/Src/usart.c ****     hdma_usart6_rx.Init.Channel = DMA_CHANNEL_5;
 750              		.loc 1 253 5 view .LVU282
 253:Core/Src/usart.c ****     hdma_usart6_rx.Init.Channel = DMA_CHANNEL_5;
 751              		.loc 1 253 29 is_stmt 0 view .LVU283
 752 0232 2448     		ldr	r0, .L37+64
 753 0234 244B     		ldr	r3, .L37+68
 754 0236 0360     		str	r3, [r0]
 254:Core/Src/usart.c ****     hdma_usart6_rx.Init.Direction = DMA_PERIPH_TO_MEMORY;
 755              		.loc 1 254 5 is_stmt 1 view .LVU284
 254:Core/Src/usart.c ****     hdma_usart6_rx.Init.Direction = DMA_PERIPH_TO_MEMORY;
 756              		.loc 1 254 33 is_stmt 0 view .LVU285
 757 0238 4FF02063 		mov	r3, #167772160
 758 023c 4360     		str	r3, [r0, #4]
 255:Core/Src/usart.c ****     hdma_usart6_rx.Init.PeriphInc = DMA_PINC_DISABLE;
 759              		.loc 1 255 5 is_stmt 1 view .LVU286
 255:Core/Src/usart.c ****     hdma_usart6_rx.Init.PeriphInc = DMA_PINC_DISABLE;
 760              		.loc 1 255 35 is_stmt 0 view .LVU287
 761 023e 0023     		movs	r3, #0
 762 0240 8360     		str	r3, [r0, #8]
 256:Core/Src/usart.c ****     hdma_usart6_rx.Init.MemInc = DMA_MINC_ENABLE;
 763              		.loc 1 256 5 is_stmt 1 view .LVU288
 256:Core/Src/usart.c ****     hdma_usart6_rx.Init.MemInc = DMA_MINC_ENABLE;
 764              		.loc 1 256 35 is_stmt 0 view .LVU289
 765 0242 C360     		str	r3, [r0, #12]
 257:Core/Src/usart.c ****     hdma_usart6_rx.Init.PeriphDataAlignment = DMA_PDATAALIGN_BYTE;
 766              		.loc 1 257 5 is_stmt 1 view .LVU290
 257:Core/Src/usart.c ****     hdma_usart6_rx.Init.PeriphDataAlignment = DMA_PDATAALIGN_BYTE;
 767              		.loc 1 257 32 is_stmt 0 view .LVU291
 768 0244 4FF48062 		mov	r2, #1024
 769 0248 0261     		str	r2, [r0, #16]
 258:Core/Src/usart.c ****     hdma_usart6_rx.Init.MemDataAlignment = DMA_MDATAALIGN_BYTE;
ARM GAS  C:\Users\LENOVO\AppData\Local\Temp\cci8zbF0.s 			page 23


 770              		.loc 1 258 5 is_stmt 1 view .LVU292
 258:Core/Src/usart.c ****     hdma_usart6_rx.Init.MemDataAlignment = DMA_MDATAALIGN_BYTE;
 771              		.loc 1 258 45 is_stmt 0 view .LVU293
 772 024a 4361     		str	r3, [r0, #20]
 259:Core/Src/usart.c ****     hdma_usart6_rx.Init.Mode = DMA_CIRCULAR;
 773              		.loc 1 259 5 is_stmt 1 view .LVU294
 259:Core/Src/usart.c ****     hdma_usart6_rx.Init.Mode = DMA_CIRCULAR;
 774              		.loc 1 259 42 is_stmt 0 view .LVU295
 775 024c 8361     		str	r3, [r0, #24]
 260:Core/Src/usart.c ****     hdma_usart6_rx.Init.Priority = DMA_PRIORITY_LOW;
 776              		.loc 1 260 5 is_stmt 1 view .LVU296
 260:Core/Src/usart.c ****     hdma_usart6_rx.Init.Priority = DMA_PRIORITY_LOW;
 777              		.loc 1 260 30 is_stmt 0 view .LVU297
 778 024e 4FF48072 		mov	r2, #256
 779 0252 C261     		str	r2, [r0, #28]
 261:Core/Src/usart.c ****     hdma_usart6_rx.Init.FIFOMode = DMA_FIFOMODE_DISABLE;
 780              		.loc 1 261 5 is_stmt 1 view .LVU298
 261:Core/Src/usart.c ****     hdma_usart6_rx.Init.FIFOMode = DMA_FIFOMODE_DISABLE;
 781              		.loc 1 261 34 is_stmt 0 view .LVU299
 782 0254 0362     		str	r3, [r0, #32]
 262:Core/Src/usart.c ****     if (HAL_DMA_Init(&hdma_usart6_rx) != HAL_OK)
 783              		.loc 1 262 5 is_stmt 1 view .LVU300
 262:Core/Src/usart.c ****     if (HAL_DMA_Init(&hdma_usart6_rx) != HAL_OK)
 784              		.loc 1 262 34 is_stmt 0 view .LVU301
 785 0256 4362     		str	r3, [r0, #36]
 263:Core/Src/usart.c ****     {
 786              		.loc 1 263 5 is_stmt 1 view .LVU302
 263:Core/Src/usart.c ****     {
 787              		.loc 1 263 9 is_stmt 0 view .LVU303
 788 0258 FFF7FEFF 		bl	HAL_DMA_Init
 789              	.LVL29:
 263:Core/Src/usart.c ****     {
 790              		.loc 1 263 8 discriminator 1 view .LVU304
 791 025c 70B9     		cbnz	r0, .L36
 792              	.L27:
 268:Core/Src/usart.c **** 
 793              		.loc 1 268 5 is_stmt 1 view .LVU305
 268:Core/Src/usart.c **** 
 794              		.loc 1 268 5 view .LVU306
 795 025e 194B     		ldr	r3, .L37+64
 796 0260 6363     		str	r3, [r4, #52]
 268:Core/Src/usart.c **** 
 797              		.loc 1 268 5 view .LVU307
 798 0262 9C63     		str	r4, [r3, #56]
 268:Core/Src/usart.c **** 
 799              		.loc 1 268 5 view .LVU308
 271:Core/Src/usart.c ****     HAL_NVIC_EnableIRQ(USART6_IRQn);
 800              		.loc 1 271 5 view .LVU309
 801 0264 0022     		movs	r2, #0
 802 0266 0521     		movs	r1, #5
 803 0268 4720     		movs	r0, #71
 804 026a FFF7FEFF 		bl	HAL_NVIC_SetPriority
 805              	.LVL30:
 272:Core/Src/usart.c ****     /* USER CODE BEGIN USART6_MspInit 1 */
 806              		.loc 1 272 5 view .LVU310
 807 026e 4720     		movs	r0, #71
 808 0270 FFF7FEFF 		bl	HAL_NVIC_EnableIRQ
ARM GAS  C:\Users\LENOVO\AppData\Local\Temp\cci8zbF0.s 			page 24


 809              	.LVL31:
 810              		.loc 1 277 1 is_stmt 0 view .LVU311
 811 0274 DAE6     		b	.L19
 812              	.L35:
 247:Core/Src/usart.c ****     }
 813              		.loc 1 247 7 is_stmt 1 view .LVU312
 814 0276 FFF7FEFF 		bl	Error_Handler
 815              	.LVL32:
 816 027a D7E7     		b	.L26
 817              	.L36:
 265:Core/Src/usart.c ****     }
 818              		.loc 1 265 7 view .LVU313
 819 027c FFF7FEFF 		bl	Error_Handler
 820              	.LVL33:
 821 0280 EDE7     		b	.L27
 822              	.L38:
 823 0282 00BF     		.align	2
 824              	.L37:
 825 0284 00100140 		.word	1073811456
 826 0288 00480040 		.word	1073760256
 827 028c 00140140 		.word	1073812480
 828 0290 00380240 		.word	1073887232
 829 0294 00040240 		.word	1073873920
 830 0298 00000240 		.word	1073872896
 831 029c 00000000 		.word	hdma_usart1_tx
 832 02a0 B8640240 		.word	1073898680
 833 02a4 00000000 		.word	hdma_usart1_rx
 834 02a8 88640240 		.word	1073898632
 835 02ac 00080240 		.word	1073874944
 836 02b0 00000000 		.word	hdma_usart3_rx
 837 02b4 28600240 		.word	1073897512
 838 02b8 00180240 		.word	1073879040
 839 02bc 00000000 		.word	hdma_usart6_tx
 840 02c0 A0640240 		.word	1073898656
 841 02c4 00000000 		.word	hdma_usart6_rx
 842 02c8 28640240 		.word	1073898536
 843              		.cfi_endproc
 844              	.LFE133:
 846              		.section	.text.HAL_UART_MspDeInit,"ax",%progbits
 847              		.align	1
 848              		.global	HAL_UART_MspDeInit
 849              		.syntax unified
 850              		.thumb
 851              		.thumb_func
 853              	HAL_UART_MspDeInit:
 854              	.LVL34:
 855              	.LFB134:
 278:Core/Src/usart.c **** 
 279:Core/Src/usart.c **** void HAL_UART_MspDeInit(UART_HandleTypeDef *uartHandle)
 280:Core/Src/usart.c **** {
 856              		.loc 1 280 1 view -0
 857              		.cfi_startproc
 858              		@ args = 0, pretend = 0, frame = 0
 859              		@ frame_needed = 0, uses_anonymous_args = 0
 860              		.loc 1 280 1 is_stmt 0 view .LVU315
 861 0000 10B5     		push	{r4, lr}
 862              	.LCFI7:
ARM GAS  C:\Users\LENOVO\AppData\Local\Temp\cci8zbF0.s 			page 25


 863              		.cfi_def_cfa_offset 8
 864              		.cfi_offset 4, -8
 865              		.cfi_offset 14, -4
 866 0002 0446     		mov	r4, r0
 281:Core/Src/usart.c **** 
 282:Core/Src/usart.c ****   if (uartHandle->Instance == USART1)
 867              		.loc 1 282 3 is_stmt 1 view .LVU316
 868              		.loc 1 282 17 is_stmt 0 view .LVU317
 869 0004 0368     		ldr	r3, [r0]
 870              		.loc 1 282 6 view .LVU318
 871 0006 254A     		ldr	r2, .L47
 872 0008 9342     		cmp	r3, r2
 873 000a 06D0     		beq	.L44
 283:Core/Src/usart.c ****   {
 284:Core/Src/usart.c ****     /* USER CODE BEGIN USART1_MspDeInit 0 */
 285:Core/Src/usart.c **** 
 286:Core/Src/usart.c ****     /* USER CODE END USART1_MspDeInit 0 */
 287:Core/Src/usart.c ****     /* Peripheral clock disable */
 288:Core/Src/usart.c ****     __HAL_RCC_USART1_CLK_DISABLE();
 289:Core/Src/usart.c **** 
 290:Core/Src/usart.c ****     /**USART1 GPIO Configuration
 291:Core/Src/usart.c ****     PB7     ------> USART1_RX
 292:Core/Src/usart.c ****     PA9     ------> USART1_TX
 293:Core/Src/usart.c ****     */
 294:Core/Src/usart.c ****     HAL_GPIO_DeInit(GPIOB, GPIO_PIN_7);
 295:Core/Src/usart.c **** 
 296:Core/Src/usart.c ****     HAL_GPIO_DeInit(GPIOA, GPIO_PIN_9);
 297:Core/Src/usart.c **** 
 298:Core/Src/usart.c ****     /* USART1 DMA DeInit */
 299:Core/Src/usart.c ****     HAL_DMA_DeInit(uartHandle->hdmatx);
 300:Core/Src/usart.c ****     HAL_DMA_DeInit(uartHandle->hdmarx);
 301:Core/Src/usart.c **** 
 302:Core/Src/usart.c ****     /* USART1 interrupt Deinit */
 303:Core/Src/usart.c ****     HAL_NVIC_DisableIRQ(USART1_IRQn);
 304:Core/Src/usart.c ****     /* USER CODE BEGIN USART1_MspDeInit 1 */
 305:Core/Src/usart.c **** 
 306:Core/Src/usart.c ****     /* USER CODE END USART1_MspDeInit 1 */
 307:Core/Src/usart.c ****   }
 308:Core/Src/usart.c ****   else if (uartHandle->Instance == USART3)
 874              		.loc 1 308 8 is_stmt 1 view .LVU319
 875              		.loc 1 308 11 is_stmt 0 view .LVU320
 876 000c 244A     		ldr	r2, .L47+4
 877 000e 9342     		cmp	r3, r2
 878 0010 1CD0     		beq	.L45
 309:Core/Src/usart.c ****   {
 310:Core/Src/usart.c ****     /* USER CODE BEGIN USART3_MspDeInit 0 */
 311:Core/Src/usart.c **** 
 312:Core/Src/usart.c ****     /* USER CODE END USART3_MspDeInit 0 */
 313:Core/Src/usart.c ****     /* Peripheral clock disable */
 314:Core/Src/usart.c ****     __HAL_RCC_USART3_CLK_DISABLE();
 315:Core/Src/usart.c **** 
 316:Core/Src/usart.c ****     /**USART3 GPIO Configuration
 317:Core/Src/usart.c ****     PC11     ------> USART3_RX
 318:Core/Src/usart.c ****     PC10     ------> USART3_TX
 319:Core/Src/usart.c ****     */
 320:Core/Src/usart.c ****     HAL_GPIO_DeInit(GPIOC, GPIO_PIN_11 | GPIO_PIN_10);
 321:Core/Src/usart.c **** 
ARM GAS  C:\Users\LENOVO\AppData\Local\Temp\cci8zbF0.s 			page 26


 322:Core/Src/usart.c ****     /* USART3 DMA DeInit */
 323:Core/Src/usart.c ****     HAL_DMA_DeInit(uartHandle->hdmarx);
 324:Core/Src/usart.c **** 
 325:Core/Src/usart.c ****     /* USART3 interrupt Deinit */
 326:Core/Src/usart.c ****     HAL_NVIC_DisableIRQ(USART3_IRQn);
 327:Core/Src/usart.c ****     /* USER CODE BEGIN USART3_MspDeInit 1 */
 328:Core/Src/usart.c **** 
 329:Core/Src/usart.c ****     /* USER CODE END USART3_MspDeInit 1 */
 330:Core/Src/usart.c ****   }
 331:Core/Src/usart.c ****   else if (uartHandle->Instance == USART6)
 879              		.loc 1 331 8 is_stmt 1 view .LVU321
 880              		.loc 1 331 11 is_stmt 0 view .LVU322
 881 0012 244A     		ldr	r2, .L47+8
 882 0014 9342     		cmp	r3, r2
 883 0016 2BD0     		beq	.L46
 884              	.LVL35:
 885              	.L39:
 332:Core/Src/usart.c ****   {
 333:Core/Src/usart.c ****     /* USER CODE BEGIN USART6_MspDeInit 0 */
 334:Core/Src/usart.c **** 
 335:Core/Src/usart.c ****     /* USER CODE END USART6_MspDeInit 0 */
 336:Core/Src/usart.c ****     /* Peripheral clock disable */
 337:Core/Src/usart.c ****     __HAL_RCC_USART6_CLK_DISABLE();
 338:Core/Src/usart.c **** 
 339:Core/Src/usart.c ****     /**USART6 GPIO Configuration
 340:Core/Src/usart.c ****     PG14     ------> USART6_TX
 341:Core/Src/usart.c ****     PG9     ------> USART6_RX
 342:Core/Src/usart.c ****     */
 343:Core/Src/usart.c ****     HAL_GPIO_DeInit(GPIOG, GPIO_PIN_14 | GPIO_PIN_9);
 344:Core/Src/usart.c **** 
 345:Core/Src/usart.c ****     /* USART6 DMA DeInit */
 346:Core/Src/usart.c ****     HAL_DMA_DeInit(uartHandle->hdmatx);
 347:Core/Src/usart.c ****     HAL_DMA_DeInit(uartHandle->hdmarx);
 348:Core/Src/usart.c **** 
 349:Core/Src/usart.c ****     /* USART6 interrupt Deinit */
 350:Core/Src/usart.c ****     HAL_NVIC_DisableIRQ(USART6_IRQn);
 351:Core/Src/usart.c ****     /* USER CODE BEGIN USART6_MspDeInit 1 */
 352:Core/Src/usart.c **** 
 353:Core/Src/usart.c ****     /* USER CODE END USART6_MspDeInit 1 */
 354:Core/Src/usart.c ****   }
 355:Core/Src/usart.c **** }
 886              		.loc 1 355 1 view .LVU323
 887 0018 10BD     		pop	{r4, pc}
 888              	.LVL36:
 889              	.L44:
 288:Core/Src/usart.c **** 
 890              		.loc 1 288 5 is_stmt 1 view .LVU324
 891 001a 02F59432 		add	r2, r2, #75776
 892 001e 536C     		ldr	r3, [r2, #68]
 893 0020 23F01003 		bic	r3, r3, #16
 894 0024 5364     		str	r3, [r2, #68]
 294:Core/Src/usart.c **** 
 895              		.loc 1 294 5 view .LVU325
 896 0026 8021     		movs	r1, #128
 897 0028 1F48     		ldr	r0, .L47+12
 898              	.LVL37:
 294:Core/Src/usart.c **** 
ARM GAS  C:\Users\LENOVO\AppData\Local\Temp\cci8zbF0.s 			page 27


 899              		.loc 1 294 5 is_stmt 0 view .LVU326
 900 002a FFF7FEFF 		bl	HAL_GPIO_DeInit
 901              	.LVL38:
 296:Core/Src/usart.c **** 
 902              		.loc 1 296 5 is_stmt 1 view .LVU327
 903 002e 4FF40071 		mov	r1, #512
 904 0032 1E48     		ldr	r0, .L47+16
 905 0034 FFF7FEFF 		bl	HAL_GPIO_DeInit
 906              	.LVL39:
 299:Core/Src/usart.c ****     HAL_DMA_DeInit(uartHandle->hdmarx);
 907              		.loc 1 299 5 view .LVU328
 908 0038 206B     		ldr	r0, [r4, #48]
 909 003a FFF7FEFF 		bl	HAL_DMA_DeInit
 910              	.LVL40:
 300:Core/Src/usart.c **** 
 911              		.loc 1 300 5 view .LVU329
 912 003e 606B     		ldr	r0, [r4, #52]
 913 0040 FFF7FEFF 		bl	HAL_DMA_DeInit
 914              	.LVL41:
 303:Core/Src/usart.c ****     /* USER CODE BEGIN USART1_MspDeInit 1 */
 915              		.loc 1 303 5 view .LVU330
 916 0044 2520     		movs	r0, #37
 917 0046 FFF7FEFF 		bl	HAL_NVIC_DisableIRQ
 918              	.LVL42:
 919 004a E5E7     		b	.L39
 920              	.LVL43:
 921              	.L45:
 314:Core/Src/usart.c **** 
 922              		.loc 1 314 5 view .LVU331
 923 004c 02F5F832 		add	r2, r2, #126976
 924 0050 136C     		ldr	r3, [r2, #64]
 925 0052 23F48023 		bic	r3, r3, #262144
 926 0056 1364     		str	r3, [r2, #64]
 320:Core/Src/usart.c **** 
 927              		.loc 1 320 5 view .LVU332
 928 0058 4FF44061 		mov	r1, #3072
 929 005c 1448     		ldr	r0, .L47+20
 930              	.LVL44:
 320:Core/Src/usart.c **** 
 931              		.loc 1 320 5 is_stmt 0 view .LVU333
 932 005e FFF7FEFF 		bl	HAL_GPIO_DeInit
 933              	.LVL45:
 323:Core/Src/usart.c **** 
 934              		.loc 1 323 5 is_stmt 1 view .LVU334
 935 0062 606B     		ldr	r0, [r4, #52]
 936 0064 FFF7FEFF 		bl	HAL_DMA_DeInit
 937              	.LVL46:
 326:Core/Src/usart.c ****     /* USER CODE BEGIN USART3_MspDeInit 1 */
 938              		.loc 1 326 5 view .LVU335
 939 0068 2720     		movs	r0, #39
 940 006a FFF7FEFF 		bl	HAL_NVIC_DisableIRQ
 941              	.LVL47:
 942 006e D3E7     		b	.L39
 943              	.LVL48:
 944              	.L46:
 337:Core/Src/usart.c **** 
 945              		.loc 1 337 5 view .LVU336
ARM GAS  C:\Users\LENOVO\AppData\Local\Temp\cci8zbF0.s 			page 28


 946 0070 02F59232 		add	r2, r2, #74752
 947 0074 536C     		ldr	r3, [r2, #68]
 948 0076 23F02003 		bic	r3, r3, #32
 949 007a 5364     		str	r3, [r2, #68]
 343:Core/Src/usart.c **** 
 950              		.loc 1 343 5 view .LVU337
 951 007c 4FF48441 		mov	r1, #16896
 952 0080 0C48     		ldr	r0, .L47+24
 953              	.LVL49:
 343:Core/Src/usart.c **** 
 954              		.loc 1 343 5 is_stmt 0 view .LVU338
 955 0082 FFF7FEFF 		bl	HAL_GPIO_DeInit
 956              	.LVL50:
 346:Core/Src/usart.c ****     HAL_DMA_DeInit(uartHandle->hdmarx);
 957              		.loc 1 346 5 is_stmt 1 view .LVU339
 958 0086 206B     		ldr	r0, [r4, #48]
 959 0088 FFF7FEFF 		bl	HAL_DMA_DeInit
 960              	.LVL51:
 347:Core/Src/usart.c **** 
 961              		.loc 1 347 5 view .LVU340
 962 008c 606B     		ldr	r0, [r4, #52]
 963 008e FFF7FEFF 		bl	HAL_DMA_DeInit
 964              	.LVL52:
 350:Core/Src/usart.c ****     /* USER CODE BEGIN USART6_MspDeInit 1 */
 965              		.loc 1 350 5 view .LVU341
 966 0092 4720     		movs	r0, #71
 967 0094 FFF7FEFF 		bl	HAL_NVIC_DisableIRQ
 968              	.LVL53:
 969              		.loc 1 355 1 is_stmt 0 view .LVU342
 970 0098 BEE7     		b	.L39
 971              	.L48:
 972 009a 00BF     		.align	2
 973              	.L47:
 974 009c 00100140 		.word	1073811456
 975 00a0 00480040 		.word	1073760256
 976 00a4 00140140 		.word	1073812480
 977 00a8 00040240 		.word	1073873920
 978 00ac 00000240 		.word	1073872896
 979 00b0 00080240 		.word	1073874944
 980 00b4 00180240 		.word	1073879040
 981              		.cfi_endproc
 982              	.LFE134:
 984              		.global	hdma_usart6_rx
 985              		.section	.bss.hdma_usart6_rx,"aw",%nobits
 986              		.align	2
 989              	hdma_usart6_rx:
 990 0000 00000000 		.space	96
 990      00000000 
 990      00000000 
 990      00000000 
 990      00000000 
 991              		.global	hdma_usart6_tx
 992              		.section	.bss.hdma_usart6_tx,"aw",%nobits
 993              		.align	2
 996              	hdma_usart6_tx:
 997 0000 00000000 		.space	96
 997      00000000 
ARM GAS  C:\Users\LENOVO\AppData\Local\Temp\cci8zbF0.s 			page 29


 997      00000000 
 997      00000000 
 997      00000000 
 998              		.global	hdma_usart3_rx
 999              		.section	.bss.hdma_usart3_rx,"aw",%nobits
 1000              		.align	2
 1003              	hdma_usart3_rx:
 1004 0000 00000000 		.space	96
 1004      00000000 
 1004      00000000 
 1004      00000000 
 1004      00000000 
 1005              		.global	hdma_usart1_rx
 1006              		.section	.bss.hdma_usart1_rx,"aw",%nobits
 1007              		.align	2
 1010              	hdma_usart1_rx:
 1011 0000 00000000 		.space	96
 1011      00000000 
 1011      00000000 
 1011      00000000 
 1011      00000000 
 1012              		.global	hdma_usart1_tx
 1013              		.section	.bss.hdma_usart1_tx,"aw",%nobits
 1014              		.align	2
 1017              	hdma_usart1_tx:
 1018 0000 00000000 		.space	96
 1018      00000000 
 1018      00000000 
 1018      00000000 
 1018      00000000 
 1019              		.global	huart6
 1020              		.section	.bss.huart6,"aw",%nobits
 1021              		.align	2
 1024              	huart6:
 1025 0000 00000000 		.space	64
 1025      00000000 
 1025      00000000 
 1025      00000000 
 1025      00000000 
 1026              		.global	huart3
 1027              		.section	.bss.huart3,"aw",%nobits
 1028              		.align	2
 1031              	huart3:
 1032 0000 00000000 		.space	64
 1032      00000000 
 1032      00000000 
 1032      00000000 
 1032      00000000 
 1033              		.global	huart1
 1034              		.section	.bss.huart1,"aw",%nobits
 1035              		.align	2
 1038              	huart1:
 1039 0000 00000000 		.space	64
 1039      00000000 
 1039      00000000 
 1039      00000000 
 1039      00000000 
ARM GAS  C:\Users\LENOVO\AppData\Local\Temp\cci8zbF0.s 			page 30


 1040              		.text
 1041              	.Letext0:
 1042              		.file 2 "Drivers/CMSIS/Device/ST/STM32F4xx/Include/stm32f407xx.h"
 1043              		.file 3 "C:/msys64/mingw64/arm-none-eabi/include/machine/_default_types.h"
 1044              		.file 4 "C:/msys64/mingw64/arm-none-eabi/include/sys/_stdint.h"
 1045              		.file 5 "Drivers/STM32F4xx_HAL_Driver/Inc/stm32f4xx_hal_def.h"
 1046              		.file 6 "Drivers/STM32F4xx_HAL_Driver/Inc/stm32f4xx_hal_gpio.h"
 1047              		.file 7 "Drivers/STM32F4xx_HAL_Driver/Inc/stm32f4xx_hal_dma.h"
 1048              		.file 8 "Drivers/STM32F4xx_HAL_Driver/Inc/stm32f4xx_hal_uart.h"
 1049              		.file 9 "Core/Inc/usart.h"
 1050              		.file 10 "Drivers/STM32F4xx_HAL_Driver/Inc/stm32f4xx_hal_cortex.h"
 1051              		.file 11 "Core/Inc/main.h"
ARM GAS  C:\Users\LENOVO\AppData\Local\Temp\cci8zbF0.s 			page 31

